 preprocess

 Timestamp is 612be672 (Sun Aug 29 15:56:34 2021)

 Preferred load address is 0000000140000000

 Start         Length     Name                   Class
 0001:00000000 00000060H .text$di                CODE
 0001:00000060 0004fa90H .text$mn                CODE
 0001:0004faf0 00000020H .text$mn$00             CODE
 0001:0004fb10 00000fa0H .text$x                 CODE
 0001:00050ab0 00000035H .text$yd                CODE
 0002:00000000 00000280H .idata$5                DATA
 0002:00000280 00000010H .00cfg                  DATA
 0002:00000290 00000008H .CRT$XCA                DATA
 0002:00000298 00000008H .CRT$XCAA               DATA
 0002:000002a0 00000008H .CRT$XCC                DATA
 0002:000002a8 00000008H .CRT$XCU                DATA
 0002:000002b0 00000008H .CRT$XCZ                DATA
 0002:000002b8 00000008H .CRT$XIA                DATA
 0002:000002c0 00000008H .CRT$XIAA               DATA
 0002:000002c8 00000008H .CRT$XIAC               DATA
 0002:000002d0 00000028H .CRT$XIC                DATA
 0002:000002f8 00000008H .CRT$XIZ                DATA
 0002:00000300 00000008H .CRT$XPA                DATA
 0002:00000308 00000010H .CRT$XPX                DATA
 0002:00000318 00000008H .CRT$XPXA               DATA
 0002:00000320 00000008H .CRT$XPZ                DATA
 0002:00000328 00000008H .CRT$XTA                DATA
 0002:00000330 00000010H .CRT$XTZ                DATA
 0002:00000338 00000000H .gfids$y                DATA
 0002:00000340 00015470H .rdata                  DATA
 0002:000157b0 00000404H .rdata$r                DATA
 0002:00015bb4 0000037cH .rdata$zzzdbg           DATA
 0002:00015f30 00000008H .rtc$IAA                DATA
 0002:00015f38 00000008H .rtc$IZZ                DATA
 0002:00015f40 00000008H .rtc$TAA                DATA
 0002:00015f48 00000008H .rtc$TZZ                DATA
 0002:00015f50 00002410H .xdata                  DATA
 0002:00018360 00000244H .xdata$x                DATA
 0002:000185a4 00000000H .edata                  DATA
 0002:000185a4 00000014H .idata$2                DATA
 0002:000185b8 00000018H .idata$3                DATA
 0002:000185d0 00000280H .idata$4                DATA
 0002:00018850 000005c8H .idata$6                DATA
 0003:00000000 00000aa0H .data                   DATA
 0003:00000aa0 00000140H .data$r                 DATA
 0003:00000be0 00001c8cH .bss                    DATA
 0004:00000000 000046ecH .pdata                  DATA
 0005:00000000 00000014H .gehcont$y              DATA

  Address         Publics by Value              Rva+Base               Lib:Object

 0000:00000000       __guard_longjmp_table      0000000000000000     <absolute>
 0000:00000000       __guard_iat_table          0000000000000000     <absolute>
 0000:00000000       __guard_fids_count         0000000000000000     <absolute>
 0000:00000000       __hybrid_code_map_count    0000000000000000     <absolute>
 0000:00000000       __guard_longjmp_count      0000000000000000     <absolute>
 0000:00000000       __hybrid_code_map          0000000000000000     <absolute>
 0000:00000000       __guard_iat_count          0000000000000000     <absolute>
 0000:00000000       __volatile_metadata        0000000000000000     <absolute>
 0000:00000000       __enclave_config           0000000000000000     <absolute>
 0000:00000000       ___safe_se_handler_table   0000000000000000     <absolute>
 0000:00000000       ___safe_se_handler_count   0000000000000000     <absolute>
 0000:00000000       __guard_fids_table         0000000000000000     <absolute>
 0000:00000000       __hybrid_auxiliary_iat     0000000000000000     <absolute>
 0000:00000000       __dynamic_value_reloc_table 0000000000000000     <absolute>
 0000:00000100       __guard_flags              0000000000000100     <absolute>
 0000:00000000       __ImageBase                0000000140000000     <linker-defined>
 0001:00000060       main                       0000000140001060 f   preprocess.obj
 0001:00001ae0       ??$?0$$V@?$_Compressed_pair@V?$allocator@D@std@@V?$_String_val@U?$_Simple_types@D@std@@@2@$00@std@@QEAA@U_Zero_then_variadic_args_t@1@@Z 0000000140002ae0 f i preprocess.obj
 0001:00001b10       ??$?0AEAIAEAPEAUedge@@$0A@@?$pair@IPEAUedge@@@std@@QEAA@AEAIAEAPEAUedge@@@Z 0000000140002b10 f i preprocess.obj
 0001:00001b10       ??$?0AEAIAEAPEAUfile_edge@@$0A@@?$pair@IPEAUfile_edge@@@std@@QEAA@AEAIAEAPEAUfile_edge@@@Z 0000000140002b10 f i preprocess.obj
 0001:00001b60       ??$?0AEAU?$equal_to@I@std@@M@?$_Compressed_pair@U?$equal_to@I@std@@M$00@std@@QEAA@U_One_then_variadic_args_t@1@AEAU?$equal_to@I@1@$$QEAM@Z 0000000140002b60 f i preprocess.obj
 0001:00001b60       ??$?0AEAU?$equal_to@V?$basic_string@DU?$char_traits@D@std@@V?$allocator@D@2@@std@@@std@@M@?$_Compressed_pair@U?$equal_to@V?$basic_string@DU?$char_traits@D@std@@V?$allocator@D@2@@std@@@std@@M$00@std@@QEAA@U_One_then_variadic_args_t@1@AEAU?$equal_to@V?$basic_string@DU?$char_traits@D@std@@V?$allocator@D@2@@std@@@1@$$QEAM@Z 0000000140002b60 f i preprocess.obj
 0001:00001bb0       ??$?0AEAU?$hash@I@std@@U_One_then_variadic_args_t@1@AEAU?$equal_to@I@1@M@?$_Compressed_pair@U?$hash@I@std@@V?$_Compressed_pair@U?$equal_to@I@std@@M$00@2@$00@std@@QEAA@U_One_then_variadic_args_t@1@AEAU?$hash@I@1@$$QEAU21@AEAU?$equal_to@I@1@$$QEAM@Z 0000000140002bb0 f i preprocess.obj
 0001:00001bb0       ??$?0AEAU?$hash@V?$basic_string@DU?$char_traits@D@std@@V?$allocator@D@2@@std@@@std@@U_One_then_variadic_args_t@1@AEAU?$equal_to@V?$basic_string@DU?$char_traits@D@std@@V?$allocator@D@2@@std@@@1@M@?$_Compressed_pair@U?$hash@V?$basic_string@DU?$char_traits@D@std@@V?$allocator@D@2@@std@@@std@@V?$_Compressed_pair@U?$equal_to@V?$basic_string@DU?$char_traits@D@std@@V?$allocator@D@2@@std@@@std@@M$00@2@$00@std@@QEAA@U_One_then_variadic_args_t@1@AEAU?$hash@V?$basic_string@DU?$char_traits@D@std@@V?$allocator@D@2@@std@@@1@$$QEAU21@AEAU?$equal_to@V?$basic_string@DU?$char_traits@D@std@@V?$allocator@D@2@@std@@@1@$$QEAM@Z 0000000140002bb0 f i preprocess.obj
 0001:00001c20       ??$?0AEAV?$basic_string@DU?$char_traits@D@std@@V?$allocator@D@2@@std@@AEAI$0A@@?$pair@V?$basic_string@DU?$char_traits@D@std@@V?$allocator@D@2@@std@@I@std@@QEAA@AEAV?$basic_string@DU?$char_traits@D@std@@V?$allocator@D@2@@1@AEAI@Z 0000000140002c20 f i preprocess.obj
 0001:00001c20       ??$?0AEAV?$basic_string@DU?$char_traits@D@std@@V?$allocator@D@2@@std@@I$0A@@?$pair@V?$basic_string@DU?$char_traits@D@std@@V?$allocator@D@2@@std@@I@std@@QEAA@AEAV?$basic_string@DU?$char_traits@D@std@@V?$allocator@D@2@@1@$$QEAI@Z 0000000140002c20 f i preprocess.obj
 0001:00001c70       ??$?0AEBV?$allocator@U?$pair@$$CBIPEAUedge@@@std@@@std@@$$V@?$_Compressed_pair@V?$allocator@U?$_List_node@U?$pair@$$CBIPEAUedge@@@std@@PEAX@std@@@std@@V?$_List_val@U?$_List_simple_types@U?$pair@$$CBIPEAUedge@@@std@@@std@@@2@$00@std@@QEAA@U_One_then_variadic_args_t@1@AEBV?$allocator@U?$pair@$$CBIPEAUedge@@@std@@@1@@Z 0000000140002c70 f i preprocess.obj
 0001:00001c70       ??$?0AEBV?$allocator@U?$pair@$$CBV?$basic_string@DU?$char_traits@D@std@@V?$allocator@D@2@@std@@I@std@@@std@@$$V@?$_Compressed_pair@V?$allocator@U?$_List_node@U?$pair@$$CBV?$basic_string@DU?$char_traits@D@std@@V?$allocator@D@2@@std@@I@std@@PEAX@std@@@std@@V?$_List_val@U?$_List_simple_types@U?$pair@$$CBV?$basic_string@DU?$char_traits@D@std@@V?$allocator@D@2@@std@@I@std@@@std@@@2@$00@std@@QEAA@U_One_then_variadic_args_t@1@AEBV?$allocator@U?$pair@$$CBV?$basic_string@DU?$char_traits@D@std@@V?$allocator@D@2@@std@@I@std@@@1@@Z 0000000140002c70 f i preprocess.obj
 0001:00001c70       ??$?0AEBV?$allocator@U?$pair@$$CBIPEAUfile_edge@@@std@@@std@@$$V@?$_Compressed_pair@V?$allocator@U?$_List_node@U?$pair@$$CBIPEAUfile_edge@@@std@@PEAX@std@@@std@@V?$_List_val@U?$_List_simple_types@U?$pair@$$CBIPEAUfile_edge@@@std@@@std@@@2@$00@std@@QEAA@U_One_then_variadic_args_t@1@AEBV?$allocator@U?$pair@$$CBIPEAUfile_edge@@@std@@@1@@Z 0000000140002c70 f i preprocess.obj
 0001:00001cb0       ??$?0AEBV?$allocator@U?$pair@$$CBIPEAUfile_edge@@@std@@@std@@X@?$_List_alloc@U?$_List_base_types@U?$pair@$$CBIPEAUfile_edge@@@std@@V?$allocator@U?$pair@$$CBIPEAUfile_edge@@@std@@@2@@std@@@std@@QEAA@AEBV?$allocator@U?$pair@$$CBIPEAUfile_edge@@@std@@@1@@Z 0000000140002cb0 f i preprocess.obj
 0001:00001cb0       ??$?0AEBV?$allocator@U?$pair@$$CBIPEAUedge@@@std@@@std@@X@?$_List_alloc@U?$_List_base_types@U?$pair@$$CBIPEAUedge@@@std@@V?$allocator@U?$pair@$$CBIPEAUedge@@@std@@@2@@std@@@std@@QEAA@AEBV?$allocator@U?$pair@$$CBIPEAUedge@@@std@@@1@@Z 0000000140002cb0 f i preprocess.obj
 0001:00001d20       ??$?0AEBV?$allocator@U?$pair@$$CBIPEAUedge@@@std@@@std@@X@?$_List_buy@U?$pair@$$CBIPEAUedge@@@std@@V?$allocator@U?$pair@$$CBIPEAUedge@@@std@@@2@@std@@QEAA@AEBV?$allocator@U?$pair@$$CBIPEAUedge@@@std@@@1@@Z 0000000140002d20 f i preprocess.obj
 0001:00001d20       ??$?0AEBV?$allocator@U?$pair@$$CBIPEAUfile_edge@@@std@@@std@@X@?$_List_buy@U?$pair@$$CBIPEAUfile_edge@@@std@@V?$allocator@U?$pair@$$CBIPEAUfile_edge@@@std@@@2@@std@@QEAA@AEBV?$allocator@U?$pair@$$CBIPEAUfile_edge@@@std@@@1@@Z 0000000140002d20 f i preprocess.obj
 0001:00001d50       ??$?0AEBV?$allocator@U?$pair@$$CBV?$basic_string@DU?$char_traits@D@std@@V?$allocator@D@2@@std@@I@std@@@std@@X@?$_List_alloc@U?$_List_base_types@U?$pair@$$CBV?$basic_string@DU?$char_traits@D@std@@V?$allocator@D@2@@std@@I@std@@V?$allocator@U?$pair@$$CBV?$basic_string@DU?$char_traits@D@std@@V?$allocator@D@2@@std@@I@std@@@2@@std@@@std@@QEAA@AEBV?$allocator@U?$pair@$$CBV?$basic_string@DU?$char_traits@D@std@@V?$allocator@D@2@@std@@I@std@@@1@@Z 0000000140002d50 f i preprocess.obj
 0001:00001dc0       ??$?0AEBV?$allocator@U?$pair@$$CBV?$basic_string@DU?$char_traits@D@std@@V?$allocator@D@2@@std@@I@std@@@std@@X@?$_List_buy@U?$pair@$$CBV?$basic_string@DU?$char_traits@D@std@@V?$allocator@D@2@@std@@I@std@@V?$allocator@U?$pair@$$CBV?$basic_string@DU?$char_traits@D@std@@V?$allocator@D@2@@std@@I@std@@@2@@std@@QEAA@AEBV?$allocator@U?$pair@$$CBV?$basic_string@DU?$char_traits@D@std@@V?$allocator@D@2@@std@@I@std@@@1@@Z 0000000140002dc0 f i preprocess.obj
 0001:00001df0       ??$?0AEBV?$allocator@V?$_List_unchecked_iterator@V?$_List_val@U?$_List_simple_types@U?$pair@$$CBV?$basic_string@DU?$char_traits@D@std@@V?$allocator@D@2@@std@@I@std@@@std@@@std@@@std@@@std@@$$V@?$_Compressed_pair@V?$allocator@V?$_List_unchecked_iterator@V?$_List_val@U?$_List_simple_types@U?$pair@$$CBV?$basic_string@DU?$char_traits@D@std@@V?$allocator@D@2@@std@@I@std@@@std@@@std@@@std@@@std@@V?$_Vector_val@U?$_Simple_types@V?$_List_unchecked_iterator@V?$_List_val@U?$_List_simple_types@U?$pair@$$CBV?$basic_string@DU?$char_traits@D@std@@V?$allocator@D@2@@std@@I@std@@@std@@@std@@@std@@@std@@@2@$00@std@@QEAA@U_One_then_variadic_args_t@1@AEBV?$allocator@V?$_List_unchecked_iterator@V?$_List_val@U?$_List_simple_types@U?$pair@$$CBV?$basic_string@DU?$char_traits@D@std@@V?$allocator@D@2@@std@@I@std@@@std@@@std@@@std@@@1@@Z 0000000140002df0 f i preprocess.obj
 0001:00001df0       ??$?0AEBV?$allocator@V?$_List_unchecked_iterator@V?$_List_val@U?$_List_simple_types@U?$pair@$$CBIPEAUfile_edge@@@std@@@std@@@std@@@std@@@std@@$$V@?$_Compressed_pair@V?$allocator@V?$_List_unchecked_iterator@V?$_List_val@U?$_List_simple_types@U?$pair@$$CBIPEAUfile_edge@@@std@@@std@@@std@@@std@@@std@@V?$_Vector_val@U?$_Simple_types@V?$_List_unchecked_iterator@V?$_List_val@U?$_List_simple_types@U?$pair@$$CBIPEAUfile_edge@@@std@@@std@@@std@@@std@@@std@@@2@$00@std@@QEAA@U_One_then_variadic_args_t@1@AEBV?$allocator@V?$_List_unchecked_iterator@V?$_List_val@U?$_List_simple_types@U?$pair@$$CBIPEAUfile_edge@@@std@@@std@@@std@@@std@@@1@@Z 0000000140002df0 f i preprocess.obj
 0001:00001df0       ??$?0AEBV?$allocator@V?$_List_unchecked_iterator@V?$_List_val@U?$_List_simple_types@U?$pair@$$CBIPEAUedge@@@std@@@std@@@std@@@std@@@std@@$$V@?$_Compressed_pair@V?$allocator@V?$_List_unchecked_iterator@V?$_List_val@U?$_List_simple_types@U?$pair@$$CBIPEAUedge@@@std@@@std@@@std@@@std@@@std@@V?$_Vector_val@U?$_Simple_types@V?$_List_unchecked_iterator@V?$_List_val@U?$_List_simple_types@U?$pair@$$CBIPEAUedge@@@std@@@std@@@std@@@std@@@std@@@2@$00@std@@QEAA@U_One_then_variadic_args_t@1@AEBV?$allocator@V?$_List_unchecked_iterator@V?$_List_val@U?$_List_simple_types@U?$pair@$$CBIPEAUedge@@@std@@@std@@@std@@@std@@@1@@Z 0000000140002df0 f i preprocess.obj
 0001:00001e30       ??$?0AEBV?$allocator@V?$_List_unchecked_iterator@V?$_List_val@U?$_List_simple_types@U?$pair@$$CBV?$basic_string@DU?$char_traits@D@std@@V?$allocator@D@2@@std@@I@std@@@std@@@std@@@std@@@std@@X@?$_Vector_alloc@U?$_Vec_base_types@V?$_List_unchecked_iterator@V?$_List_val@U?$_List_simple_types@U?$pair@$$CBV?$basic_string@DU?$char_traits@D@std@@V?$allocator@D@2@@std@@I@std@@@std@@@std@@@std@@V?$allocator@V?$_List_unchecked_iterator@V?$_List_val@U?$_List_simple_types@U?$pair@$$CBV?$basic_string@DU?$char_traits@D@std@@V?$allocator@D@2@@std@@I@std@@@std@@@std@@@std@@@2@@std@@@std@@QEAA@AEBV?$allocator@V?$_List_unchecked_iterator@V?$_List_val@U?$_List_simple_types@U?$pair@$$CBV?$basic_string@DU?$char_traits@D@std@@V?$allocator@D@2@@std@@I@std@@@std@@@std@@@std@@@1@@Z 0000000140002e30 f i preprocess.obj
 0001:00001e30       ??$?0AEBV?$allocator@V?$_List_unchecked_iterator@V?$_List_val@U?$_List_simple_types@U?$pair@$$CBIPEAUfile_edge@@@std@@@std@@@std@@@std@@@std@@X@?$_Vector_alloc@U?$_Vec_base_types@V?$_List_unchecked_iterator@V?$_List_val@U?$_List_simple_types@U?$pair@$$CBIPEAUfile_edge@@@std@@@std@@@std@@@std@@V?$allocator@V?$_List_unchecked_iterator@V?$_List_val@U?$_List_simple_types@U?$pair@$$CBIPEAUfile_edge@@@std@@@std@@@std@@@std@@@2@@std@@@std@@QEAA@AEBV?$allocator@V?$_List_unchecked_iterator@V?$_List_val@U?$_List_simple_types@U?$pair@$$CBIPEAUfile_edge@@@std@@@std@@@std@@@std@@@1@@Z 0000000140002e30 f i preprocess.obj
 0001:00001e30       ??$?0AEBV?$allocator@V?$_List_unchecked_iterator@V?$_List_val@U?$_List_simple_types@U?$pair@$$CBIPEAUedge@@@std@@@std@@@std@@@std@@@std@@X@?$_Vector_alloc@U?$_Vec_base_types@V?$_List_unchecked_iterator@V?$_List_val@U?$_List_simple_types@U?$pair@$$CBIPEAUedge@@@std@@@std@@@std@@@std@@V?$allocator@V?$_List_unchecked_iterator@V?$_List_val@U?$_List_simple_types@U?$pair@$$CBIPEAUedge@@@std@@@std@@@std@@@std@@@2@@std@@@std@@QEAA@AEBV?$allocator@V?$_List_unchecked_iterator@V?$_List_val@U?$_List_simple_types@U?$pair@$$CBIPEAUedge@@@std@@@std@@@std@@@std@@@1@@Z 0000000140002e30 f i preprocess.obj
 0001:00001e70       ??$_Get_unwrapped_n@V?$_List_unchecked_iterator@V?$_List_val@U?$_List_simple_types@U?$pair@$$CBV?$basic_string@DU?$char_traits@D@std@@V?$allocator@D@2@@std@@I@std@@@std@@@std@@@std@@_J$0A@@std@@YAPEAV?$_List_unchecked_iterator@V?$_List_val@U?$_List_simple_types@U?$pair@$$CBV?$basic_string@DU?$char_traits@D@std@@V?$allocator@D@2@@std@@I@std@@@std@@@std@@@0@QEAV10@_J@Z 0000000140002e70 f i preprocess.obj
 0001:00001e70       ??$?0D@?$allocator@U_Container_proxy@std@@@std@@QEAA@AEBV?$allocator@D@1@@Z 0000000140002e70 f i preprocess.obj
 0001:00001e70       ??$?0U?$pair@$$CBIPEAUfile_edge@@@std@@@?$allocator@U?$_List_node@U?$pair@$$CBIPEAUfile_edge@@@std@@PEAX@std@@@std@@QEAA@AEBV?$allocator@U?$pair@$$CBIPEAUfile_edge@@@std@@@1@@Z 0000000140002e70 f i preprocess.obj
 0001:00001e70       ??$?0U?$_List_node@U?$pair@$$CBIPEAUfile_edge@@@std@@PEAX@std@@@?$allocator@U_Container_proxy@std@@@std@@QEAA@AEBV?$allocator@U?$_List_node@U?$pair@$$CBIPEAUfile_edge@@@std@@PEAX@std@@@1@@Z 0000000140002e70 f i preprocess.obj
 0001:00001e70       ??$?0U?$pair@$$CBV?$basic_string@DU?$char_traits@D@std@@V?$allocator@D@2@@std@@I@std@@@?$allocator@V?$_List_unchecked_iterator@V?$_List_val@U?$_List_simple_types@U?$pair@$$CBV?$basic_string@DU?$char_traits@D@std@@V?$allocator@D@2@@std@@I@std@@@std@@@std@@@std@@@std@@QEAA@AEBV?$allocator@U?$pair@$$CBV?$basic_string@DU?$char_traits@D@std@@V?$allocator@D@2@@std@@I@std@@@1@@Z 0000000140002e70 f i preprocess.obj
 0001:00001e70       ??$?0U?$pair@$$CBV?$basic_string@DU?$char_traits@D@std@@V?$allocator@D@2@@std@@I@std@@@?$allocator@U?$_List_node@U?$pair@$$CBV?$basic_string@DU?$char_traits@D@std@@V?$allocator@D@2@@std@@I@std@@PEAX@std@@@std@@QEAA@AEBV?$allocator@U?$pair@$$CBV?$basic_string@DU?$char_traits@D@std@@V?$allocator@D@2@@std@@I@std@@@1@@Z 0000000140002e70 f i preprocess.obj
 0001:00001e70       ??$?0U?$pair@$$CBIPEAUedge@@@std@@@?$allocator@V?$_List_unchecked_iterator@V?$_List_val@U?$_List_simple_types@U?$pair@$$CBIPEAUedge@@@std@@@std@@@std@@@std@@@std@@QEAA@AEBV?$allocator@U?$pair@$$CBIPEAUedge@@@std@@@1@@Z 0000000140002e70 f i preprocess.obj
 0001:00001e70       ??$?0V?$_List_unchecked_iterator@V?$_List_val@U?$_List_simple_types@U?$pair@$$CBIPEAUfile_edge@@@std@@@std@@@std@@@std@@@?$allocator@U_Container_proxy@std@@@std@@QEAA@AEBV?$allocator@V?$_List_unchecked_iterator@V?$_List_val@U?$_List_simple_types@U?$pair@$$CBIPEAUfile_edge@@@std@@@std@@@std@@@std@@@1@@Z 0000000140002e70 f i preprocess.obj
 0001:00001e70       ??$_Get_unwrapped_n@V?$_List_unchecked_iterator@V?$_List_val@U?$_List_simple_types@U?$pair@$$CBIPEAUfile_edge@@@std@@@std@@@std@@@std@@_J$0A@@std@@YAPEAV?$_List_unchecked_iterator@V?$_List_val@U?$_List_simple_types@U?$pair@$$CBIPEAUfile_edge@@@std@@@std@@@std@@@0@QEAV10@_J@Z 0000000140002e70 f i preprocess.obj
 0001:00001e70       ??$?0U?$_List_node@U?$pair@$$CBIPEAUedge@@@std@@PEAX@std@@@?$allocator@U_Container_proxy@std@@@std@@QEAA@AEBV?$allocator@U?$_List_node@U?$pair@$$CBIPEAUedge@@@std@@PEAX@std@@@1@@Z 0000000140002e70 f i preprocess.obj
 0001:00001e70       ??$?0U?$pair@$$CBIPEAUedge@@@std@@@?$allocator@U?$_List_node@U?$pair@$$CBIPEAUedge@@@std@@PEAX@std@@@std@@QEAA@AEBV?$allocator@U?$pair@$$CBIPEAUedge@@@std@@@1@@Z 0000000140002e70 f i preprocess.obj
 0001:00001e70       ??$_Get_unwrapped_n@V?$_List_unchecked_iterator@V?$_List_val@U?$_List_simple_types@U?$pair@$$CBIPEAUedge@@@std@@@std@@@std@@@std@@_J$0A@@std@@YAPEAV?$_List_unchecked_iterator@V?$_List_val@U?$_List_simple_types@U?$pair@$$CBIPEAUedge@@@std@@@std@@@std@@@0@QEAV10@_J@Z 0000000140002e70 f i preprocess.obj
 0001:00001e70       ??$?0U?$_List_node@U?$pair@$$CBV?$basic_string@DU?$char_traits@D@std@@V?$allocator@D@2@@std@@I@std@@PEAX@std@@@?$allocator@U_Container_proxy@std@@@std@@QEAA@AEBV?$allocator@U?$_List_node@U?$pair@$$CBV?$basic_string@DU?$char_traits@D@std@@V?$allocator@D@2@@std@@I@std@@PEAX@std@@@1@@Z 0000000140002e70 f i preprocess.obj
 0001:00001e70       ??$?0V?$_List_unchecked_iterator@V?$_List_val@U?$_List_simple_types@U?$pair@$$CBV?$basic_string@DU?$char_traits@D@std@@V?$allocator@D@2@@std@@I@std@@@std@@@std@@@std@@@?$allocator@U_Container_proxy@std@@@std@@QEAA@AEBV?$allocator@V?$_List_unchecked_iterator@V?$_List_val@U?$_List_simple_types@U?$pair@$$CBV?$basic_string@DU?$char_traits@D@std@@V?$allocator@D@2@@std@@I@std@@@std@@@std@@@std@@@1@@Z 0000000140002e70 f i preprocess.obj
 0001:00001e70       ??$?0V?$_List_unchecked_iterator@V?$_List_val@U?$_List_simple_types@U?$pair@$$CBIPEAUedge@@@std@@@std@@@std@@@std@@@?$allocator@U_Container_proxy@std@@@std@@QEAA@AEBV?$allocator@V?$_List_unchecked_iterator@V?$_List_val@U?$_List_simple_types@U?$pair@$$CBIPEAUedge@@@std@@@std@@@std@@@std@@@1@@Z 0000000140002e70 f i preprocess.obj
 0001:00001e70       ??$?0U?$integral_constant@_N$00@std@@@_Unused_parameter@std@@QEAA@$$QEAU?$integral_constant@_N$00@1@@Z 0000000140002e70 f i preprocess.obj
 0001:00001e70       ??$?0U?$pair@$$CBIPEAUfile_edge@@@std@@@?$allocator@V?$_List_unchecked_iterator@V?$_List_val@U?$_List_simple_types@U?$pair@$$CBIPEAUfile_edge@@@std@@@std@@@std@@@std@@@std@@QEAA@AEBV?$allocator@U?$pair@$$CBIPEAUfile_edge@@@std@@@1@@Z 0000000140002e70 f i preprocess.obj
 0001:00001e70       ?select_on_container_copy_construction@?$_Default_allocator_traits@V?$allocator@D@std@@@std@@SA?AV?$allocator@D@2@AEBV32@@Z 0000000140002e70 f i preprocess.obj
 0001:00001e80       ??$?0IPEAUfile_edge@@$0A@@?$pair@$$CBIPEAUfile_edge@@@std@@QEAA@$$QEAU?$pair@IPEAUfile_edge@@@1@@Z 0000000140002e80 f i preprocess.obj
 0001:00001e80       ??$?0IPEAUedge@@$0A@@?$pair@$$CBIPEAUedge@@@std@@QEAA@$$QEAU?$pair@IPEAUedge@@@1@@Z 0000000140002e80 f i preprocess.obj
 0001:00001ed0       ??$?0V?$_List_iterator@V?$_List_val@U?$_List_simple_types@U?$pair@$$CBIPEAUfile_edge@@@std@@@std@@@std@@@std@@_N$0A@@?$pair@V?$_List_iterator@V?$_List_val@U?$_List_simple_types@U?$pair@$$CBIPEAUfile_edge@@@std@@@std@@@std@@@std@@_N@std@@QEAA@$$QEAV?$_List_iterator@V?$_List_val@U?$_List_simple_types@U?$pair@$$CBIPEAUfile_edge@@@std@@@std@@@std@@@1@$$QEA_N@Z 0000000140002ed0 f i preprocess.obj
 0001:00001ed0       ??$?0V?$_List_iterator@V?$_List_val@U?$_List_simple_types@U?$pair@$$CBIPEAUedge@@@std@@@std@@@std@@@std@@_N$0A@@?$pair@V?$_List_iterator@V?$_List_val@U?$_List_simple_types@U?$pair@$$CBIPEAUedge@@@std@@@std@@@std@@@std@@_N@std@@QEAA@$$QEAV?$_List_iterator@V?$_List_val@U?$_List_simple_types@U?$pair@$$CBIPEAUedge@@@std@@@std@@@std@@@1@$$QEA_N@Z 0000000140002ed0 f i preprocess.obj
 0001:00001ed0       ??$?0V?$_List_iterator@V?$_List_val@U?$_List_simple_types@U?$pair@$$CBV?$basic_string@DU?$char_traits@D@std@@V?$allocator@D@2@@std@@I@std@@@std@@@std@@@std@@_N$0A@@?$pair@V?$_List_iterator@V?$_List_val@U?$_List_simple_types@U?$pair@$$CBV?$basic_string@DU?$char_traits@D@std@@V?$allocator@D@2@@std@@I@std@@@std@@@std@@@std@@_N@std@@QEAA@$$QEAV?$_List_iterator@V?$_List_val@U?$_List_simple_types@U?$pair@$$CBV?$basic_string@DU?$char_traits@D@std@@V?$allocator@D@2@@std@@I@std@@@std@@@std@@@1@$$QEA_N@Z 0000000140002ed0 f i preprocess.obj
 0001:00001f20       ??$?0V?$allocator@D@std@@$$V@?$_Compressed_pair@V?$allocator@D@std@@V?$_String_val@U?$_Simple_types@D@std@@@2@$00@std@@QEAA@U_One_then_variadic_args_t@1@$$QEAV?$allocator@D@1@@Z 0000000140002f20 f i preprocess.obj
 0001:00001f60       ??$?0V?$allocator@D@std@@X@?$_String_alloc@U?$_String_base_types@DV?$allocator@D@std@@@std@@@std@@QEAA@$$QEAV?$allocator@D@1@@Z 0000000140002f60 f i preprocess.obj
 0001:00001fb0       ??$?0V?$basic_string@DU?$char_traits@D@std@@V?$allocator@D@2@@std@@I$0A@@?$pair@$$CBV?$basic_string@DU?$char_traits@D@std@@V?$allocator@D@2@@std@@I@std@@QEAA@$$QEAU?$pair@V?$basic_string@DU?$char_traits@D@std@@V?$allocator@D@2@@std@@I@1@@Z 0000000140002fb0 f i preprocess.obj
 0001:00002000       ??$?8DU?$char_traits@D@std@@V?$allocator@D@1@@std@@YA_NAEBV?$basic_string@DU?$char_traits@D@std@@V?$allocator@D@2@@0@0@Z 0000000140003000 f i preprocess.obj
 0001:00002030       ??$?9V?$_List_unchecked_iterator@V?$_List_val@U?$_List_simple_types@U?$pair@$$CBV?$basic_string@DU?$char_traits@D@std@@V?$allocator@D@2@@std@@I@std@@@std@@@std@@@std@@V01@@std@@YA_NAEBV?$allocator@V?$_List_unchecked_iterator@V?$_List_val@U?$_List_simple_types@U?$pair@$$CBV?$basic_string@DU?$char_traits@D@std@@V?$allocator@D@2@@std@@I@std@@@std@@@std@@@std@@@0@0@Z 0000000140003030 f i preprocess.obj
 0001:00002030       ??$?9U?$_List_node@U?$pair@$$CBV?$basic_string@DU?$char_traits@D@std@@V?$allocator@D@2@@std@@I@std@@PEAX@std@@U01@@std@@YA_NAEBV?$allocator@U?$_List_node@U?$pair@$$CBV?$basic_string@DU?$char_traits@D@std@@V?$allocator@D@2@@std@@I@std@@PEAX@std@@@0@0@Z 0000000140003030 f i preprocess.obj
 0001:00002040       ??$_Allocate@$0BA@U_Default_allocate_traits@std@@$0A@@std@@YAPEAX_K@Z 0000000140003040 f i preprocess.obj
 0001:00002080       ??$_Allocate_manually_vector_aligned@U_Default_allocate_traits@std@@@std@@YAPEAX_K@Z 0000000140003080 f i preprocess.obj
 0001:00002190       ??$_Buy_if_not_node@AEAU?$pair@$$CBIPEAUfile_edge@@@std@@@?$_Hash@V?$_Umap_traits@IPEAUfile_edge@@V?$_Uhash_compare@IU?$hash@I@std@@U?$equal_to@I@2@@std@@V?$allocator@U?$pair@$$CBIPEAUfile_edge@@@std@@@3@$0A@@std@@@std@@IEAA?AV?$_List_unchecked_iterator@V?$_List_val@U?$_List_simple_types@U?$pair@$$CBIPEAUfile_edge@@@std@@@std@@@std@@@1@AEAU?$pair@$$CBIPEAUfile_edge@@@1@V21@@Z 0000000140003190 f i preprocess.obj
 0001:00002190       ??$_Buy_if_not_node@AEAU?$pair@$$CBV?$basic_string@DU?$char_traits@D@std@@V?$allocator@D@2@@std@@I@std@@@?$_Hash@V?$_Umap_traits@V?$basic_string@DU?$char_traits@D@std@@V?$allocator@D@2@@std@@IV?$_Uhash_compare@V?$basic_string@DU?$char_traits@D@std@@V?$allocator@D@2@@std@@U?$hash@V?$basic_string@DU?$char_traits@D@std@@V?$allocator@D@2@@std@@@2@U?$equal_to@V?$basic_string@DU?$char_traits@D@std@@V?$allocator@D@2@@std@@@2@@2@V?$allocator@U?$pair@$$CBV?$basic_string@DU?$char_traits@D@std@@V?$allocator@D@2@@std@@I@std@@@2@$0A@@std@@@std@@IEAA?AV?$_List_unchecked_iterator@V?$_List_val@U?$_List_simple_types@U?$pair@$$CBV?$basic_string@DU?$char_traits@D@std@@V?$allocator@D@2@@std@@I@std@@@std@@@std@@@1@AEAU?$pair@$$CBV?$basic_string@DU?$char_traits@D@std@@V?$allocator@D@2@@std@@I@1@V21@@Z 0000000140003190 f i preprocess.obj
 0001:00002190       ??$_Buy_if_not_node@AEAU?$pair@$$CBIPEAUedge@@@std@@@?$_Hash@V?$_Umap_traits@IPEAUedge@@V?$_Uhash_compare@IU?$hash@I@std@@U?$equal_to@I@2@@std@@V?$allocator@U?$pair@$$CBIPEAUedge@@@std@@@3@$0A@@std@@@std@@IEAA?AV?$_List_unchecked_iterator@V?$_List_val@U?$_List_simple_types@U?$pair@$$CBIPEAUedge@@@std@@@std@@@std@@@1@AEAU?$pair@$$CBIPEAUedge@@@1@V21@@Z 0000000140003190 f i preprocess.obj
 0001:000021c0       ??$_Buynode@U?$pair@IPEAUedge@@@std@@@?$_List_buy@U?$pair@$$CBIPEAUedge@@@std@@V?$allocator@U?$pair@$$CBIPEAUedge@@@std@@@2@@std@@QEAAPEAU?$_List_node@U?$pair@$$CBIPEAUedge@@@std@@PEAX@1@PEAU21@0$$QEAU?$pair@IPEAUedge@@@1@@Z 00000001400031c0 f i preprocess.obj
 0001:000021c0       ??$_Buynode@U?$pair@IPEAUfile_edge@@@std@@@?$_List_buy@U?$pair@$$CBIPEAUfile_edge@@@std@@V?$allocator@U?$pair@$$CBIPEAUfile_edge@@@std@@@2@@std@@QEAAPEAU?$_List_node@U?$pair@$$CBIPEAUfile_edge@@@std@@PEAX@1@PEAU21@0$$QEAU?$pair@IPEAUfile_edge@@@1@@Z 00000001400031c0 f i preprocess.obj
 0001:00002250       ??$_Buynode@U?$pair@V?$basic_string@DU?$char_traits@D@std@@V?$allocator@D@2@@std@@I@std@@@?$_List_buy@U?$pair@$$CBV?$basic_string@DU?$char_traits@D@std@@V?$allocator@D@2@@std@@I@std@@V?$allocator@U?$pair@$$CBV?$basic_string@DU?$char_traits@D@std@@V?$allocator@D@2@@std@@I@std@@@2@@std@@QEAAPEAU?$_List_node@U?$pair@$$CBV?$basic_string@DU?$char_traits@D@std@@V?$allocator@D@2@@std@@I@std@@PEAX@1@PEAU21@0$$QEAU?$pair@V?$basic_string@DU?$char_traits@D@std@@V?$allocator@D@2@@std@@I@1@@Z 0000000140003250 f i preprocess.obj
 0001:000022e0       ??$_Deallocate@$0BA@$0A@@std@@YAXPEAX_K@Z 00000001400032e0 f i preprocess.obj
 0001:00002320       ??$_Deallocate_plain@V?$allocator@U_Container_proxy@std@@@std@@$0A@@std@@YAXAEAV?$allocator@U_Container_proxy@std@@@0@QEAU_Container_proxy@0@@Z 0000000140003320 f i preprocess.obj
 0001:00002350       ??$_Destroy_range1@V?$allocator@V?$_List_unchecked_iterator@V?$_List_val@U?$_List_simple_types@U?$pair@$$CBIPEAUedge@@@std@@@std@@@std@@@std@@@std@@@std@@YAXPEAV?$_List_unchecked_iterator@V?$_List_val@U?$_List_simple_types@U?$pair@$$CBIPEAUedge@@@std@@@std@@@std@@@0@0AEAV?$allocator@V?$_List_unchecked_iterator@V?$_List_val@U?$_List_simple_types@U?$pair@$$CBIPEAUedge@@@std@@@std@@@std@@@std@@@0@U?$integral_constant@_N$00@0@@Z 0000000140003350 f i preprocess.obj
 0001:00002350       ??$_Destroy_range1@V?$allocator@V?$_List_unchecked_iterator@V?$_List_val@U?$_List_simple_types@U?$pair@$$CBV?$basic_string@DU?$char_traits@D@std@@V?$allocator@D@2@@std@@I@std@@@std@@@std@@@std@@@std@@@std@@YAXPEAV?$_List_unchecked_iterator@V?$_List_val@U?$_List_simple_types@U?$pair@$$CBV?$basic_string@DU?$char_traits@D@std@@V?$allocator@D@2@@std@@I@std@@@std@@@std@@@0@0AEAV?$allocator@V?$_List_unchecked_iterator@V?$_List_val@U?$_List_simple_types@U?$pair@$$CBV?$basic_string@DU?$char_traits@D@std@@V?$allocator@D@2@@std@@I@std@@@std@@@std@@@std@@@0@U?$integral_constant@_N$00@0@@Z 0000000140003350 f i preprocess.obj
 0001:00002350       ??$_Destroy_range1@V?$allocator@V?$_List_unchecked_iterator@V?$_List_val@U?$_List_simple_types@U?$pair@$$CBIPEAUfile_edge@@@std@@@std@@@std@@@std@@@std@@@std@@YAXPEAV?$_List_unchecked_iterator@V?$_List_val@U?$_List_simple_types@U?$pair@$$CBIPEAUfile_edge@@@std@@@std@@@std@@@0@0AEAV?$allocator@V?$_List_unchecked_iterator@V?$_List_val@U?$_List_simple_types@U?$pair@$$CBIPEAUfile_edge@@@std@@@std@@@std@@@std@@@0@U?$integral_constant@_N$00@0@@Z 0000000140003350 f i preprocess.obj
 0001:00002370       ??$_Destroy_range@V?$allocator@V?$_List_unchecked_iterator@V?$_List_val@U?$_List_simple_types@U?$pair@$$CBIPEAUedge@@@std@@@std@@@std@@@std@@@std@@@std@@YAXPEAV?$_List_unchecked_iterator@V?$_List_val@U?$_List_simple_types@U?$pair@$$CBIPEAUedge@@@std@@@std@@@std@@@0@0AEAV?$allocator@V?$_List_unchecked_iterator@V?$_List_val@U?$_List_simple_types@U?$pair@$$CBIPEAUedge@@@std@@@std@@@std@@@std@@@0@@Z 0000000140003370 f i preprocess.obj
 0001:00002370       ??$_Destroy_range@V?$allocator@V?$_List_unchecked_iterator@V?$_List_val@U?$_List_simple_types@U?$pair@$$CBV?$basic_string@DU?$char_traits@D@std@@V?$allocator@D@2@@std@@I@std@@@std@@@std@@@std@@@std@@@std@@YAXPEAV?$_List_unchecked_iterator@V?$_List_val@U?$_List_simple_types@U?$pair@$$CBV?$basic_string@DU?$char_traits@D@std@@V?$allocator@D@2@@std@@I@std@@@std@@@std@@@0@0AEAV?$allocator@V?$_List_unchecked_iterator@V?$_List_val@U?$_List_simple_types@U?$pair@$$CBV?$basic_string@DU?$char_traits@D@std@@V?$allocator@D@2@@std@@I@std@@@std@@@std@@@std@@@0@@Z 0000000140003370 f i preprocess.obj
 0001:00002370       ??$_Destroy_range@V?$allocator@V?$_List_unchecked_iterator@V?$_List_val@U?$_List_simple_types@U?$pair@$$CBIPEAUfile_edge@@@std@@@std@@@std@@@std@@@std@@@std@@YAXPEAV?$_List_unchecked_iterator@V?$_List_val@U?$_List_simple_types@U?$pair@$$CBIPEAUfile_edge@@@std@@@std@@@std@@@0@0AEAV?$allocator@V?$_List_unchecked_iterator@V?$_List_val@U?$_List_simple_types@U?$pair@$$CBIPEAUfile_edge@@@std@@@std@@@std@@@std@@@0@@Z 0000000140003370 f i preprocess.obj
 0001:000023c0       ??$_Emplace_back@AEBV?$_List_unchecked_iterator@V?$_List_val@U?$_List_simple_types@U?$pair@$$CBIPEAUfile_edge@@@std@@@std@@@std@@@std@@@?$_Uninitialized_backout_al@PEAV?$_List_unchecked_iterator@V?$_List_val@U?$_List_simple_types@U?$pair@$$CBIPEAUfile_edge@@@std@@@std@@@std@@@std@@V?$allocator@V?$_List_unchecked_iterator@V?$_List_val@U?$_List_simple_types@U?$pair@$$CBIPEAUfile_edge@@@std@@@std@@@std@@@std@@@2@@std@@QEAAXAEBV?$_List_unchecked_iterator@V?$_List_val@U?$_List_simple_types@U?$pair@$$CBIPEAUfile_edge@@@std@@@std@@@std@@@1@@Z 00000001400033c0 f i preprocess.obj
 0001:000023c0       ??$_Emplace_back@V?$_List_unchecked_iterator@V?$_List_val@U?$_List_simple_types@U?$pair@$$CBIPEAUfile_edge@@@std@@@std@@@std@@@std@@@?$_Uninitialized_backout_al@PEAV?$_List_unchecked_iterator@V?$_List_val@U?$_List_simple_types@U?$pair@$$CBIPEAUfile_edge@@@std@@@std@@@std@@@std@@V?$allocator@V?$_List_unchecked_iterator@V?$_List_val@U?$_List_simple_types@U?$pair@$$CBIPEAUfile_edge@@@std@@@std@@@std@@@std@@@2@@std@@QEAAX$$QEAV?$_List_unchecked_iterator@V?$_List_val@U?$_List_simple_types@U?$pair@$$CBIPEAUfile_edge@@@std@@@std@@@std@@@1@@Z 00000001400033c0 f i preprocess.obj
 0001:000023c0       ??$_Emplace_back@V?$_List_unchecked_iterator@V?$_List_val@U?$_List_simple_types@U?$pair@$$CBIPEAUedge@@@std@@@std@@@std@@@std@@@?$_Uninitialized_backout_al@PEAV?$_List_unchecked_iterator@V?$_List_val@U?$_List_simple_types@U?$pair@$$CBIPEAUedge@@@std@@@std@@@std@@@std@@V?$allocator@V?$_List_unchecked_iterator@V?$_List_val@U?$_List_simple_types@U?$pair@$$CBIPEAUedge@@@std@@@std@@@std@@@std@@@2@@std@@QEAAX$$QEAV?$_List_unchecked_iterator@V?$_List_val@U?$_List_simple_types@U?$pair@$$CBIPEAUedge@@@std@@@std@@@std@@@1@@Z 00000001400033c0 f i preprocess.obj
 0001:000023c0       ??$_Emplace_back@V?$_List_unchecked_iterator@V?$_List_val@U?$_List_simple_types@U?$pair@$$CBV?$basic_string@DU?$char_traits@D@std@@V?$allocator@D@2@@std@@I@std@@@std@@@std@@@std@@@?$_Uninitialized_backout_al@PEAV?$_List_unchecked_iterator@V?$_List_val@U?$_List_simple_types@U?$pair@$$CBV?$basic_string@DU?$char_traits@D@std@@V?$allocator@D@2@@std@@I@std@@@std@@@std@@@std@@V?$allocator@V?$_List_unchecked_iterator@V?$_List_val@U?$_List_simple_types@U?$pair@$$CBV?$basic_string@DU?$char_traits@D@std@@V?$allocator@D@2@@std@@I@std@@@std@@@std@@@std@@@2@@std@@QEAAX$$QEAV?$_List_unchecked_iterator@V?$_List_val@U?$_List_simple_types@U?$pair@$$CBV?$basic_string@DU?$char_traits@D@std@@V?$allocator@D@2@@std@@I@std@@@std@@@std@@@1@@Z 00000001400033c0 f i preprocess.obj
 0001:000023c0       ??$_Emplace_back@AEBV?$_List_unchecked_iterator@V?$_List_val@U?$_List_simple_types@U?$pair@$$CBIPEAUedge@@@std@@@std@@@std@@@std@@@?$_Uninitialized_backout_al@PEAV?$_List_unchecked_iterator@V?$_List_val@U?$_List_simple_types@U?$pair@$$CBIPEAUedge@@@std@@@std@@@std@@@std@@V?$allocator@V?$_List_unchecked_iterator@V?$_List_val@U?$_List_simple_types@U?$pair@$$CBIPEAUedge@@@std@@@std@@@std@@@std@@@2@@std@@QEAAXAEBV?$_List_unchecked_iterator@V?$_List_val@U?$_List_simple_types@U?$pair@$$CBIPEAUedge@@@std@@@std@@@std@@@1@@Z 00000001400033c0 f i preprocess.obj
 0001:000023c0       ??$_Emplace_back@AEBV?$_List_unchecked_iterator@V?$_List_val@U?$_List_simple_types@U?$pair@$$CBV?$basic_string@DU?$char_traits@D@std@@V?$allocator@D@2@@std@@I@std@@@std@@@std@@@std@@@?$_Uninitialized_backout_al@PEAV?$_List_unchecked_iterator@V?$_List_val@U?$_List_simple_types@U?$pair@$$CBV?$basic_string@DU?$char_traits@D@std@@V?$allocator@D@2@@std@@I@std@@@std@@@std@@@std@@V?$allocator@V?$_List_unchecked_iterator@V?$_List_val@U?$_List_simple_types@U?$pair@$$CBV?$basic_string@DU?$char_traits@D@std@@V?$allocator@D@2@@std@@I@std@@@std@@@std@@@std@@@2@@std@@QEAAXAEBV?$_List_unchecked_iterator@V?$_List_val@U?$_List_simple_types@U?$pair@$$CBV?$basic_string@DU?$char_traits@D@std@@V?$allocator@D@2@@std@@I@std@@@std@@@std@@@1@@Z 00000001400033c0 f i preprocess.obj
 0001:00002420       ??$_Fill_memset_is_safe@PEAV?$_List_unchecked_iterator@V?$_List_val@U?$_List_simple_types@U?$pair@$$CBV?$basic_string@DU?$char_traits@D@std@@V?$allocator@D@2@@std@@I@std@@@std@@@std@@@std@@V12@@std@@YA?AU?$integral_constant@_N$0A@@0@AEBQEAV?$_List_unchecked_iterator@V?$_List_val@U?$_List_simple_types@U?$pair@$$CBV?$basic_string@DU?$char_traits@D@std@@V?$allocator@D@2@@std@@I@std@@@std@@@std@@@0@AEBV20@@Z 0000000140003420 f i preprocess.obj
 0001:00002420       ??$_Fill_memset_is_safe@PEAV?$_List_unchecked_iterator@V?$_List_val@U?$_List_simple_types@U?$pair@$$CBIPEAUedge@@@std@@@std@@@std@@@std@@V12@@std@@YA?AU?$integral_constant@_N$0A@@0@AEBQEAV?$_List_unchecked_iterator@V?$_List_val@U?$_List_simple_types@U?$pair@$$CBIPEAUedge@@@std@@@std@@@std@@@0@AEBV20@@Z 0000000140003420 f i preprocess.obj
 0001:00002420       ??$_Fill_memset_is_safe@PEAV?$_List_unchecked_iterator@V?$_List_val@U?$_List_simple_types@U?$pair@$$CBIPEAUfile_edge@@@std@@@std@@@std@@@std@@V12@@std@@YA?AU?$integral_constant@_N$0A@@0@AEBQEAV?$_List_unchecked_iterator@V?$_List_val@U?$_List_simple_types@U?$pair@$$CBIPEAUfile_edge@@@std@@@std@@@std@@@0@AEBV20@@Z 0000000140003420 f i preprocess.obj
 0001:00002450       ??$_Fill_unchecked1@PEAV?$_List_unchecked_iterator@V?$_List_val@U?$_List_simple_types@U?$pair@$$CBIPEAUfile_edge@@@std@@@std@@@std@@@std@@V12@@std@@YAXPEAV?$_List_unchecked_iterator@V?$_List_val@U?$_List_simple_types@U?$pair@$$CBIPEAUfile_edge@@@std@@@std@@@std@@@0@0AEBV10@U?$integral_constant@_N$0A@@0@@Z 0000000140003450 f i preprocess.obj
 0001:00002450       ??$_Fill_unchecked1@PEAV?$_List_unchecked_iterator@V?$_List_val@U?$_List_simple_types@U?$pair@$$CBV?$basic_string@DU?$char_traits@D@std@@V?$allocator@D@2@@std@@I@std@@@std@@@std@@@std@@V12@@std@@YAXPEAV?$_List_unchecked_iterator@V?$_List_val@U?$_List_simple_types@U?$pair@$$CBV?$basic_string@DU?$char_traits@D@std@@V?$allocator@D@2@@std@@I@std@@@std@@@std@@@0@0AEBV10@U?$integral_constant@_N$0A@@0@@Z 0000000140003450 f i preprocess.obj
 0001:00002450       ??$_Fill_unchecked1@PEAV?$_List_unchecked_iterator@V?$_List_val@U?$_List_simple_types@U?$pair@$$CBIPEAUedge@@@std@@@std@@@std@@@std@@V12@@std@@YAXPEAV?$_List_unchecked_iterator@V?$_List_val@U?$_List_simple_types@U?$pair@$$CBIPEAUedge@@@std@@@std@@@std@@@0@0AEBV10@U?$integral_constant@_N$0A@@0@@Z 0000000140003450 f i preprocess.obj
 0001:000024a0       ??$_Fill_unchecked@PEAV?$_List_unchecked_iterator@V?$_List_val@U?$_List_simple_types@U?$pair@$$CBIPEAUfile_edge@@@std@@@std@@@std@@@std@@V12@@std@@YAXPEAV?$_List_unchecked_iterator@V?$_List_val@U?$_List_simple_types@U?$pair@$$CBIPEAUfile_edge@@@std@@@std@@@std@@@0@0AEBV10@@Z 00000001400034a0 f i preprocess.obj
 0001:000024a0       ??$_Fill_unchecked@PEAV?$_List_unchecked_iterator@V?$_List_val@U?$_List_simple_types@U?$pair@$$CBIPEAUedge@@@std@@@std@@@std@@@std@@V12@@std@@YAXPEAV?$_List_unchecked_iterator@V?$_List_val@U?$_List_simple_types@U?$pair@$$CBIPEAUedge@@@std@@@std@@@std@@@0@0AEBV10@@Z 00000001400034a0 f i preprocess.obj
 0001:000024a0       ??$_Fill_unchecked@PEAV?$_List_unchecked_iterator@V?$_List_val@U?$_List_simple_types@U?$pair@$$CBV?$basic_string@DU?$char_traits@D@std@@V?$allocator@D@2@@std@@I@std@@@std@@@std@@@std@@V12@@std@@YAXPEAV?$_List_unchecked_iterator@V?$_List_val@U?$_List_simple_types@U?$pair@$$CBV?$basic_string@DU?$char_traits@D@std@@V?$allocator@D@2@@std@@I@std@@@std@@@std@@@0@0AEBV10@@Z 00000001400034a0 f i preprocess.obj
 0001:000024f0       ??$_Fnv1a_append_value@I@std@@YA_K_KAEBI@Z 00000001400034f0 f i preprocess.obj
 0001:00002520       ??$_Freenode0@V?$allocator@U?$_List_node@U?$pair@$$CBIPEAUedge@@@std@@PEAX@std@@@std@@@?$_List_node@U?$pair@$$CBIPEAUedge@@@std@@PEAX@std@@SAXAEAV?$allocator@U?$_List_node@U?$pair@$$CBIPEAUedge@@@std@@PEAX@std@@@1@PEAU01@@Z 0000000140003520 f i preprocess.obj
 0001:00002520       ??$_Freenode0@V?$allocator@U?$_List_node@U?$pair@$$CBIPEAUfile_edge@@@std@@PEAX@std@@@std@@@?$_List_node@U?$pair@$$CBIPEAUfile_edge@@@std@@PEAX@std@@SAXAEAV?$allocator@U?$_List_node@U?$pair@$$CBIPEAUfile_edge@@@std@@PEAX@std@@@1@PEAU01@@Z 0000000140003520 f i preprocess.obj
 0001:00002590       ??$_Freenode0@V?$allocator@U?$_List_node@U?$pair@$$CBV?$basic_string@DU?$char_traits@D@std@@V?$allocator@D@2@@std@@I@std@@PEAX@std@@@std@@@?$_List_node@U?$pair@$$CBV?$basic_string@DU?$char_traits@D@std@@V?$allocator@D@2@@std@@I@std@@PEAX@std@@SAXAEAV?$allocator@U?$_List_node@U?$pair@$$CBV?$basic_string@DU?$char_traits@D@std@@V?$allocator@D@2@@std@@I@std@@PEAX@std@@@1@PEAU01@@Z 0000000140003590 f i preprocess.obj
 0001:00002600       ?_Get_first@?$_Compressed_pair@U?$equal_to@I@std@@M$00@std@@QEBAAEBU?$equal_to@I@2@XZ 0000000140003600 f i preprocess.obj
 0001:00002600       ??$forward@PEAUfile_edge@@@std@@YA$$QEAPEAUfile_edge@@AEAPEAU1@@Z 0000000140003600 f i preprocess.obj
 0001:00002600       ??$move@AEAPEAU?$_List_node@U?$pair@$$CBV?$basic_string@DU?$char_traits@D@std@@V?$allocator@D@2@@std@@I@std@@PEAX@std@@@std@@YA$$QEAPEAU?$_List_node@U?$pair@$$CBV?$basic_string@DU?$char_traits@D@std@@V?$allocator@D@2@@std@@I@std@@PEAX@0@AEAPEAU10@@Z 0000000140003600 f i preprocess.obj
 0001:00002600       ?_Get_second@?$_Compressed_pair@V?$allocator@D@std@@V?$_String_val@U?$_Simple_types@D@std@@@2@$00@std@@QEAAAEAV?$_String_val@U?$_Simple_types@D@std@@@2@XZ 0000000140003600 f i preprocess.obj
 0001:00002600       ?_Get_second@?$_Compressed_pair@V?$allocator@V?$_List_unchecked_iterator@V?$_List_val@U?$_List_simple_types@U?$pair@$$CBIPEAUedge@@@std@@@std@@@std@@@std@@@std@@V?$_Vector_val@U?$_Simple_types@V?$_List_unchecked_iterator@V?$_List_val@U?$_List_simple_types@U?$pair@$$CBIPEAUedge@@@std@@@std@@@std@@@std@@@std@@@2@$00@std@@QEAAAEAV?$_Vector_val@U?$_Simple_types@V?$_List_unchecked_iterator@V?$_List_val@U?$_List_simple_types@U?$pair@$$CBIPEAUedge@@@std@@@std@@@std@@@std@@@std@@@2@XZ 0000000140003600 f i preprocess.obj
 0001:00002600       ??$addressof@U?$pair@$$CBIPEAUfile_edge@@@std@@@std@@YAPEAU?$pair@$$CBIPEAUfile_edge@@@0@AEAU10@@Z 0000000140003600 f i preprocess.obj
 0001:00002600       ??$_Kfn@$$CBIPEAUedge@@@?$_Umap_traits@IPEAUedge@@V?$_Uhash_compare@IU?$hash@I@std@@U?$equal_to@I@2@@std@@V?$allocator@U?$pair@$$CBIPEAUedge@@@std@@@3@$0A@@std@@SAAEBIAEBU?$pair@$$CBIPEAUedge@@@1@@Z 0000000140003600 f i preprocess.obj
 0001:00002600       ??$forward@U_Container_proxy@std@@@std@@YA$$QEAU_Container_proxy@0@AEAU10@@Z 0000000140003600 f i preprocess.obj
 0001:00002600       ??$forward@AEAPEAUfile_edge@@@std@@YAAEAPEAUfile_edge@@AEAPEAU1@@Z 0000000140003600 f i preprocess.obj
 0001:00002600       ?_Get_second@?$_Compressed_pair@V?$allocator@D@std@@V?$_String_val@U?$_Simple_types@D@std@@@2@$00@std@@QEBAAEBV?$_String_val@U?$_Simple_types@D@std@@@2@XZ 0000000140003600 f i preprocess.obj
 0001:00002600       ?_Get_second@?$_Compressed_pair@U?$hash@V?$basic_string@DU?$char_traits@D@std@@V?$allocator@D@2@@std@@@std@@V?$_Compressed_pair@U?$equal_to@V?$basic_string@DU?$char_traits@D@std@@V?$allocator@D@2@@std@@@std@@M$00@2@$00@std@@QEAAAEAV?$_Compressed_pair@U?$equal_to@V?$basic_string@DU?$char_traits@D@std@@V?$allocator@D@2@@std@@@std@@M$00@2@XZ 0000000140003600 f i preprocess.obj
 0001:00002600       ?_Get_second@?$_Compressed_pair@V?$allocator@U?$_List_node@U?$pair@$$CBV?$basic_string@DU?$char_traits@D@std@@V?$allocator@D@2@@std@@I@std@@PEAX@std@@@std@@V?$_List_val@U?$_List_simple_types@U?$pair@$$CBV?$basic_string@DU?$char_traits@D@std@@V?$allocator@D@2@@std@@I@std@@@std@@@2@$00@std@@QEBAAEBV?$_List_val@U?$_List_simple_types@U?$pair@$$CBV?$basic_string@DU?$char_traits@D@std@@V?$allocator@D@2@@std@@I@std@@@std@@@2@XZ 0000000140003600 f i preprocess.obj
 0001:00002600       ?_Get_second@?$_Compressed_pair@V?$allocator@V?$_List_unchecked_iterator@V?$_List_val@U?$_List_simple_types@U?$pair@$$CBIPEAUedge@@@std@@@std@@@std@@@std@@@std@@V?$_Vector_val@U?$_Simple_types@V?$_List_unchecked_iterator@V?$_List_val@U?$_List_simple_types@U?$pair@$$CBIPEAUedge@@@std@@@std@@@std@@@std@@@std@@@2@$00@std@@QEBAAEBV?$_Vector_val@U?$_Simple_types@V?$_List_unchecked_iterator@V?$_List_val@U?$_List_simple_types@U?$pair@$$CBIPEAUedge@@@std@@@std@@@std@@@std@@@std@@@2@XZ 0000000140003600 f i preprocess.obj
 0001:00002600       ??$forward@AEAPEAU?$_List_node@U?$pair@$$CBIPEAUedge@@@std@@PEAX@std@@@std@@YAAEAPEAU?$_List_node@U?$pair@$$CBIPEAUedge@@@std@@PEAX@0@AEAPEAU10@@Z 0000000140003600 f i preprocess.obj
 0001:00002600       ??$forward@AEBV?$allocator@V?$_List_unchecked_iterator@V?$_List_val@U?$_List_simple_types@U?$pair@$$CBIPEAUedge@@@std@@@std@@@std@@@std@@@std@@@std@@YAAEBV?$allocator@V?$_List_unchecked_iterator@V?$_List_val@U?$_List_simple_types@U?$pair@$$CBIPEAUedge@@@std@@@std@@@std@@@std@@@0@AEBV10@@Z 0000000140003600 f i preprocess.obj
 0001:00002600       ??$addressof@V?$_Hash@V?$_Umap_traits@V?$basic_string@DU?$char_traits@D@std@@V?$allocator@D@2@@std@@IV?$_Uhash_compare@V?$basic_string@DU?$char_traits@D@std@@V?$allocator@D@2@@std@@U?$hash@V?$basic_string@DU?$char_traits@D@std@@V?$allocator@D@2@@std@@@2@U?$equal_to@V?$basic_string@DU?$char_traits@D@std@@V?$allocator@D@2@@std@@@2@@2@V?$allocator@U?$pair@$$CBV?$basic_string@DU?$char_traits@D@std@@V?$allocator@D@2@@std@@I@std@@@2@$0A@@std@@@std@@@std@@YAPEAV?$_Hash@V?$_Umap_traits@V?$basic_string@DU?$char_traits@D@std@@V?$allocator@D@2@@std@@IV?$_Uhash_compare@V?$basic_string@DU?$char_traits@D@std@@V?$allocator@D@2@@std@@U?$hash@V?$basic_string@DU?$char_traits@D@std@@V?$allocator@D@2@@std@@@2@U?$equal_to@V?$basic_string@DU?$char_traits@D@std@@V?$allocator@D@2@@std@@@2@@2@V?$allocator@U?$pair@$$CBV?$basic_string@DU?$char_traits@D@std@@V?$allocator@D@2@@std@@I@std@@@2@$0A@@std@@@0@AEAV10@@Z 0000000140003600 f i preprocess.obj
 0001:00002600       ??$_Unfancy@U_Container_proxy@std@@@std@@YAPEAU_Container_proxy@0@PEAU10@@Z 0000000140003600 f i preprocess.obj
 0001:00002600       ?_Get_first@?$_Compressed_pair@U?$hash@I@std@@V?$_Compressed_pair@U?$equal_to@I@std@@M$00@2@$00@std@@QEBAAEBU?$hash@I@2@XZ 0000000140003600 f i preprocess.obj
 0001:00002600       ??$forward@U?$pair@IPEAUfile_edge@@@std@@@std@@YA$$QEAU?$pair@IPEAUfile_edge@@@0@AEAU10@@Z 0000000140003600 f i preprocess.obj
 0001:00002600       ??$addressof@V?$_Vector_val@U?$_Simple_types@V?$_List_unchecked_iterator@V?$_List_val@U?$_List_simple_types@U?$pair@$$CBIPEAUfile_edge@@@std@@@std@@@std@@@std@@@std@@@std@@@std@@YAPEAV?$_Vector_val@U?$_Simple_types@V?$_List_unchecked_iterator@V?$_List_val@U?$_List_simple_types@U?$pair@$$CBIPEAUfile_edge@@@std@@@std@@@std@@@std@@@std@@@0@AEAV10@@Z 0000000140003600 f i preprocess.obj
 0001:00002600       ??$forward@PEAUedge@@@std@@YA$$QEAPEAUedge@@AEAPEAU1@@Z 0000000140003600 f i preprocess.obj
 0001:00002600       ??$_Unfancy@V?$_List_unchecked_iterator@V?$_List_val@U?$_List_simple_types@U?$pair@$$CBIPEAUedge@@@std@@@std@@@std@@@std@@@std@@YAPEAV?$_List_unchecked_iterator@V?$_List_val@U?$_List_simple_types@U?$pair@$$CBIPEAUedge@@@std@@@std@@@std@@@0@PEAV10@@Z 0000000140003600 f i preprocess.obj
 0001:00002600       ??$forward@AEAU?$pair@$$CBIPEAUfile_edge@@@std@@@std@@YAAEAU?$pair@$$CBIPEAUfile_edge@@@0@AEAU10@@Z 0000000140003600 f i preprocess.obj
 0001:00002600       ??$forward@AEBV?$allocator@U?$pair@$$CBIPEAUfile_edge@@@std@@@std@@@std@@YAAEBV?$allocator@U?$pair@$$CBIPEAUfile_edge@@@std@@@0@AEBV10@@Z 0000000140003600 f i preprocess.obj
 0001:00002600       ??$forward@AEBV?$_List_unchecked_iterator@V?$_List_val@U?$_List_simple_types@U?$pair@$$CBIPEAUedge@@@std@@@std@@@std@@@std@@@std@@YAAEBV?$_List_unchecked_iterator@V?$_List_val@U?$_List_simple_types@U?$pair@$$CBIPEAUedge@@@std@@@std@@@std@@@0@AEBV10@@Z 0000000140003600 f i preprocess.obj
 0001:00002600       ?dangerous_get_state_array@?$dual_state_global@PEAU__crt_locale_data@@@__crt_state_management@@QEAAPEAPEAU__crt_locale_data@@XZ 0000000140003600 f i libucrtd:per_thread_data.obj
 0001:00002600       ?get_address_of@?$__crt_unique_heap_ptr@PEADU__crt_internal_free_policy@@@@QEAAPEAPEAPEADXZ 0000000140003600 f i libucrtd:argv_parsing.obj
 0001:00002600       ??$addressof@V?$list@U?$pair@$$CBV?$basic_string@DU?$char_traits@D@std@@V?$allocator@D@2@@std@@I@std@@V?$allocator@U?$pair@$$CBV?$basic_string@DU?$char_traits@D@std@@V?$allocator@D@2@@std@@I@std@@@2@@std@@@std@@YAPEAV?$list@U?$pair@$$CBV?$basic_string@DU?$char_traits@D@std@@V?$allocator@D@2@@std@@I@std@@V?$allocator@U?$pair@$$CBV?$basic_string@DU?$char_traits@D@std@@V?$allocator@D@2@@std@@I@std@@@2@@0@AEAV10@@Z 0000000140003600 f i preprocess.obj
 0001:00002600       ?debug_info@?$__crt_win32_buffer@DU__crt_win32_buffer_no_resizing@@@@QEBAAEBV__crt_win32_buffer_empty_debug_info@@XZ 0000000140003600 f i libucrtd:getmodulefilenamea.obj
 0001:00002600       ??0?$allocator@U?$pair@$$CBIPEAUfile_edge@@@std@@@std@@QEAA@XZ 0000000140003600 f i preprocess.obj
 0001:00002600       ??$move@AEAV?$_List_unchecked_iterator@V?$_List_val@U?$_List_simple_types@U?$pair@$$CBIPEAUedge@@@std@@@std@@@std@@@std@@@std@@YA$$QEAV?$_List_unchecked_iterator@V?$_List_val@U?$_List_simple_types@U?$pair@$$CBIPEAUedge@@@std@@@std@@@std@@@0@AEAV10@@Z 0000000140003600 f i preprocess.obj
 0001:00002600       ??$addressof@V?$_List_val@U?$_List_simple_types@U?$pair@$$CBIPEAUedge@@@std@@@std@@@std@@@std@@YAPEAV?$_List_val@U?$_List_simple_types@U?$pair@$$CBIPEAUedge@@@std@@@std@@@0@AEAV10@@Z 0000000140003600 f i preprocess.obj
 0001:00002600       ?_Get_second@?$_Compressed_pair@V?$allocator@V?$_List_unchecked_iterator@V?$_List_val@U?$_List_simple_types@U?$pair@$$CBV?$basic_string@DU?$char_traits@D@std@@V?$allocator@D@2@@std@@I@std@@@std@@@std@@@std@@@std@@V?$_Vector_val@U?$_Simple_types@V?$_List_unchecked_iterator@V?$_List_val@U?$_List_simple_types@U?$pair@$$CBV?$basic_string@DU?$char_traits@D@std@@V?$allocator@D@2@@std@@I@std@@@std@@@std@@@std@@@std@@@2@$00@std@@QEBAAEBV?$_Vector_val@U?$_Simple_types@V?$_List_unchecked_iterator@V?$_List_val@U?$_List_simple_types@U?$pair@$$CBV?$basic_string@DU?$char_traits@D@std@@V?$allocator@D@2@@std@@I@std@@@std@@@std@@@std@@@std@@@2@XZ 0000000140003600 f i preprocess.obj
 0001:00002600       ??$addressof@$$CBV?$_List_val@U?$_List_simple_types@U?$pair@$$CBV?$basic_string@DU?$char_traits@D@std@@V?$allocator@D@2@@std@@I@std@@@std@@@std@@@std@@YAPEBV?$_List_val@U?$_List_simple_types@U?$pair@$$CBV?$basic_string@DU?$char_traits@D@std@@V?$allocator@D@2@@std@@I@std@@@std@@@0@AEBV10@@Z 0000000140003600 f i preprocess.obj
 0001:00002600       ??$forward@V?$_List_iterator@V?$_List_val@U?$_List_simple_types@U?$pair@$$CBIPEAUedge@@@std@@@std@@@std@@@std@@@std@@YA$$QEAV?$_List_iterator@V?$_List_val@U?$_List_simple_types@U?$pair@$$CBIPEAUedge@@@std@@@std@@@std@@@0@AEAV10@@Z 0000000140003600 f i preprocess.obj
 0001:00002600       ??$addressof@V?$_List_val@U?$_List_simple_types@U?$pair@$$CBV?$basic_string@DU?$char_traits@D@std@@V?$allocator@D@2@@std@@I@std@@@std@@@std@@@std@@YAPEAV?$_List_val@U?$_List_simple_types@U?$pair@$$CBV?$basic_string@DU?$char_traits@D@std@@V?$allocator@D@2@@std@@I@std@@@std@@@0@AEAV10@@Z 0000000140003600 f i preprocess.obj
 0001:00002600       ??$addressof@U?$pair@$$CBV?$basic_string@DU?$char_traits@D@std@@V?$allocator@D@2@@std@@I@std@@@std@@YAPEAU?$pair@$$CBV?$basic_string@DU?$char_traits@D@std@@V?$allocator@D@2@@std@@I@0@AEAU10@@Z 0000000140003600 f i preprocess.obj
 0001:00002600       ??$_Unfancy@V?$_List_unchecked_iterator@V?$_List_val@U?$_List_simple_types@U?$pair@$$CBIPEAUfile_edge@@@std@@@std@@@std@@@std@@@std@@YAPEAV?$_List_unchecked_iterator@V?$_List_val@U?$_List_simple_types@U?$pair@$$CBIPEAUfile_edge@@@std@@@std@@@std@@@0@PEAV10@@Z 0000000140003600 f i preprocess.obj
 0001:00002600       ?dangerous_get_state_array@?$dual_state_global@PEAE@__crt_state_management@@QEAAPEAPEAEXZ 0000000140003600 f i libucrtd:mbctype.obj
 0001:00002600       ?_Get_second@?$_Compressed_pair@V?$allocator@V?$_List_unchecked_iterator@V?$_List_val@U?$_List_simple_types@U?$pair@$$CBIPEAUfile_edge@@@std@@@std@@@std@@@std@@@std@@V?$_Vector_val@U?$_Simple_types@V?$_List_unchecked_iterator@V?$_List_val@U?$_List_simple_types@U?$pair@$$CBIPEAUfile_edge@@@std@@@std@@@std@@@std@@@std@@@2@$00@std@@QEBAAEBV?$_Vector_val@U?$_Simple_types@V?$_List_unchecked_iterator@V?$_List_val@U?$_List_simple_types@U?$pair@$$CBIPEAUfile_edge@@@std@@@std@@@std@@@std@@@std@@@2@XZ 0000000140003600 f i preprocess.obj
 0001:00002600       ?_Get_second@?$_Compressed_pair@V?$allocator@U?$_List_node@U?$pair@$$CBIPEAUfile_edge@@@std@@PEAX@std@@@std@@V?$_List_val@U?$_List_simple_types@U?$pair@$$CBIPEAUfile_edge@@@std@@@std@@@2@$00@std@@QEAAAEAV?$_List_val@U?$_List_simple_types@U?$pair@$$CBIPEAUfile_edge@@@std@@@std@@@2@XZ 0000000140003600 f i preprocess.obj
 0001:00002600       ?debug_info@?$__crt_win32_buffer@DU__crt_win32_buffer_internal_dynamic_resizing@@@@QEBAAEBV__crt_win32_buffer_empty_debug_info@@XZ 0000000140003600 f i libucrtd:argv_wildcards.obj
 0001:00002600       ??$forward@V?$_List_iterator@V?$_List_val@U?$_List_simple_types@U?$pair@$$CBV?$basic_string@DU?$char_traits@D@std@@V?$allocator@D@2@@std@@I@std@@@std@@@std@@@std@@@std@@YA$$QEAV?$_List_iterator@V?$_List_val@U?$_List_simple_types@U?$pair@$$CBV?$basic_string@DU?$char_traits@D@std@@V?$allocator@D@2@@std@@I@std@@@std@@@std@@@0@AEAV10@@Z 0000000140003600 f i preprocess.obj
 0001:00002600       ?_Get_first@?$_Compressed_pair@V?$allocator@U?$_List_node@U?$pair@$$CBIPEAUfile_edge@@@std@@PEAX@std@@@std@@V?$_List_val@U?$_List_simple_types@U?$pair@$$CBIPEAUfile_edge@@@std@@@std@@@2@$00@std@@QEBAAEBV?$allocator@U?$_List_node@U?$pair@$$CBIPEAUfile_edge@@@std@@PEAX@std@@@2@XZ 0000000140003600 f i preprocess.obj
 0001:00002600       ??$addressof@PEAD@std@@YAPEAPEADAEAPEAD@Z 0000000140003600 f i preprocess.obj
 0001:00002600       ??$forward@AEAU?$equal_to@I@std@@@std@@YAAEAU?$equal_to@I@0@AEAU10@@Z 0000000140003600 f i preprocess.obj
 0001:00002600       ??$addressof@V?$_String_val@U?$_Simple_types@D@std@@@std@@@std@@YAPEAV?$_String_val@U?$_Simple_types@D@std@@@0@AEAV10@@Z 0000000140003600 f i preprocess.obj
 0001:00002600       ??$forward@V?$_List_unchecked_iterator@V?$_List_val@U?$_List_simple_types@U?$pair@$$CBIPEAUedge@@@std@@@std@@@std@@@std@@@std@@YA$$QEAV?$_List_unchecked_iterator@V?$_List_val@U?$_List_simple_types@U?$pair@$$CBIPEAUedge@@@std@@@std@@@std@@@0@AEAV10@@Z 0000000140003600 f i preprocess.obj
 0001:00002600       ??$addressof@V?$vector@V?$_List_unchecked_iterator@V?$_List_val@U?$_List_simple_types@U?$pair@$$CBV?$basic_string@DU?$char_traits@D@std@@V?$allocator@D@2@@std@@I@std@@@std@@@std@@@std@@V?$allocator@V?$_List_unchecked_iterator@V?$_List_val@U?$_List_simple_types@U?$pair@$$CBV?$basic_string@DU?$char_traits@D@std@@V?$allocator@D@2@@std@@I@std@@@std@@@std@@@std@@@2@@std@@@std@@YAPEAV?$vector@V?$_List_unchecked_iterator@V?$_List_val@U?$_List_simple_types@U?$pair@$$CBV?$basic_string@DU?$char_traits@D@std@@V?$allocator@D@2@@std@@I@std@@@std@@@std@@@std@@V?$allocator@V?$_List_unchecked_iterator@V?$_List_val@U?$_List_simple_types@U?$pair@$$CBV?$basic_string@DU?$char_traits@D@std@@V?$allocator@D@2@@std@@I@std@@@std@@@std@@@std@@@2@@0@AEAV10@@Z 0000000140003600 f i preprocess.obj
 0001:00002600       ?_Get_second@?$_Compressed_pair@V?$allocator@V?$_List_unchecked_iterator@V?$_List_val@U?$_List_simple_types@U?$pair@$$CBIPEAUfile_edge@@@std@@@std@@@std@@@std@@@std@@V?$_Vector_val@U?$_Simple_types@V?$_List_unchecked_iterator@V?$_List_val@U?$_List_simple_types@U?$pair@$$CBIPEAUfile_edge@@@std@@@std@@@std@@@std@@@std@@@2@$00@std@@QEAAAEAV?$_Vector_val@U?$_Simple_types@V?$_List_unchecked_iterator@V?$_List_val@U?$_List_simple_types@U?$pair@$$CBIPEAUfile_edge@@@std@@@std@@@std@@@std@@@std@@@2@XZ 0000000140003600 f i preprocess.obj
 0001:00002600       ?_Get_first@?$_Compressed_pair@U?$hash@V?$basic_string@DU?$char_traits@D@std@@V?$allocator@D@2@@std@@@std@@V?$_Compressed_pair@U?$equal_to@V?$basic_string@DU?$char_traits@D@std@@V?$allocator@D@2@@std@@@std@@M$00@2@$00@std@@QEBAAEBU?$hash@V?$basic_string@DU?$char_traits@D@std@@V?$allocator@D@2@@std@@@2@XZ 0000000140003600 f i preprocess.obj
 0001:00002600       ??$_Unfancy@V?$_List_unchecked_iterator@V?$_List_val@U?$_List_simple_types@U?$pair@$$CBV?$basic_string@DU?$char_traits@D@std@@V?$allocator@D@2@@std@@I@std@@@std@@@std@@@std@@@std@@YAPEAV?$_List_unchecked_iterator@V?$_List_val@U?$_List_simple_types@U?$pair@$$CBV?$basic_string@DU?$char_traits@D@std@@V?$allocator@D@2@@std@@I@std@@@std@@@std@@@0@PEAV10@@Z 0000000140003600 f i preprocess.obj
 0001:00002600       ??$forward@AEAPEAU?$_List_node@U?$pair@$$CBIPEAUfile_edge@@@std@@PEAX@std@@@std@@YAAEAPEAU?$_List_node@U?$pair@$$CBIPEAUfile_edge@@@std@@PEAX@0@AEAPEAU10@@Z 0000000140003600 f i preprocess.obj
 0001:00002600       ??$addressof@PEAU?$_List_node@U?$pair@$$CBV?$basic_string@DU?$char_traits@D@std@@V?$allocator@D@2@@std@@I@std@@PEAX@std@@@std@@YAPEAPEAU?$_List_node@U?$pair@$$CBV?$basic_string@DU?$char_traits@D@std@@V?$allocator@D@2@@std@@I@std@@PEAX@0@AEAPEAU10@@Z 0000000140003600 f i preprocess.obj
 0001:00002600       ?dangerous_get_state_array@?$dual_state_global@PEAU__crt_multibyte_data@@@__crt_state_management@@QEAAPEAPEAU__crt_multibyte_data@@XZ 0000000140003600 f i libucrtd:mbctype.obj
 0001:00002600       ?_Get_first@?$_Compressed_pair@V?$allocator@U?$_List_node@U?$pair@$$CBV?$basic_string@DU?$char_traits@D@std@@V?$allocator@D@2@@std@@I@std@@PEAX@std@@@std@@V?$_List_val@U?$_List_simple_types@U?$pair@$$CBV?$basic_string@DU?$char_traits@D@std@@V?$allocator@D@2@@std@@I@std@@@std@@@2@$00@std@@QEAAAEAV?$allocator@U?$_List_node@U?$pair@$$CBV?$basic_string@DU?$char_traits@D@std@@V?$allocator@D@2@@std@@I@std@@PEAX@std@@@2@XZ 0000000140003600 f i preprocess.obj
 0001:00002600       ??$addressof@$$CBV?$_List_val@U?$_List_simple_types@U?$pair@$$CBIPEAUedge@@@std@@@std@@@std@@@std@@YAPEBV?$_List_val@U?$_List_simple_types@U?$pair@$$CBIPEAUedge@@@std@@@std@@@0@AEBV10@@Z 0000000140003600 f i preprocess.obj
 0001:00002600       ??0?$allocator@U?$pair@$$CBV?$basic_string@DU?$char_traits@D@std@@V?$allocator@D@2@@std@@I@std@@@std@@QEAA@XZ 0000000140003600 f i preprocess.obj
 0001:00002600       ?_Get_first@?$_Compressed_pair@V?$allocator@U?$_List_node@U?$pair@$$CBIPEAUfile_edge@@@std@@PEAX@std@@@std@@V?$_List_val@U?$_List_simple_types@U?$pair@$$CBIPEAUfile_edge@@@std@@@std@@@2@$00@std@@QEAAAEAV?$allocator@U?$_List_node@U?$pair@$$CBIPEAUfile_edge@@@std@@PEAX@std@@@2@XZ 0000000140003600 f i preprocess.obj
 0001:00002600       ?_Get_first@?$_Compressed_pair@V?$allocator@D@std@@V?$_String_val@U?$_Simple_types@D@std@@@2@$00@std@@QEAAAEAV?$allocator@D@2@XZ 0000000140003600 f i preprocess.obj
 0001:00002600       ??$move@AEAV?$_List_unchecked_iterator@V?$_List_val@U?$_List_simple_types@U?$pair@$$CBV?$basic_string@DU?$char_traits@D@std@@V?$allocator@D@2@@std@@I@std@@@std@@@std@@@std@@@std@@YA$$QEAV?$_List_unchecked_iterator@V?$_List_val@U?$_List_simple_types@U?$pair@$$CBV?$basic_string@DU?$char_traits@D@std@@V?$allocator@D@2@@std@@I@std@@@std@@@std@@@0@AEAV10@@Z 0000000140003600 f i preprocess.obj
 0001:00002600       ?_Get_second@?$_Compressed_pair@U?$equal_to@I@std@@M$00@std@@QEAAAEAMXZ 0000000140003600 f i preprocess.obj
 0001:00002600       ??$move@AEAV?$allocator@U?$_List_node@U?$pair@$$CBV?$basic_string@DU?$char_traits@D@std@@V?$allocator@D@2@@std@@I@std@@PEAX@std@@@std@@@std@@YA$$QEAV?$allocator@U?$_List_node@U?$pair@$$CBV?$basic_string@DU?$char_traits@D@std@@V?$allocator@D@2@@std@@I@std@@PEAX@std@@@0@AEAV10@@Z 0000000140003600 f i preprocess.obj
 0001:00002600       ?_Get_first@?$_Compressed_pair@V?$allocator@V?$_List_unchecked_iterator@V?$_List_val@U?$_List_simple_types@U?$pair@$$CBIPEAUedge@@@std@@@std@@@std@@@std@@@std@@V?$_Vector_val@U?$_Simple_types@V?$_List_unchecked_iterator@V?$_List_val@U?$_List_simple_types@U?$pair@$$CBIPEAUedge@@@std@@@std@@@std@@@std@@@std@@@2@$00@std@@QEAAAEAV?$allocator@V?$_List_unchecked_iterator@V?$_List_val@U?$_List_simple_types@U?$pair@$$CBIPEAUedge@@@std@@@std@@@std@@@std@@@2@XZ 0000000140003600 f i preprocess.obj
 0001:00002600       ?_Get_first@?$_Compressed_pair@V?$allocator@V?$_List_unchecked_iterator@V?$_List_val@U?$_List_simple_types@U?$pair@$$CBIPEAUfile_edge@@@std@@@std@@@std@@@std@@@std@@V?$_Vector_val@U?$_Simple_types@V?$_List_unchecked_iterator@V?$_List_val@U?$_List_simple_types@U?$pair@$$CBIPEAUfile_edge@@@std@@@std@@@std@@@std@@@std@@@2@$00@std@@QEAAAEAV?$allocator@V?$_List_unchecked_iterator@V?$_List_val@U?$_List_simple_types@U?$pair@$$CBIPEAUfile_edge@@@std@@@std@@@std@@@std@@@2@XZ 0000000140003600 f i preprocess.obj
 0001:00002600       ?_Get_second@?$_Compressed_pair@U?$hash@V?$basic_string@DU?$char_traits@D@std@@V?$allocator@D@2@@std@@@std@@V?$_Compressed_pair@U?$equal_to@V?$basic_string@DU?$char_traits@D@std@@V?$allocator@D@2@@std@@@std@@M$00@2@$00@std@@QEBAAEBV?$_Compressed_pair@U?$equal_to@V?$basic_string@DU?$char_traits@D@std@@V?$allocator@D@2@@std@@@std@@M$00@2@XZ 0000000140003600 f i preprocess.obj
 0001:00002600       ??$forward@U?$pair@V?$basic_string@DU?$char_traits@D@std@@V?$allocator@D@2@@std@@I@std@@@std@@YA$$QEAU?$pair@V?$basic_string@DU?$char_traits@D@std@@V?$allocator@D@2@@std@@I@0@AEAU10@@Z 0000000140003600 f i preprocess.obj
 0001:00002600       ??$forward@AEAU?$pair@$$CBIPEAUedge@@@std@@@std@@YAAEAU?$pair@$$CBIPEAUedge@@@0@AEAU10@@Z 0000000140003600 f i preprocess.obj
 0001:00002600       ?_Get_first@?$_Compressed_pair@V?$allocator@V?$_List_unchecked_iterator@V?$_List_val@U?$_List_simple_types@U?$pair@$$CBV?$basic_string@DU?$char_traits@D@std@@V?$allocator@D@2@@std@@I@std@@@std@@@std@@@std@@@std@@V?$_Vector_val@U?$_Simple_types@V?$_List_unchecked_iterator@V?$_List_val@U?$_List_simple_types@U?$pair@$$CBV?$basic_string@DU?$char_traits@D@std@@V?$allocator@D@2@@std@@I@std@@@std@@@std@@@std@@@std@@@2@$00@std@@QEAAAEAV?$allocator@V?$_List_unchecked_iterator@V?$_List_val@U?$_List_simple_types@U?$pair@$$CBV?$basic_string@DU?$char_traits@D@std@@V?$allocator@D@2@@std@@I@std@@@std@@@std@@@std@@@2@XZ 0000000140003600 f i preprocess.obj
 0001:00002600       ??$forward@V?$_List_unchecked_iterator@V?$_List_val@U?$_List_simple_types@U?$pair@$$CBIPEAUfile_edge@@@std@@@std@@@std@@@std@@@std@@YA$$QEAV?$_List_unchecked_iterator@V?$_List_val@U?$_List_simple_types@U?$pair@$$CBIPEAUfile_edge@@@std@@@std@@@std@@@0@AEAV10@@Z 0000000140003600 f i preprocess.obj
 0001:00002600       ?_Get_first@?$_Compressed_pair@V?$allocator@V?$_List_unchecked_iterator@V?$_List_val@U?$_List_simple_types@U?$pair@$$CBIPEAUedge@@@std@@@std@@@std@@@std@@@std@@V?$_Vector_val@U?$_Simple_types@V?$_List_unchecked_iterator@V?$_List_val@U?$_List_simple_types@U?$pair@$$CBIPEAUedge@@@std@@@std@@@std@@@std@@@std@@@2@$00@std@@QEBAAEBV?$allocator@V?$_List_unchecked_iterator@V?$_List_val@U?$_List_simple_types@U?$pair@$$CBIPEAUedge@@@std@@@std@@@std@@@std@@@2@XZ 0000000140003600 f i preprocess.obj
 0001:00002600       ??$forward@AEAU?$hash@I@std@@@std@@YAAEAU?$hash@I@0@AEAU10@@Z 0000000140003600 f i preprocess.obj
 0001:00002600       ??$move@AEA_K@std@@YA$$QEA_KAEA_K@Z 0000000140003600 f i preprocess.obj
 0001:00002600       ??$forward@V?$basic_string@DU?$char_traits@D@std@@V?$allocator@D@2@@std@@@std@@YA$$QEAV?$basic_string@DU?$char_traits@D@std@@V?$allocator@D@2@@0@AEAV10@@Z 0000000140003600 f i preprocess.obj
 0001:00002600       ??$forward@_N@std@@YA$$QEA_NAEA_N@Z 0000000140003600 f i preprocess.obj
 0001:00002600       ??$_Get_size_of_n@$00@std@@YA_K_K@Z 0000000140003600 f i preprocess.obj
 0001:00002600       ??$forward@AEAPEAU?$_List_node@U?$pair@$$CBV?$basic_string@DU?$char_traits@D@std@@V?$allocator@D@2@@std@@I@std@@PEAX@std@@@std@@YAAEAPEAU?$_List_node@U?$pair@$$CBV?$basic_string@DU?$char_traits@D@std@@V?$allocator@D@2@@std@@I@std@@PEAX@0@AEAPEAU10@@Z 0000000140003600 f i preprocess.obj
 0001:00002600       ??$_Get_unwrapped@V?$_List_unchecked_iterator@V?$_List_val@U?$_List_simple_types@U?$pair@$$CBV?$basic_string@DU?$char_traits@D@std@@V?$allocator@D@2@@std@@I@std@@@std@@@std@@@std@@@std@@YAPEAV?$_List_unchecked_iterator@V?$_List_val@U?$_List_simple_types@U?$pair@$$CBV?$basic_string@DU?$char_traits@D@std@@V?$allocator@D@2@@std@@I@std@@@std@@@std@@@0@QEAV10@@Z 0000000140003600 f i preprocess.obj
 0001:00002600       ??$_Kfn@$$CBIPEAUfile_edge@@@?$_Umap_traits@IPEAUfile_edge@@V?$_Uhash_compare@IU?$hash@I@std@@U?$equal_to@I@2@@std@@V?$allocator@U?$pair@$$CBIPEAUfile_edge@@@std@@@3@$0A@@std@@SAAEBIAEBU?$pair@$$CBIPEAUfile_edge@@@1@@Z 0000000140003600 f i preprocess.obj
 0001:00002600       ??$forward@AEBQEAD@std@@YAAEBQEADAEBQEAD@Z 0000000140003600 f i preprocess.obj
 0001:00002600       ??$addressof@V?$_Vector_val@U?$_Simple_types@V?$_List_unchecked_iterator@V?$_List_val@U?$_List_simple_types@U?$pair@$$CBIPEAUedge@@@std@@@std@@@std@@@std@@@std@@@std@@@std@@YAPEAV?$_Vector_val@U?$_Simple_types@V?$_List_unchecked_iterator@V?$_List_val@U?$_List_simple_types@U?$pair@$$CBIPEAUedge@@@std@@@std@@@std@@@std@@@std@@@0@AEAV10@@Z 0000000140003600 f i preprocess.obj
 0001:00002600       ?_Get_first@?$_Compressed_pair@V?$allocator@V?$_List_unchecked_iterator@V?$_List_val@U?$_List_simple_types@U?$pair@$$CBV?$basic_string@DU?$char_traits@D@std@@V?$allocator@D@2@@std@@I@std@@@std@@@std@@@std@@@std@@V?$_Vector_val@U?$_Simple_types@V?$_List_unchecked_iterator@V?$_List_val@U?$_List_simple_types@U?$pair@$$CBV?$basic_string@DU?$char_traits@D@std@@V?$allocator@D@2@@std@@I@std@@@std@@@std@@@std@@@std@@@2@$00@std@@QEBAAEBV?$allocator@V?$_List_unchecked_iterator@V?$_List_val@U?$_List_simple_types@U?$pair@$$CBV?$basic_string@DU?$char_traits@D@std@@V?$allocator@D@2@@std@@I@std@@@std@@@std@@@std@@@2@XZ 0000000140003600 f i preprocess.obj
 0001:00002600       ??$forward@AEAU?$pair@$$CBV?$basic_string@DU?$char_traits@D@std@@V?$allocator@D@2@@std@@I@std@@@std@@YAAEAU?$pair@$$CBV?$basic_string@DU?$char_traits@D@std@@V?$allocator@D@2@@std@@I@0@AEAU10@@Z 0000000140003600 f i preprocess.obj
 0001:00002600       ??0_Bxty@?$_String_val@U?$_Simple_types@D@std@@@std@@QEAA@XZ 0000000140003600 f i preprocess.obj
 0001:00002600       ?_Get_first@?$_Compressed_pair@U?$equal_to@V?$basic_string@DU?$char_traits@D@std@@V?$allocator@D@2@@std@@@std@@M$00@std@@QEBAAEBU?$equal_to@V?$basic_string@DU?$char_traits@D@std@@V?$allocator@D@2@@std@@@2@XZ 0000000140003600 f i preprocess.obj
 0001:00002600       ??$move@AEAV?$allocator@V?$_List_unchecked_iterator@V?$_List_val@U?$_List_simple_types@U?$pair@$$CBV?$basic_string@DU?$char_traits@D@std@@V?$allocator@D@2@@std@@I@std@@@std@@@std@@@std@@@std@@@std@@YA$$QEAV?$allocator@V?$_List_unchecked_iterator@V?$_List_val@U?$_List_simple_types@U?$pair@$$CBV?$basic_string@DU?$char_traits@D@std@@V?$allocator@D@2@@std@@I@std@@@std@@@std@@@std@@@0@AEAV10@@Z 0000000140003600 f i preprocess.obj
 0001:00002600       ??$forward@AEAU?$hash@V?$basic_string@DU?$char_traits@D@std@@V?$allocator@D@2@@std@@@std@@@std@@YAAEAU?$hash@V?$basic_string@DU?$char_traits@D@std@@V?$allocator@D@2@@std@@@0@AEAU10@@Z 0000000140003600 f i preprocess.obj
 0001:00002600       ??$addressof@$$CBV?$_List_val@U?$_List_simple_types@U?$pair@$$CBIPEAUfile_edge@@@std@@@std@@@std@@@std@@YAPEBV?$_List_val@U?$_List_simple_types@U?$pair@$$CBIPEAUfile_edge@@@std@@@std@@@0@AEBV10@@Z 0000000140003600 f i preprocess.obj
 0001:00002600       ?_Get_second@?$_Compressed_pair@U?$equal_to@V?$basic_string@DU?$char_traits@D@std@@V?$allocator@D@2@@std@@@std@@M$00@std@@QEBAAEBMXZ 0000000140003600 f i preprocess.obj
 0001:00002600       ??$forward@AEAU?$equal_to@V?$basic_string@DU?$char_traits@D@std@@V?$allocator@D@2@@std@@@std@@@std@@YAAEAU?$equal_to@V?$basic_string@DU?$char_traits@D@std@@V?$allocator@D@2@@std@@@0@AEAU10@@Z 0000000140003600 f i preprocess.obj
 0001:00002600       ??$forward@V?$_List_iterator@V?$_List_val@U?$_List_simple_types@U?$pair@$$CBIPEAUfile_edge@@@std@@@std@@@std@@@std@@@std@@YA$$QEAV?$_List_iterator@V?$_List_val@U?$_List_simple_types@U?$pair@$$CBIPEAUfile_edge@@@std@@@std@@@std@@@0@AEAV10@@Z 0000000140003600 f i preprocess.obj
 0001:00002600       ?_Get_second@?$_Compressed_pair@V?$allocator@U?$_List_node@U?$pair@$$CBIPEAUedge@@@std@@PEAX@std@@@std@@V?$_List_val@U?$_List_simple_types@U?$pair@$$CBIPEAUedge@@@std@@@std@@@2@$00@std@@QEAAAEAV?$_List_val@U?$_List_simple_types@U?$pair@$$CBIPEAUedge@@@std@@@std@@@2@XZ 0000000140003600 f i preprocess.obj
 0001:00002600       ??$forward@AEBV?$allocator@U?$pair@$$CBIPEAUedge@@@std@@@std@@@std@@YAAEBV?$allocator@U?$pair@$$CBIPEAUedge@@@std@@@0@AEBV10@@Z 0000000140003600 f i preprocess.obj
 0001:00002600       ??$forward@V?$allocator@D@std@@@std@@YA$$QEAV?$allocator@D@0@AEAV10@@Z 0000000140003600 f i preprocess.obj
 0001:00002600       ?_Get_first@?$_Compressed_pair@V?$allocator@V?$_List_unchecked_iterator@V?$_List_val@U?$_List_simple_types@U?$pair@$$CBIPEAUfile_edge@@@std@@@std@@@std@@@std@@@std@@V?$_Vector_val@U?$_Simple_types@V?$_List_unchecked_iterator@V?$_List_val@U?$_List_simple_types@U?$pair@$$CBIPEAUfile_edge@@@std@@@std@@@std@@@std@@@std@@@2@$00@std@@QEBAAEBV?$allocator@V?$_List_unchecked_iterator@V?$_List_val@U?$_List_simple_types@U?$pair@$$CBIPEAUfile_edge@@@std@@@std@@@std@@@std@@@2@XZ 0000000140003600 f i preprocess.obj
 0001:00002600       ?_Get_second@?$_Compressed_pair@V?$allocator@U?$_List_node@U?$pair@$$CBV?$basic_string@DU?$char_traits@D@std@@V?$allocator@D@2@@std@@I@std@@PEAX@std@@@std@@V?$_List_val@U?$_List_simple_types@U?$pair@$$CBV?$basic_string@DU?$char_traits@D@std@@V?$allocator@D@2@@std@@I@std@@@std@@@2@$00@std@@QEAAAEAV?$_List_val@U?$_List_simple_types@U?$pair@$$CBV?$basic_string@DU?$char_traits@D@std@@V?$allocator@D@2@@std@@I@std@@@std@@@2@XZ 0000000140003600 f i preprocess.obj
 0001:00002600       ??$move@AEAV?$list@U?$pair@$$CBV?$basic_string@DU?$char_traits@D@std@@V?$allocator@D@2@@std@@I@std@@V?$allocator@U?$pair@$$CBV?$basic_string@DU?$char_traits@D@std@@V?$allocator@D@2@@std@@I@std@@@2@@std@@@std@@YA$$QEAV?$list@U?$pair@$$CBV?$basic_string@DU?$char_traits@D@std@@V?$allocator@D@2@@std@@I@std@@V?$allocator@U?$pair@$$CBV?$basic_string@DU?$char_traits@D@std@@V?$allocator@D@2@@std@@I@std@@@2@@0@AEAV10@@Z 0000000140003600 f i preprocess.obj
 0001:00002600       ??$forward@AEBV?$allocator@V?$_List_unchecked_iterator@V?$_List_val@U?$_List_simple_types@U?$pair@$$CBIPEAUfile_edge@@@std@@@std@@@std@@@std@@@std@@@std@@YAAEBV?$allocator@V?$_List_unchecked_iterator@V?$_List_val@U?$_List_simple_types@U?$pair@$$CBIPEAUfile_edge@@@std@@@std@@@std@@@std@@@0@AEBV10@@Z 0000000140003600 f i preprocess.obj
 0001:00002600       ??$addressof@U?$pair@$$CBIPEAUedge@@@std@@@std@@YAPEAU?$pair@$$CBIPEAUedge@@@0@AEAU10@@Z 0000000140003600 f i preprocess.obj
 0001:00002600       ?get_address_of@?$__crt_unique_handle_t@U__crt_hmodule_traits@@@@QEAAPEAPEAUHINSTANCE__@@XZ 0000000140003600 f i libucrtd:exit.obj
 0001:00002600       ??$addressof@V?$_List_val@U?$_List_simple_types@U?$pair@$$CBIPEAUfile_edge@@@std@@@std@@@std@@@std@@YAPEAV?$_List_val@U?$_List_simple_types@U?$pair@$$CBIPEAUfile_edge@@@std@@@std@@@0@AEAV10@@Z 0000000140003600 f i preprocess.obj
 0001:00002600       ?dangerous_get_state_array@?$dual_state_global@H@__crt_state_management@@QEAAPEAHXZ 0000000140003600 f i libucrtd:txtmode.obj
 0001:00002600       ??$move@AEAV?$unordered_map@V?$basic_string@DU?$char_traits@D@std@@V?$allocator@D@2@@std@@IU?$hash@V?$basic_string@DU?$char_traits@D@std@@V?$allocator@D@2@@std@@@2@U?$equal_to@V?$basic_string@DU?$char_traits@D@std@@V?$allocator@D@2@@std@@@2@V?$allocator@U?$pair@$$CBV?$basic_string@DU?$char_traits@D@std@@V?$allocator@D@2@@std@@I@std@@@2@@std@@@std@@YA$$QEAV?$unordered_map@V?$basic_string@DU?$char_traits@D@std@@V?$allocator@D@2@@std@@IU?$hash@V?$basic_string@DU?$char_traits@D@std@@V?$allocator@D@2@@std@@@2@U?$equal_to@V?$basic_string@DU?$char_traits@D@std@@V?$allocator@D@2@@std@@@2@V?$allocator@U?$pair@$$CBV?$basic_string@DU?$char_traits@D@std@@V?$allocator@D@2@@std@@I@std@@@2@@0@AEAV10@@Z 0000000140003600 f i preprocess.obj
 0001:00002600       ??$_Get_unwrapped@V?$_List_unchecked_iterator@V?$_List_val@U?$_List_simple_types@U?$pair@$$CBIPEAUfile_edge@@@std@@@std@@@std@@@std@@@std@@YAPEAV?$_List_unchecked_iterator@V?$_List_val@U?$_List_simple_types@U?$pair@$$CBIPEAUfile_edge@@@std@@@std@@@std@@@0@QEAV10@@Z 0000000140003600 f i preprocess.obj
 0001:00002600       ?_Get_second@?$_Compressed_pair@U?$equal_to@I@std@@M$00@std@@QEBAAEBMXZ 0000000140003600 f i preprocess.obj
 0001:00002600       ??$addressof@PEAU?$_List_node@U?$pair@$$CBIPEAUfile_edge@@@std@@PEAX@std@@@std@@YAPEAPEAU?$_List_node@U?$pair@$$CBIPEAUfile_edge@@@std@@PEAX@0@AEAPEAU10@@Z 0000000140003600 f i preprocess.obj
 0001:00002600       ?_Get_second@?$_Compressed_pair@U?$hash@I@std@@V?$_Compressed_pair@U?$equal_to@I@std@@M$00@2@$00@std@@QEBAAEBV?$_Compressed_pair@U?$equal_to@I@std@@M$00@2@XZ 0000000140003600 f i preprocess.obj
 0001:00002600       ?_Get_second@?$_Compressed_pair@U?$hash@I@std@@V?$_Compressed_pair@U?$equal_to@I@std@@M$00@2@$00@std@@QEAAAEAV?$_Compressed_pair@U?$equal_to@I@std@@M$00@2@XZ 0000000140003600 f i preprocess.obj
 0001:00002600       ??$move@AEAV?$vector@V?$_List_unchecked_iterator@V?$_List_val@U?$_List_simple_types@U?$pair@$$CBV?$basic_string@DU?$char_traits@D@std@@V?$allocator@D@2@@std@@I@std@@@std@@@std@@@std@@V?$allocator@V?$_List_unchecked_iterator@V?$_List_val@U?$_List_simple_types@U?$pair@$$CBV?$basic_string@DU?$char_traits@D@std@@V?$allocator@D@2@@std@@I@std@@@std@@@std@@@std@@@2@@std@@@std@@YA$$QEAV?$vector@V?$_List_unchecked_iterator@V?$_List_val@U?$_List_simple_types@U?$pair@$$CBV?$basic_string@DU?$char_traits@D@std@@V?$allocator@D@2@@std@@I@std@@@std@@@std@@@std@@V?$allocator@V?$_List_unchecked_iterator@V?$_List_val@U?$_List_simple_types@U?$pair@$$CBV?$basic_string@DU?$char_traits@D@std@@V?$allocator@D@2@@std@@I@std@@@std@@@std@@@std@@@2@@0@AEAV10@@Z 0000000140003600 f i preprocess.obj
 0001:00002600       ?_Get_second@?$_Compressed_pair@V?$allocator@U?$_List_node@U?$pair@$$CBIPEAUfile_edge@@@std@@PEAX@std@@@std@@V?$_List_val@U?$_List_simple_types@U?$pair@$$CBIPEAUfile_edge@@@std@@@std@@@2@$00@std@@QEBAAEBV?$_List_val@U?$_List_simple_types@U?$pair@$$CBIPEAUfile_edge@@@std@@@std@@@2@XZ 0000000140003600 f i preprocess.obj
 0001:00002600       ?_Get_first@?$_Compressed_pair@V?$allocator@U?$_List_node@U?$pair@$$CBV?$basic_string@DU?$char_traits@D@std@@V?$allocator@D@2@@std@@I@std@@PEAX@std@@@std@@V?$_List_val@U?$_List_simple_types@U?$pair@$$CBV?$basic_string@DU?$char_traits@D@std@@V?$allocator@D@2@@std@@I@std@@@std@@@2@$00@std@@QEBAAEBV?$allocator@U?$_List_node@U?$pair@$$CBV?$basic_string@DU?$char_traits@D@std@@V?$allocator@D@2@@std@@I@std@@PEAX@std@@@2@XZ 0000000140003600 f i preprocess.obj
 0001:00002600       ?_Get_second@?$_Compressed_pair@V?$allocator@V?$_List_unchecked_iterator@V?$_List_val@U?$_List_simple_types@U?$pair@$$CBV?$basic_string@DU?$char_traits@D@std@@V?$allocator@D@2@@std@@I@std@@@std@@@std@@@std@@@std@@V?$_Vector_val@U?$_Simple_types@V?$_List_unchecked_iterator@V?$_List_val@U?$_List_simple_types@U?$pair@$$CBV?$basic_string@DU?$char_traits@D@std@@V?$allocator@D@2@@std@@I@std@@@std@@@std@@@std@@@std@@@2@$00@std@@QEAAAEAV?$_Vector_val@U?$_Simple_types@V?$_List_unchecked_iterator@V?$_List_val@U?$_List_simple_types@U?$pair@$$CBV?$basic_string@DU?$char_traits@D@std@@V?$allocator@D@2@@std@@I@std@@@std@@@std@@@std@@@std@@@2@XZ 0000000140003600 f i preprocess.obj
 0001:00002600       ?_Get_first@?$_Compressed_pair@V?$allocator@D@std@@V?$_String_val@U?$_Simple_types@D@std@@@2@$00@std@@QEBAAEBV?$allocator@D@2@XZ 0000000140003600 f i preprocess.obj
 0001:00002600       ??$addressof@V?$_Vector_val@U?$_Simple_types@V?$_List_unchecked_iterator@V?$_List_val@U?$_List_simple_types@U?$pair@$$CBV?$basic_string@DU?$char_traits@D@std@@V?$allocator@D@2@@std@@I@std@@@std@@@std@@@std@@@std@@@std@@@std@@YAPEAV?$_Vector_val@U?$_Simple_types@V?$_List_unchecked_iterator@V?$_List_val@U?$_List_simple_types@U?$pair@$$CBV?$basic_string@DU?$char_traits@D@std@@V?$allocator@D@2@@std@@I@std@@@std@@@std@@@std@@@std@@@0@AEAV10@@Z 0000000140003600 f i preprocess.obj
 0001:00002600       ??$move@AEAV?$basic_string@DU?$char_traits@D@std@@V?$allocator@D@2@@std@@@std@@YA$$QEAV?$basic_string@DU?$char_traits@D@std@@V?$allocator@D@2@@0@AEAV10@@Z 0000000140003600 f i preprocess.obj
 0001:00002600       ?_Get_second@?$_Compressed_pair@U?$equal_to@V?$basic_string@DU?$char_traits@D@std@@V?$allocator@D@2@@std@@@std@@M$00@std@@QEAAAEAMXZ 0000000140003600 f i preprocess.obj
 0001:00002600       ??$_Kfn@$$CBV?$basic_string@DU?$char_traits@D@std@@V?$allocator@D@2@@std@@I@?$_Umap_traits@V?$basic_string@DU?$char_traits@D@std@@V?$allocator@D@2@@std@@IV?$_Uhash_compare@V?$basic_string@DU?$char_traits@D@std@@V?$allocator@D@2@@std@@U?$hash@V?$basic_string@DU?$char_traits@D@std@@V?$allocator@D@2@@std@@@2@U?$equal_to@V?$basic_string@DU?$char_traits@D@std@@V?$allocator@D@2@@std@@@2@@2@V?$allocator@U?$pair@$$CBV?$basic_string@DU?$char_traits@D@std@@V?$allocator@D@2@@std@@I@std@@@2@$0A@@std@@SAAEBV?$basic_string@DU?$char_traits@D@std@@V?$allocator@D@2@@1@AEBU?$pair@$$CBV?$basic_string@DU?$char_traits@D@std@@V?$allocator@D@2@@std@@I@1@@Z 0000000140003600 f i preprocess.obj
 0001:00002600       ??$move@AEAV?$_List_unchecked_iterator@V?$_List_val@U?$_List_simple_types@U?$pair@$$CBIPEAUfile_edge@@@std@@@std@@@std@@@std@@@std@@YA$$QEAV?$_List_unchecked_iterator@V?$_List_val@U?$_List_simple_types@U?$pair@$$CBIPEAUfile_edge@@@std@@@std@@@std@@@0@AEAV10@@Z 0000000140003600 f i preprocess.obj
 0001:00002600       ??0?$allocator@D@std@@QEAA@XZ 0000000140003600 f i preprocess.obj
 0001:00002600       ??$forward@AEBV?$allocator@V?$_List_unchecked_iterator@V?$_List_val@U?$_List_simple_types@U?$pair@$$CBV?$basic_string@DU?$char_traits@D@std@@V?$allocator@D@2@@std@@I@std@@@std@@@std@@@std@@@std@@@std@@YAAEBV?$allocator@V?$_List_unchecked_iterator@V?$_List_val@U?$_List_simple_types@U?$pair@$$CBV?$basic_string@DU?$char_traits@D@std@@V?$allocator@D@2@@std@@I@std@@@std@@@std@@@std@@@0@AEBV10@@Z 0000000140003600 f i preprocess.obj
 0001:00002600       ??$forward@AEAI@std@@YAAEAIAEAI@Z 0000000140003600 f i preprocess.obj
 0001:00002600       ??$forward@I@std@@YA$$QEAIAEAI@Z 0000000140003600 f i preprocess.obj
 0001:00002600       ??$forward@M@std@@YA$$QEAMAEAM@Z 0000000140003600 f i preprocess.obj
 0001:00002600       ??$forward@AEBV?$_List_unchecked_iterator@V?$_List_val@U?$_List_simple_types@U?$pair@$$CBIPEAUfile_edge@@@std@@@std@@@std@@@std@@@std@@YAAEBV?$_List_unchecked_iterator@V?$_List_val@U?$_List_simple_types@U?$pair@$$CBIPEAUfile_edge@@@std@@@std@@@std@@@0@AEBV10@@Z 0000000140003600 f i preprocess.obj
 0001:00002600       ??$forward@AEBV?$allocator@U?$pair@$$CBV?$basic_string@DU?$char_traits@D@std@@V?$allocator@D@2@@std@@I@std@@@std@@@std@@YAAEBV?$allocator@U?$pair@$$CBV?$basic_string@DU?$char_traits@D@std@@V?$allocator@D@2@@std@@I@std@@@0@AEBV10@@Z 0000000140003600 f i preprocess.obj
 0001:00002600       ??$forward@AEAV?$basic_string@DU?$char_traits@D@std@@V?$allocator@D@2@@std@@@std@@YAAEAV?$basic_string@DU?$char_traits@D@std@@V?$allocator@D@2@@0@AEAV10@@Z 0000000140003600 f i preprocess.obj
 0001:00002600       ??$forward@AEAViterator@TryBlockMap@__FrameHandler3@@@std@@YAAEAViterator@TryBlockMap@__FrameHandler3@@AEAV123@@Z 0000000140003600 f i libvcruntimed:risctrnsctrl.obj
 0001:00002600       ?_Get_first@?$_Compressed_pair@V?$allocator@U?$_List_node@U?$pair@$$CBIPEAUedge@@@std@@PEAX@std@@@std@@V?$_List_val@U?$_List_simple_types@U?$pair@$$CBIPEAUedge@@@std@@@std@@@2@$00@std@@QEBAAEBV?$allocator@U?$_List_node@U?$pair@$$CBIPEAUedge@@@std@@PEAX@std@@@2@XZ 0000000140003600 f i preprocess.obj
 0001:00002600       ?dangerous_get_state_array@?$dual_state_global@P6AXPEB_W00I_K@Z@__crt_state_management@@QEAAPEAP6AXPEB_W00I_K@ZXZ 0000000140003600 f i libucrtd:invalid_parameter.obj
 0001:00002600       ??$forward@AEAPEAUedge@@@std@@YAAEAPEAUedge@@AEAPEAU1@@Z 0000000140003600 f i preprocess.obj
 0001:00002600       ??$forward@AEBV?$_List_unchecked_iterator@V?$_List_val@U?$_List_simple_types@U?$pair@$$CBV?$basic_string@DU?$char_traits@D@std@@V?$allocator@D@2@@std@@I@std@@@std@@@std@@@std@@@std@@YAAEBV?$_List_unchecked_iterator@V?$_List_val@U?$_List_simple_types@U?$pair@$$CBV?$basic_string@DU?$char_traits@D@std@@V?$allocator@D@2@@std@@I@std@@@std@@@std@@@0@AEBV10@@Z 0000000140003600 f i preprocess.obj
 0001:00002600       ?_Get_second@?$_Compressed_pair@V?$allocator@U?$_List_node@U?$pair@$$CBIPEAUedge@@@std@@PEAX@std@@@std@@V?$_List_val@U?$_List_simple_types@U?$pair@$$CBIPEAUedge@@@std@@@std@@@2@$00@std@@QEBAAEBV?$_List_val@U?$_List_simple_types@U?$pair@$$CBIPEAUedge@@@std@@@std@@@2@XZ 0000000140003600 f i preprocess.obj
 0001:00002600       ?debug_info@?$__crt_win32_buffer@_WU__crt_win32_buffer_internal_dynamic_resizing@@@@QEBAAEBV__crt_win32_buffer_empty_debug_info@@XZ 0000000140003600 f i libucrtd:argv_wildcards.obj
 0001:00002600       ??$move@AEAV?$allocator@D@std@@@std@@YA$$QEAV?$allocator@D@0@AEAV10@@Z 0000000140003600 f i preprocess.obj
 0001:00002600       ?_Get_first@?$_Compressed_pair@V?$allocator@U?$_List_node@U?$pair@$$CBIPEAUedge@@@std@@PEAX@std@@@std@@V?$_List_val@U?$_List_simple_types@U?$pair@$$CBIPEAUedge@@@std@@@std@@@2@$00@std@@QEAAAEAV?$allocator@U?$_List_node@U?$pair@$$CBIPEAUedge@@@std@@PEAX@std@@@2@XZ 0000000140003600 f i preprocess.obj
 0001:00002600       ??0?$allocator@U?$pair@$$CBIPEAUedge@@@std@@@std@@QEAA@XZ 0000000140003600 f i preprocess.obj
 0001:00002600       ??$_Unfancy@D@std@@YAPEADPEAD@Z 0000000140003600 f i preprocess.obj
 0001:00002600       ??$forward@U?$pair@IPEAUedge@@@std@@@std@@YA$$QEAU?$pair@IPEAUedge@@@0@AEAU10@@Z 0000000140003600 f i preprocess.obj
 0001:00002600       ??$addressof@PEAU?$_List_node@U?$pair@$$CBIPEAUedge@@@std@@PEAX@std@@@std@@YAPEAPEAU?$_List_node@U?$pair@$$CBIPEAUedge@@@std@@PEAX@0@AEAPEAU10@@Z 0000000140003600 f i preprocess.obj
 0001:00002600       ??$forward@V?$_List_unchecked_iterator@V?$_List_val@U?$_List_simple_types@U?$pair@$$CBV?$basic_string@DU?$char_traits@D@std@@V?$allocator@D@2@@std@@I@std@@@std@@@std@@@std@@@std@@YA$$QEAV?$_List_unchecked_iterator@V?$_List_val@U?$_List_simple_types@U?$pair@$$CBV?$basic_string@DU?$char_traits@D@std@@V?$allocator@D@2@@std@@I@std@@@std@@@std@@@0@AEAV10@@Z 0000000140003600 f i preprocess.obj
 0001:00002600       ??$_Get_unwrapped@V?$_List_unchecked_iterator@V?$_List_val@U?$_List_simple_types@U?$pair@$$CBIPEAUedge@@@std@@@std@@@std@@@std@@@std@@YAPEAV?$_List_unchecked_iterator@V?$_List_val@U?$_List_simple_types@U?$pair@$$CBIPEAUedge@@@std@@@std@@@std@@@0@QEAV10@@Z 0000000140003600 f i preprocess.obj
 0001:00002600       ??$forward@U_One_then_variadic_args_t@std@@@std@@YA$$QEAU_One_then_variadic_args_t@0@AEAU10@@Z 0000000140003600 f i preprocess.obj
 0001:00002610       ??$_Get_size_of_n@$07@std@@YA_K_K@Z 0000000140003610 f i preprocess.obj
 0001:00002660       ??$_Get_size_of_n@$0BA@@std@@YA_K_K@Z 0000000140003660 f i preprocess.obj
 0001:000026b0       ??$_Get_size_of_n@$0CA@@std@@YA_K_K@Z 00000001400036b0 f i preprocess.obj
 0001:00002700       ??$_Get_size_of_n@$0EA@@std@@YA_K_K@Z 0000000140003700 f i preprocess.obj
 0001:00002750       ??$_Hash_array_representation@D@std@@YA_KQEBD_K@Z 0000000140003750 f i preprocess.obj
 0001:00002780       ??$_Hash_representation@I@std@@YA_KAEBI@Z 0000000140003780 f i preprocess.obj
 0001:000027b0       ??$_Idl_distance1@PEAV?$_List_unchecked_iterator@V?$_List_val@U?$_List_simple_types@U?$pair@$$CBIPEAUfile_edge@@@std@@@std@@@std@@@std@@PEAV12@@std@@YA_JAEBQEAV?$_List_unchecked_iterator@V?$_List_val@U?$_List_simple_types@U?$pair@$$CBIPEAUfile_edge@@@std@@@std@@@std@@@0@0Urandom_access_iterator_tag@0@@Z 00000001400037b0 f i preprocess.obj
 0001:000027b0       ??$_Idl_distance1@PEAV?$_List_unchecked_iterator@V?$_List_val@U?$_List_simple_types@U?$pair@$$CBIPEAUedge@@@std@@@std@@@std@@@std@@PEAV12@@std@@YA_JAEBQEAV?$_List_unchecked_iterator@V?$_List_val@U?$_List_simple_types@U?$pair@$$CBIPEAUedge@@@std@@@std@@@std@@@0@0Urandom_access_iterator_tag@0@@Z 00000001400037b0 f i preprocess.obj
 0001:000027b0       ??$_Idl_distance1@PEAV?$_List_unchecked_iterator@V?$_List_val@U?$_List_simple_types@U?$pair@$$CBV?$basic_string@DU?$char_traits@D@std@@V?$allocator@D@2@@std@@I@std@@@std@@@std@@@std@@PEAV12@@std@@YA_JAEBQEAV?$_List_unchecked_iterator@V?$_List_val@U?$_List_simple_types@U?$pair@$$CBV?$basic_string@DU?$char_traits@D@std@@V?$allocator@D@2@@std@@I@std@@@std@@@std@@@0@0Urandom_access_iterator_tag@0@@Z 00000001400037b0 f i preprocess.obj
 0001:000027e0       ??$_Idl_distance@PEAV?$_List_unchecked_iterator@V?$_List_val@U?$_List_simple_types@U?$pair@$$CBIPEAUfile_edge@@@std@@@std@@@std@@@std@@PEAV12@@std@@YA_JAEBQEAV?$_List_unchecked_iterator@V?$_List_val@U?$_List_simple_types@U?$pair@$$CBIPEAUfile_edge@@@std@@@std@@@std@@@0@0@Z 00000001400037e0 f i preprocess.obj
 0001:000027e0       ??$_Idl_distance@PEAV?$_List_unchecked_iterator@V?$_List_val@U?$_List_simple_types@U?$pair@$$CBIPEAUedge@@@std@@@std@@@std@@@std@@PEAV12@@std@@YA_JAEBQEAV?$_List_unchecked_iterator@V?$_List_val@U?$_List_simple_types@U?$pair@$$CBIPEAUedge@@@std@@@std@@@std@@@0@0@Z 00000001400037e0 f i preprocess.obj
 0001:000027e0       ??$_Idl_distance@PEAV?$_List_unchecked_iterator@V?$_List_val@U?$_List_simple_types@U?$pair@$$CBV?$basic_string@DU?$char_traits@D@std@@V?$allocator@D@2@@std@@I@std@@@std@@@std@@@std@@PEAV12@@std@@YA_JAEBQEAV?$_List_unchecked_iterator@V?$_List_val@U?$_List_simple_types@U?$pair@$$CBV?$basic_string@DU?$char_traits@D@std@@V?$allocator@D@2@@std@@I@std@@@std@@@std@@@0@0@Z 00000001400037e0 f i preprocess.obj
 0001:00002810       ??$_Insert@AEAU?$pair@$$CBIPEAUedge@@@std@@V?$_List_unchecked_iterator@V?$_List_val@U?$_List_simple_types@U?$pair@$$CBIPEAUedge@@@std@@@std@@@std@@@2@@?$_Hash@V?$_Umap_traits@IPEAUedge@@V?$_Uhash_compare@IU?$hash@I@std@@U?$equal_to@I@2@@std@@V?$allocator@U?$pair@$$CBIPEAUedge@@@std@@@3@$0A@@std@@@std@@IEAA?AU?$pair@V?$_List_iterator@V?$_List_val@U?$_List_simple_types@U?$pair@$$CBIPEAUedge@@@std@@@std@@@std@@@std@@_N@1@AEAU?$pair@$$CBIPEAUedge@@@1@V?$_List_unchecked_iterator@V?$_List_val@U?$_List_simple_types@U?$pair@$$CBIPEAUedge@@@std@@@std@@@std@@@1@@Z 0000000140003810 f i preprocess.obj
 0001:00002b50       ??$_Insert@AEAU?$pair@$$CBIPEAUfile_edge@@@std@@V?$_List_unchecked_iterator@V?$_List_val@U?$_List_simple_types@U?$pair@$$CBIPEAUfile_edge@@@std@@@std@@@std@@@2@@?$_Hash@V?$_Umap_traits@IPEAUfile_edge@@V?$_Uhash_compare@IU?$hash@I@std@@U?$equal_to@I@2@@std@@V?$allocator@U?$pair@$$CBIPEAUfile_edge@@@std@@@3@$0A@@std@@@std@@IEAA?AU?$pair@V?$_List_iterator@V?$_List_val@U?$_List_simple_types@U?$pair@$$CBIPEAUfile_edge@@@std@@@std@@@std@@@std@@_N@1@AEAU?$pair@$$CBIPEAUfile_edge@@@1@V?$_List_unchecked_iterator@V?$_List_val@U?$_List_simple_types@U?$pair@$$CBIPEAUfile_edge@@@std@@@std@@@std@@@1@@Z 0000000140003b50 f i preprocess.obj
 0001:00002e90       ??$_Insert@AEAU?$pair@$$CBV?$basic_string@DU?$char_traits@D@std@@V?$allocator@D@2@@std@@I@std@@V?$_List_unchecked_iterator@V?$_List_val@U?$_List_simple_types@U?$pair@$$CBV?$basic_string@DU?$char_traits@D@std@@V?$allocator@D@2@@std@@I@std@@@std@@@std@@@2@@?$_Hash@V?$_Umap_traits@V?$basic_string@DU?$char_traits@D@std@@V?$allocator@D@2@@std@@IV?$_Uhash_compare@V?$basic_string@DU?$char_traits@D@std@@V?$allocator@D@2@@std@@U?$hash@V?$basic_string@DU?$char_traits@D@std@@V?$allocator@D@2@@std@@@2@U?$equal_to@V?$basic_string@DU?$char_traits@D@std@@V?$allocator@D@2@@std@@@2@@2@V?$allocator@U?$pair@$$CBV?$basic_string@DU?$char_traits@D@std@@V?$allocator@D@2@@std@@I@std@@@2@$0A@@std@@@std@@IEAA?AU?$pair@V?$_List_iterator@V?$_List_val@U?$_List_simple_types@U?$pair@$$CBV?$basic_string@DU?$char_traits@D@std@@V?$allocator@D@2@@std@@I@std@@@std@@@std@@@std@@_N@1@AEAU?$pair@$$CBV?$basic_string@DU?$char_traits@D@std@@V?$allocator@D@2@@std@@I@1@V?$_List_unchecked_iterator@V?$_List_val@U?$_List_simple_types@U?$pair@$$CBV?$basic_string@DU?$char_traits@D@std@@V?$allocator@D@2@@std@@I@std@@@std@@@std@@@1@@Z 0000000140003e90 f i preprocess.obj
 0001:000031d0       ??$_Insert@U?$pair@IPEAUedge@@@std@@@?$list@U?$pair@$$CBIPEAUedge@@@std@@V?$allocator@U?$pair@$$CBIPEAUedge@@@std@@@2@@std@@QEAAXV?$_List_unchecked_const_iterator@V?$_List_val@U?$_List_simple_types@U?$pair@$$CBIPEAUedge@@@std@@@std@@@std@@U_Iterator_base0@2@@1@$$QEAU?$pair@IPEAUedge@@@1@@Z 00000001400041d0 f i preprocess.obj
 0001:000031d0       ??$_Insert@U?$pair@IPEAUfile_edge@@@std@@@?$list@U?$pair@$$CBIPEAUfile_edge@@@std@@V?$allocator@U?$pair@$$CBIPEAUfile_edge@@@std@@@2@@std@@QEAAXV?$_List_unchecked_const_iterator@V?$_List_val@U?$_List_simple_types@U?$pair@$$CBIPEAUfile_edge@@@std@@@std@@@std@@U_Iterator_base0@2@@1@$$QEAU?$pair@IPEAUfile_edge@@@1@@Z 00000001400041d0 f i preprocess.obj
 0001:00003250       ??$_Insert@U?$pair@V?$basic_string@DU?$char_traits@D@std@@V?$allocator@D@2@@std@@I@std@@@?$list@U?$pair@$$CBV?$basic_string@DU?$char_traits@D@std@@V?$allocator@D@2@@std@@I@std@@V?$allocator@U?$pair@$$CBV?$basic_string@DU?$char_traits@D@std@@V?$allocator@D@2@@std@@I@std@@@2@@std@@QEAAXV?$_List_unchecked_const_iterator@V?$_List_val@U?$_List_simple_types@U?$pair@$$CBV?$basic_string@DU?$char_traits@D@std@@V?$allocator@D@2@@std@@I@std@@@std@@@std@@U_Iterator_base0@2@@1@$$QEAU?$pair@V?$basic_string@DU?$char_traits@D@std@@V?$allocator@D@2@@std@@I@1@@Z 0000000140004250 f i preprocess.obj
 0001:000032d0       ??$_Max_value@_K@std@@YAAEB_KAEB_K0@Z 00000001400042d0 f i preprocess.obj
 0001:00003320       ??$_Min_value@_K@std@@YAAEB_KAEB_K0@Z 0000000140004320 f i preprocess.obj
 0001:00003370       ??$_Move_assign_list@V?$_Hash@V?$_Umap_traits@V?$basic_string@DU?$char_traits@D@std@@V?$allocator@D@2@@std@@IV?$_Uhash_compare@V?$basic_string@DU?$char_traits@D@std@@V?$allocator@D@2@@std@@U?$hash@V?$basic_string@DU?$char_traits@D@std@@V?$allocator@D@2@@std@@@2@U?$equal_to@V?$basic_string@DU?$char_traits@D@std@@V?$allocator@D@2@@std@@@2@@2@V?$allocator@U?$pair@$$CBV?$basic_string@DU?$char_traits@D@std@@V?$allocator@D@2@@std@@I@std@@@2@$0A@@std@@@std@@@?$_Hash@V?$_Umap_traits@V?$basic_string@DU?$char_traits@D@std@@V?$allocator@D@2@@std@@IV?$_Uhash_compare@V?$basic_string@DU?$char_traits@D@std@@V?$allocator@D@2@@std@@U?$hash@V?$basic_string@DU?$char_traits@D@std@@V?$allocator@D@2@@std@@@2@U?$equal_to@V?$basic_string@DU?$char_traits@D@std@@V?$allocator@D@2@@std@@@2@@2@V?$allocator@U?$pair@$$CBV?$basic_string@DU?$char_traits@D@std@@V?$allocator@D@2@@std@@I@std@@@2@$0A@@std@@@std@@QEAAXAEAV01@U?$integral_constant@_N$00@1@@Z 0000000140004370 f i preprocess.obj
 0001:000033b0       ??$_Pocma@V?$allocator@U?$_List_node@U?$pair@$$CBV?$basic_string@DU?$char_traits@D@std@@V?$allocator@D@2@@std@@I@std@@PEAX@std@@@std@@@std@@YAXAEAV?$allocator@U?$_List_node@U?$pair@$$CBV?$basic_string@DU?$char_traits@D@std@@V?$allocator@D@2@@std@@I@std@@PEAX@std@@@0@0@Z 00000001400043b0 f i preprocess.obj
 0001:000033b0       ??$_Pocma@V?$allocator@V?$_List_unchecked_iterator@V?$_List_val@U?$_List_simple_types@U?$pair@$$CBV?$basic_string@DU?$char_traits@D@std@@V?$allocator@D@2@@std@@I@std@@@std@@@std@@@std@@@std@@@std@@YAXAEAV?$allocator@V?$_List_unchecked_iterator@V?$_List_val@U?$_List_simple_types@U?$pair@$$CBV?$basic_string@DU?$char_traits@D@std@@V?$allocator@D@2@@std@@I@std@@@std@@@std@@@std@@@0@0@Z 00000001400043b0 f i preprocess.obj
 0001:000033e0       ??$_Pocma@V?$allocator@V?$_List_unchecked_iterator@V?$_List_val@U?$_List_simple_types@U?$pair@$$CBV?$basic_string@DU?$char_traits@D@std@@V?$allocator@D@2@@std@@I@std@@@std@@@std@@@std@@@std@@@std@@YAXAEAV?$allocator@V?$_List_unchecked_iterator@V?$_List_val@U?$_List_simple_types@U?$pair@$$CBV?$basic_string@DU?$char_traits@D@std@@V?$allocator@D@2@@std@@I@std@@@std@@@std@@@std@@@0@0U?$integral_constant@_N$00@0@@Z 00000001400043e0 f i preprocess.obj
 0001:000033e0       ??$_Pocma@V?$allocator@U?$_List_node@U?$pair@$$CBV?$basic_string@DU?$char_traits@D@std@@V?$allocator@D@2@@std@@I@std@@PEAX@std@@@std@@@std@@YAXAEAV?$allocator@U?$_List_node@U?$pair@$$CBV?$basic_string@DU?$char_traits@D@std@@V?$allocator@D@2@@std@@I@std@@PEAX@std@@@0@0U?$integral_constant@_N$00@0@@Z 00000001400043e0 f i preprocess.obj
 0001:00003410       ??$_Ptr_move_cat@V?$_List_unchecked_iterator@V?$_List_val@U?$_List_simple_types@U?$pair@$$CBV?$basic_string@DU?$char_traits@D@std@@V?$allocator@D@2@@std@@I@std@@@std@@@std@@@std@@V12@@std@@YA?AU_Trivially_copyable_ptr_iterator_tag@0@AEBQEAV?$_List_unchecked_iterator@V?$_List_val@U?$_List_simple_types@U?$pair@$$CBV?$basic_string@DU?$char_traits@D@std@@V?$allocator@D@2@@std@@I@std@@@std@@@std@@@0@0@Z 0000000140004410 f i preprocess.obj
 0001:00003410       ??$_Ptr_move_cat@V?$_List_unchecked_iterator@V?$_List_val@U?$_List_simple_types@U?$pair@$$CBIPEAUfile_edge@@@std@@@std@@@std@@@std@@V12@@std@@YA?AU_Trivially_copyable_ptr_iterator_tag@0@AEBQEAV?$_List_unchecked_iterator@V?$_List_val@U?$_List_simple_types@U?$pair@$$CBIPEAUfile_edge@@@std@@@std@@@std@@@0@0@Z 0000000140004410 f i preprocess.obj
 0001:00003410       ??$_Ptr_move_cat@V?$_List_unchecked_iterator@V?$_List_val@U?$_List_simple_types@U?$pair@$$CBIPEAUedge@@@std@@@std@@@std@@@std@@V12@@std@@YA?AU_Trivially_copyable_ptr_iterator_tag@0@AEBQEAV?$_List_unchecked_iterator@V?$_List_val@U?$_List_simple_types@U?$pair@$$CBIPEAUedge@@@std@@@std@@@std@@@0@0@Z 0000000140004410 f i preprocess.obj
 0001:00003430       ??$_Reallocate_for@V<lambda_66f57f934f28d61049862f64df852ff0>@@PEBD@?$basic_string@DU?$char_traits@D@std@@V?$allocator@D@2@@std@@QEAAAEAV01@_KV<lambda_66f57f934f28d61049862f64df852ff0>@@PEBD@Z 0000000140004430 f i preprocess.obj
 0001:00003570       ??$_Seek_wrapped@V?$_List_unchecked_iterator@V?$_List_val@U?$_List_simple_types@U?$pair@$$CBIPEAUfile_edge@@@std@@@std@@@std@@@std@@@std@@YAXAEAPEAV?$_List_unchecked_iterator@V?$_List_val@U?$_List_simple_types@U?$pair@$$CBIPEAUfile_edge@@@std@@@std@@@std@@@0@QEAV10@@Z 0000000140004570 f i preprocess.obj
 0001:00003570       ??$_Seek_wrapped@V?$_List_unchecked_iterator@V?$_List_val@U?$_List_simple_types@U?$pair@$$CBIPEAUedge@@@std@@@std@@@std@@@std@@@std@@YAXAEAPEAV?$_List_unchecked_iterator@V?$_List_val@U?$_List_simple_types@U?$pair@$$CBIPEAUedge@@@std@@@std@@@std@@@0@QEAV10@@Z 0000000140004570 f i preprocess.obj
 0001:00003570       ??$_Seek_wrapped@V?$_List_unchecked_iterator@V?$_List_val@U?$_List_simple_types@U?$pair@$$CBV?$basic_string@DU?$char_traits@D@std@@V?$allocator@D@2@@std@@I@std@@@std@@@std@@@std@@@std@@YAXAEAPEAV?$_List_unchecked_iterator@V?$_List_val@U?$_List_simple_types@U?$pair@$$CBV?$basic_string@DU?$char_traits@D@std@@V?$allocator@D@2@@std@@I@std@@@std@@@std@@@0@QEAV10@@Z 0000000140004570 f i preprocess.obj
 0001:00003590       ??$_Swap_adl@PEAU?$_List_node@U?$pair@$$CBV?$basic_string@DU?$char_traits@D@std@@V?$allocator@D@2@@std@@I@std@@PEAX@std@@@std@@YAXAEAPEAU?$_List_node@U?$pair@$$CBV?$basic_string@DU?$char_traits@D@std@@V?$allocator@D@2@@std@@I@std@@PEAX@0@0@Z 0000000140004590 f i preprocess.obj
 0001:000035c0       ??$_Traits_equal@U?$char_traits@D@std@@@std@@YA_NQEBD_K01@Z 00000001400045c0 f i preprocess.obj
 0001:00003620       ??$_Uninit_alloc_fill_n1@PEAV?$_List_unchecked_iterator@V?$_List_val@U?$_List_simple_types@U?$pair@$$CBIPEAUedge@@@std@@@std@@@std@@@std@@_KV?$allocator@V?$_List_unchecked_iterator@V?$_List_val@U?$_List_simple_types@U?$pair@$$CBIPEAUedge@@@std@@@std@@@std@@@std@@@2@@std@@YAPEAV?$_List_unchecked_iterator@V?$_List_val@U?$_List_simple_types@U?$pair@$$CBIPEAUedge@@@std@@@std@@@std@@@0@QEAV10@_KAEBV10@AEAV?$allocator@V?$_List_unchecked_iterator@V?$_List_val@U?$_List_simple_types@U?$pair@$$CBIPEAUedge@@@std@@@std@@@std@@@std@@@0@U?$integral_constant@_N$0A@@0@@Z 0000000140004620 f i preprocess.obj
 0001:00003620       ??$_Uninit_alloc_fill_n1@PEAV?$_List_unchecked_iterator@V?$_List_val@U?$_List_simple_types@U?$pair@$$CBIPEAUfile_edge@@@std@@@std@@@std@@@std@@_KV?$allocator@V?$_List_unchecked_iterator@V?$_List_val@U?$_List_simple_types@U?$pair@$$CBIPEAUfile_edge@@@std@@@std@@@std@@@std@@@2@@std@@YAPEAV?$_List_unchecked_iterator@V?$_List_val@U?$_List_simple_types@U?$pair@$$CBIPEAUfile_edge@@@std@@@std@@@std@@@0@QEAV10@_KAEBV10@AEAV?$allocator@V?$_List_unchecked_iterator@V?$_List_val@U?$_List_simple_types@U?$pair@$$CBIPEAUfile_edge@@@std@@@std@@@std@@@std@@@0@U?$integral_constant@_N$0A@@0@@Z 0000000140004620 f i preprocess.obj
 0001:00003620       ??$_Uninit_alloc_fill_n1@PEAV?$_List_unchecked_iterator@V?$_List_val@U?$_List_simple_types@U?$pair@$$CBV?$basic_string@DU?$char_traits@D@std@@V?$allocator@D@2@@std@@I@std@@@std@@@std@@@std@@_KV?$allocator@V?$_List_unchecked_iterator@V?$_List_val@U?$_List_simple_types@U?$pair@$$CBV?$basic_string@DU?$char_traits@D@std@@V?$allocator@D@2@@std@@I@std@@@std@@@std@@@std@@@2@@std@@YAPEAV?$_List_unchecked_iterator@V?$_List_val@U?$_List_simple_types@U?$pair@$$CBV?$basic_string@DU?$char_traits@D@std@@V?$allocator@D@2@@std@@I@std@@@std@@@std@@@0@QEAV10@_KAEBV10@AEAV?$allocator@V?$_List_unchecked_iterator@V?$_List_val@U?$_List_simple_types@U?$pair@$$CBV?$basic_string@DU?$char_traits@D@std@@V?$allocator@D@2@@std@@I@std@@@std@@@std@@@std@@@0@U?$integral_constant@_N$0A@@0@@Z 0000000140004620 f i preprocess.obj
 0001:000036b0       ??$_Uninitialized_fill_n@PEAV?$_List_unchecked_iterator@V?$_List_val@U?$_List_simple_types@U?$pair@$$CBIPEAUedge@@@std@@@std@@@std@@@std@@_KV?$allocator@V?$_List_unchecked_iterator@V?$_List_val@U?$_List_simple_types@U?$pair@$$CBIPEAUedge@@@std@@@std@@@std@@@std@@@2@@std@@YAPEAV?$_List_unchecked_iterator@V?$_List_val@U?$_List_simple_types@U?$pair@$$CBIPEAUedge@@@std@@@std@@@std@@@0@QEAV10@_KAEBV10@AEAV?$allocator@V?$_List_unchecked_iterator@V?$_List_val@U?$_List_simple_types@U?$pair@$$CBIPEAUedge@@@std@@@std@@@std@@@std@@@0@@Z 00000001400046b0 f i preprocess.obj
 0001:000036b0       ??$_Uninitialized_fill_n@PEAV?$_List_unchecked_iterator@V?$_List_val@U?$_List_simple_types@U?$pair@$$CBIPEAUfile_edge@@@std@@@std@@@std@@@std@@_KV?$allocator@V?$_List_unchecked_iterator@V?$_List_val@U?$_List_simple_types@U?$pair@$$CBIPEAUfile_edge@@@std@@@std@@@std@@@std@@@2@@std@@YAPEAV?$_List_unchecked_iterator@V?$_List_val@U?$_List_simple_types@U?$pair@$$CBIPEAUfile_edge@@@std@@@std@@@std@@@0@QEAV10@_KAEBV10@AEAV?$allocator@V?$_List_unchecked_iterator@V?$_List_val@U?$_List_simple_types@U?$pair@$$CBIPEAUfile_edge@@@std@@@std@@@std@@@std@@@0@@Z 00000001400046b0 f i preprocess.obj
 0001:000036b0       ??$_Uninitialized_fill_n@PEAV?$_List_unchecked_iterator@V?$_List_val@U?$_List_simple_types@U?$pair@$$CBV?$basic_string@DU?$char_traits@D@std@@V?$allocator@D@2@@std@@I@std@@@std@@@std@@@std@@_KV?$allocator@V?$_List_unchecked_iterator@V?$_List_val@U?$_List_simple_types@U?$pair@$$CBV?$basic_string@DU?$char_traits@D@std@@V?$allocator@D@2@@std@@I@std@@@std@@@std@@@std@@@2@@std@@YAPEAV?$_List_unchecked_iterator@V?$_List_val@U?$_List_simple_types@U?$pair@$$CBV?$basic_string@DU?$char_traits@D@std@@V?$allocator@D@2@@std@@I@std@@@std@@@std@@@0@QEAV10@_KAEBV10@AEAV?$allocator@V?$_List_unchecked_iterator@V?$_List_val@U?$_List_simple_types@U?$pair@$$CBV?$basic_string@DU?$char_traits@D@std@@V?$allocator@D@2@@std@@I@std@@@std@@@std@@@std@@@0@@Z 00000001400046b0 f i preprocess.obj
 0001:00003710       ??$_Uninitialized_move@PEAV?$_List_unchecked_iterator@V?$_List_val@U?$_List_simple_types@U?$pair@$$CBV?$basic_string@DU?$char_traits@D@std@@V?$allocator@D@2@@std@@I@std@@@std@@@std@@@std@@PEAV12@V?$allocator@V?$_List_unchecked_iterator@V?$_List_val@U?$_List_simple_types@U?$pair@$$CBV?$basic_string@DU?$char_traits@D@std@@V?$allocator@D@2@@std@@I@std@@@std@@@std@@@std@@@2@@std@@YAPEAV?$_List_unchecked_iterator@V?$_List_val@U?$_List_simple_types@U?$pair@$$CBV?$basic_string@DU?$char_traits@D@std@@V?$allocator@D@2@@std@@I@std@@@std@@@std@@@0@QEAV10@0PEAV10@AEAV?$allocator@V?$_List_unchecked_iterator@V?$_List_val@U?$_List_simple_types@U?$pair@$$CBV?$basic_string@DU?$char_traits@D@std@@V?$allocator@D@2@@std@@I@std@@@std@@@std@@@std@@@0@@Z 0000000140004710 f i preprocess.obj
 0001:00003710       ??$_Uninitialized_move@PEAV?$_List_unchecked_iterator@V?$_List_val@U?$_List_simple_types@U?$pair@$$CBIPEAUedge@@@std@@@std@@@std@@@std@@PEAV12@V?$allocator@V?$_List_unchecked_iterator@V?$_List_val@U?$_List_simple_types@U?$pair@$$CBIPEAUedge@@@std@@@std@@@std@@@std@@@2@@std@@YAPEAV?$_List_unchecked_iterator@V?$_List_val@U?$_List_simple_types@U?$pair@$$CBIPEAUedge@@@std@@@std@@@std@@@0@QEAV10@0PEAV10@AEAV?$allocator@V?$_List_unchecked_iterator@V?$_List_val@U?$_List_simple_types@U?$pair@$$CBIPEAUedge@@@std@@@std@@@std@@@std@@@0@@Z 0000000140004710 f i preprocess.obj
 0001:00003710       ??$_Uninitialized_move@PEAV?$_List_unchecked_iterator@V?$_List_val@U?$_List_simple_types@U?$pair@$$CBIPEAUfile_edge@@@std@@@std@@@std@@@std@@PEAV12@V?$allocator@V?$_List_unchecked_iterator@V?$_List_val@U?$_List_simple_types@U?$pair@$$CBIPEAUfile_edge@@@std@@@std@@@std@@@std@@@2@@std@@YAPEAV?$_List_unchecked_iterator@V?$_List_val@U?$_List_simple_types@U?$pair@$$CBIPEAUfile_edge@@@std@@@std@@@std@@@0@QEAV10@0PEAV10@AEAV?$allocator@V?$_List_unchecked_iterator@V?$_List_val@U?$_List_simple_types@U?$pair@$$CBIPEAUfile_edge@@@std@@@std@@@std@@@std@@@0@@Z 0000000140004710 f i preprocess.obj
 0001:000037e0       ??$_Uninitialized_move_al_unchecked@PEAV?$_List_unchecked_iterator@V?$_List_val@U?$_List_simple_types@U?$pair@$$CBIPEAUedge@@@std@@@std@@@std@@@std@@PEAV12@V?$allocator@V?$_List_unchecked_iterator@V?$_List_val@U?$_List_simple_types@U?$pair@$$CBIPEAUedge@@@std@@@std@@@std@@@std@@@2@@std@@YAPEAV?$_List_unchecked_iterator@V?$_List_val@U?$_List_simple_types@U?$pair@$$CBIPEAUedge@@@std@@@std@@@std@@@0@PEAV10@QEAV10@1AEAV?$allocator@V?$_List_unchecked_iterator@V?$_List_val@U?$_List_simple_types@U?$pair@$$CBIPEAUedge@@@std@@@std@@@std@@@std@@@0@U_General_ptr_iterator_tag@0@U_Unused_parameter@0@@Z 00000001400047e0 f i preprocess.obj
 0001:000037e0       ??$_Uninitialized_move_al_unchecked@PEAV?$_List_unchecked_iterator@V?$_List_val@U?$_List_simple_types@U?$pair@$$CBV?$basic_string@DU?$char_traits@D@std@@V?$allocator@D@2@@std@@I@std@@@std@@@std@@@std@@PEAV12@V?$allocator@V?$_List_unchecked_iterator@V?$_List_val@U?$_List_simple_types@U?$pair@$$CBV?$basic_string@DU?$char_traits@D@std@@V?$allocator@D@2@@std@@I@std@@@std@@@std@@@std@@@2@@std@@YAPEAV?$_List_unchecked_iterator@V?$_List_val@U?$_List_simple_types@U?$pair@$$CBV?$basic_string@DU?$char_traits@D@std@@V?$allocator@D@2@@std@@I@std@@@std@@@std@@@0@PEAV10@QEAV10@1AEAV?$allocator@V?$_List_unchecked_iterator@V?$_List_val@U?$_List_simple_types@U?$pair@$$CBV?$basic_string@DU?$char_traits@D@std@@V?$allocator@D@2@@std@@I@std@@@std@@@std@@@std@@@0@U_General_ptr_iterator_tag@0@U_Unused_parameter@0@@Z 00000001400047e0 f i preprocess.obj
 0001:000037e0       ??$_Uninitialized_move_al_unchecked@PEAV?$_List_unchecked_iterator@V?$_List_val@U?$_List_simple_types@U?$pair@$$CBIPEAUfile_edge@@@std@@@std@@@std@@@std@@PEAV12@V?$allocator@V?$_List_unchecked_iterator@V?$_List_val@U?$_List_simple_types@U?$pair@$$CBIPEAUfile_edge@@@std@@@std@@@std@@@std@@@2@@std@@YAPEAV?$_List_unchecked_iterator@V?$_List_val@U?$_List_simple_types@U?$pair@$$CBIPEAUfile_edge@@@std@@@std@@@std@@@0@PEAV10@QEAV10@1AEAV?$allocator@V?$_List_unchecked_iterator@V?$_List_val@U?$_List_simple_types@U?$pair@$$CBIPEAUfile_edge@@@std@@@std@@@std@@@std@@@0@U_General_ptr_iterator_tag@0@U_Unused_parameter@0@@Z 00000001400047e0 f i preprocess.obj
 0001:00003870       ??$construct@PEAU?$_List_node@U?$pair@$$CBIPEAUedge@@@std@@PEAX@std@@AEAPEAU12@@?$_Default_allocator_traits@V?$allocator@U?$_List_node@U?$pair@$$CBIPEAUedge@@@std@@PEAX@std@@@std@@@std@@SAXAEAV?$allocator@U?$_List_node@U?$pair@$$CBIPEAUedge@@@std@@PEAX@std@@@1@QEAPEAU?$_List_node@U?$pair@$$CBIPEAUedge@@@std@@PEAX@1@AEAPEAU31@@Z 0000000140004870 f i preprocess.obj
 0001:00003870       ??$construct@PEAU?$_List_node@U?$pair@$$CBV?$basic_string@DU?$char_traits@D@std@@V?$allocator@D@2@@std@@I@std@@PEAX@std@@AEAPEAU12@@?$_Default_allocator_traits@V?$allocator@U?$_List_node@U?$pair@$$CBV?$basic_string@DU?$char_traits@D@std@@V?$allocator@D@2@@std@@I@std@@PEAX@std@@@std@@@std@@SAXAEAV?$allocator@U?$_List_node@U?$pair@$$CBV?$basic_string@DU?$char_traits@D@std@@V?$allocator@D@2@@std@@I@std@@PEAX@std@@@1@QEAPEAU?$_List_node@U?$pair@$$CBV?$basic_string@DU?$char_traits@D@std@@V?$allocator@D@2@@std@@I@std@@PEAX@1@AEAPEAU31@@Z 0000000140004870 f i preprocess.obj
 0001:00003870       ??$construct@PEAU?$_List_node@U?$pair@$$CBIPEAUfile_edge@@@std@@PEAX@std@@AEAPEAU12@@?$_Default_allocator_traits@V?$allocator@U?$_List_node@U?$pair@$$CBIPEAUfile_edge@@@std@@PEAX@std@@@std@@@std@@SAXAEAV?$allocator@U?$_List_node@U?$pair@$$CBIPEAUfile_edge@@@std@@PEAX@std@@@1@QEAPEAU?$_List_node@U?$pair@$$CBIPEAUfile_edge@@@std@@PEAX@1@AEAPEAU31@@Z 0000000140004870 f i preprocess.obj
 0001:00003870       ??$construct@PEADAEBQEAD@?$_Default_allocator_traits@V?$allocator@D@std@@@std@@SAXAEAV?$allocator@D@1@QEAPEADAEBQEAD@Z 0000000140004870 f i preprocess.obj
 0001:000038c0       ??$construct@U?$pair@$$CBIPEAUedge@@@std@@U?$pair@IPEAUedge@@@2@@?$_Default_allocator_traits@V?$allocator@U?$_List_node@U?$pair@$$CBIPEAUedge@@@std@@PEAX@std@@@std@@@std@@SAXAEAV?$allocator@U?$_List_node@U?$pair@$$CBIPEAUedge@@@std@@PEAX@std@@@1@QEAU?$pair@$$CBIPEAUedge@@@1@$$QEAU?$pair@IPEAUedge@@@1@@Z 00000001400048c0 f i preprocess.obj
 0001:000038c0       ??$construct@U?$pair@$$CBIPEAUfile_edge@@@std@@U?$pair@IPEAUfile_edge@@@2@@?$_Default_allocator_traits@V?$allocator@U?$_List_node@U?$pair@$$CBIPEAUfile_edge@@@std@@PEAX@std@@@std@@@std@@SAXAEAV?$allocator@U?$_List_node@U?$pair@$$CBIPEAUfile_edge@@@std@@PEAX@std@@@1@QEAU?$pair@$$CBIPEAUfile_edge@@@1@$$QEAU?$pair@IPEAUfile_edge@@@1@@Z 00000001400048c0 f i preprocess.obj
 0001:00003910       ??$construct@U?$pair@$$CBV?$basic_string@DU?$char_traits@D@std@@V?$allocator@D@2@@std@@I@std@@U?$pair@V?$basic_string@DU?$char_traits@D@std@@V?$allocator@D@2@@std@@I@2@@?$_Default_allocator_traits@V?$allocator@U?$_List_node@U?$pair@$$CBV?$basic_string@DU?$char_traits@D@std@@V?$allocator@D@2@@std@@I@std@@PEAX@std@@@std@@@std@@SAXAEAV?$allocator@U?$_List_node@U?$pair@$$CBV?$basic_string@DU?$char_traits@D@std@@V?$allocator@D@2@@std@@I@std@@PEAX@std@@@1@QEAU?$pair@$$CBV?$basic_string@DU?$char_traits@D@std@@V?$allocator@D@2@@std@@I@1@$$QEAU?$pair@V?$basic_string@DU?$char_traits@D@std@@V?$allocator@D@2@@std@@I@1@@Z 0000000140004910 f i preprocess.obj
 0001:00003960       ??$construct@U_Container_proxy@std@@U12@@?$_Default_allocator_traits@V?$allocator@U_Container_proxy@std@@@std@@@std@@SAXAEAV?$allocator@U_Container_proxy@std@@@1@QEAU_Container_proxy@1@$$QEAU31@@Z 0000000140004960 f i preprocess.obj
 0001:000039b0       ??$construct@V?$_List_unchecked_iterator@V?$_List_val@U?$_List_simple_types@U?$pair@$$CBIPEAUedge@@@std@@@std@@@std@@@std@@AEBV12@@?$_Default_allocator_traits@V?$allocator@V?$_List_unchecked_iterator@V?$_List_val@U?$_List_simple_types@U?$pair@$$CBIPEAUedge@@@std@@@std@@@std@@@std@@@std@@@std@@SAXAEAV?$allocator@V?$_List_unchecked_iterator@V?$_List_val@U?$_List_simple_types@U?$pair@$$CBIPEAUedge@@@std@@@std@@@std@@@std@@@1@QEAV?$_List_unchecked_iterator@V?$_List_val@U?$_List_simple_types@U?$pair@$$CBIPEAUedge@@@std@@@std@@@std@@@1@AEBV31@@Z 00000001400049b0 f i preprocess.obj
 0001:000039b0       ??$construct@V?$_List_unchecked_iterator@V?$_List_val@U?$_List_simple_types@U?$pair@$$CBIPEAUfile_edge@@@std@@@std@@@std@@@std@@V12@@?$_Default_allocator_traits@V?$allocator@V?$_List_unchecked_iterator@V?$_List_val@U?$_List_simple_types@U?$pair@$$CBIPEAUfile_edge@@@std@@@std@@@std@@@std@@@std@@@std@@SAXAEAV?$allocator@V?$_List_unchecked_iterator@V?$_List_val@U?$_List_simple_types@U?$pair@$$CBIPEAUfile_edge@@@std@@@std@@@std@@@std@@@1@QEAV?$_List_unchecked_iterator@V?$_List_val@U?$_List_simple_types@U?$pair@$$CBIPEAUfile_edge@@@std@@@std@@@std@@@1@$$QEAV31@@Z 00000001400049b0 f i preprocess.obj
 0001:000039b0       ??$construct@V?$_List_unchecked_iterator@V?$_List_val@U?$_List_simple_types@U?$pair@$$CBV?$basic_string@DU?$char_traits@D@std@@V?$allocator@D@2@@std@@I@std@@@std@@@std@@@std@@AEBV12@@?$_Default_allocator_traits@V?$allocator@V?$_List_unchecked_iterator@V?$_List_val@U?$_List_simple_types@U?$pair@$$CBV?$basic_string@DU?$char_traits@D@std@@V?$allocator@D@2@@std@@I@std@@@std@@@std@@@std@@@std@@@std@@SAXAEAV?$allocator@V?$_List_unchecked_iterator@V?$_List_val@U?$_List_simple_types@U?$pair@$$CBV?$basic_string@DU?$char_traits@D@std@@V?$allocator@D@2@@std@@I@std@@@std@@@std@@@std@@@1@QEAV?$_List_unchecked_iterator@V?$_List_val@U?$_List_simple_types@U?$pair@$$CBV?$basic_string@DU?$char_traits@D@std@@V?$allocator@D@2@@std@@I@std@@@std@@@std@@@1@AEBV31@@Z 00000001400049b0 f i preprocess.obj
 0001:000039b0       ??$construct@V?$_List_unchecked_iterator@V?$_List_val@U?$_List_simple_types@U?$pair@$$CBIPEAUedge@@@std@@@std@@@std@@@std@@V12@@?$_Default_allocator_traits@V?$allocator@V?$_List_unchecked_iterator@V?$_List_val@U?$_List_simple_types@U?$pair@$$CBIPEAUedge@@@std@@@std@@@std@@@std@@@std@@@std@@SAXAEAV?$allocator@V?$_List_unchecked_iterator@V?$_List_val@U?$_List_simple_types@U?$pair@$$CBIPEAUedge@@@std@@@std@@@std@@@std@@@1@QEAV?$_List_unchecked_iterator@V?$_List_val@U?$_List_simple_types@U?$pair@$$CBIPEAUedge@@@std@@@std@@@std@@@1@$$QEAV31@@Z 00000001400049b0 f i preprocess.obj
 0001:000039b0       ??$construct@V?$_List_unchecked_iterator@V?$_List_val@U?$_List_simple_types@U?$pair@$$CBIPEAUfile_edge@@@std@@@std@@@std@@@std@@AEBV12@@?$_Default_allocator_traits@V?$allocator@V?$_List_unchecked_iterator@V?$_List_val@U?$_List_simple_types@U?$pair@$$CBIPEAUfile_edge@@@std@@@std@@@std@@@std@@@std@@@std@@SAXAEAV?$allocator@V?$_List_unchecked_iterator@V?$_List_val@U?$_List_simple_types@U?$pair@$$CBIPEAUfile_edge@@@std@@@std@@@std@@@std@@@1@QEAV?$_List_unchecked_iterator@V?$_List_val@U?$_List_simple_types@U?$pair@$$CBIPEAUfile_edge@@@std@@@std@@@std@@@1@AEBV31@@Z 00000001400049b0 f i preprocess.obj
 0001:000039b0       ??$construct@V?$_List_unchecked_iterator@V?$_List_val@U?$_List_simple_types@U?$pair@$$CBV?$basic_string@DU?$char_traits@D@std@@V?$allocator@D@2@@std@@I@std@@@std@@@std@@@std@@V12@@?$_Default_allocator_traits@V?$allocator@V?$_List_unchecked_iterator@V?$_List_val@U?$_List_simple_types@U?$pair@$$CBV?$basic_string@DU?$char_traits@D@std@@V?$allocator@D@2@@std@@I@std@@@std@@@std@@@std@@@std@@@std@@SAXAEAV?$allocator@V?$_List_unchecked_iterator@V?$_List_val@U?$_List_simple_types@U?$pair@$$CBV?$basic_string@DU?$char_traits@D@std@@V?$allocator@D@2@@std@@I@std@@@std@@@std@@@std@@@1@QEAV?$_List_unchecked_iterator@V?$_List_val@U?$_List_simple_types@U?$pair@$$CBV?$basic_string@DU?$char_traits@D@std@@V?$allocator@D@2@@std@@I@std@@@std@@@std@@@1@$$QEAV31@@Z 00000001400049b0 f i preprocess.obj
 0001:00003a00       ??$destroy@U?$pair@$$CBIPEAUedge@@@std@@@?$_Default_allocator_traits@V?$allocator@U?$_List_node@U?$pair@$$CBIPEAUedge@@@std@@PEAX@std@@@std@@@std@@SAXAEAV?$allocator@U?$_List_node@U?$pair@$$CBIPEAUedge@@@std@@PEAX@std@@@1@QEAU?$pair@$$CBIPEAUedge@@@1@@Z 0000000140004a00 f i preprocess.obj
 0001:00003a00       ??$destroy@PEAU?$_List_node@U?$pair@$$CBIPEAUedge@@@std@@PEAX@std@@@?$_Default_allocator_traits@V?$allocator@U?$_List_node@U?$pair@$$CBIPEAUedge@@@std@@PEAX@std@@@std@@@std@@SAXAEAV?$allocator@U?$_List_node@U?$pair@$$CBIPEAUedge@@@std@@PEAX@std@@@1@QEAPEAU?$_List_node@U?$pair@$$CBIPEAUedge@@@std@@PEAX@1@@Z 0000000140004a00 f i preprocess.obj
 0001:00003a00       ??$destroy@PEAU?$_List_node@U?$pair@$$CBV?$basic_string@DU?$char_traits@D@std@@V?$allocator@D@2@@std@@I@std@@PEAX@std@@@?$_Default_allocator_traits@V?$allocator@U?$_List_node@U?$pair@$$CBV?$basic_string@DU?$char_traits@D@std@@V?$allocator@D@2@@std@@I@std@@PEAX@std@@@std@@@std@@SAXAEAV?$allocator@U?$_List_node@U?$pair@$$CBV?$basic_string@DU?$char_traits@D@std@@V?$allocator@D@2@@std@@I@std@@PEAX@std@@@1@QEAPEAU?$_List_node@U?$pair@$$CBV?$basic_string@DU?$char_traits@D@std@@V?$allocator@D@2@@std@@I@std@@PEAX@1@@Z 0000000140004a00 f i preprocess.obj
 0001:00003a00       ??$destroy@U_Container_proxy@std@@@?$_Default_allocator_traits@V?$allocator@U_Container_proxy@std@@@std@@@std@@SAXAEAV?$allocator@U_Container_proxy@std@@@1@QEAU_Container_proxy@1@@Z 0000000140004a00 f i preprocess.obj
 0001:00003a00       ?_Adopt@_Iterator_base0@std@@QEAAXPEBX@Z 0000000140004a00 f i preprocess.obj
 0001:00003a00       ??$destroy@PEAD@?$_Default_allocator_traits@V?$allocator@D@std@@@std@@SAXAEAV?$allocator@D@1@QEAPEAD@Z 0000000140004a00 f i preprocess.obj
 0001:00003a00       ?deallocate@__crt_win32_buffer_no_resizing@@SAXQEAXAEBV__crt_win32_buffer_empty_debug_info@@@Z 0000000140004a00 f i libucrtd:getmodulefilenamea.obj
 0001:00003a00       ??$destroy@PEAU?$_List_node@U?$pair@$$CBIPEAUfile_edge@@@std@@PEAX@std@@@?$_Default_allocator_traits@V?$allocator@U?$_List_node@U?$pair@$$CBIPEAUfile_edge@@@std@@PEAX@std@@@std@@@std@@SAXAEAV?$allocator@U?$_List_node@U?$pair@$$CBIPEAUfile_edge@@@std@@PEAX@std@@@1@QEAPEAU?$_List_node@U?$pair@$$CBIPEAUfile_edge@@@std@@PEAX@1@@Z 0000000140004a00 f i preprocess.obj
 0001:00003a00       ??$destroy@U?$pair@$$CBIPEAUfile_edge@@@std@@@?$_Default_allocator_traits@V?$allocator@U?$_List_node@U?$pair@$$CBIPEAUfile_edge@@@std@@PEAX@std@@@std@@@std@@SAXAEAV?$allocator@U?$_List_node@U?$pair@$$CBIPEAUfile_edge@@@std@@PEAX@std@@@1@QEAU?$pair@$$CBIPEAUfile_edge@@@1@@Z 0000000140004a00 f i preprocess.obj
 0001:00003a10       ??$destroy@U?$pair@$$CBV?$basic_string@DU?$char_traits@D@std@@V?$allocator@D@2@@std@@I@std@@@?$_Default_allocator_traits@V?$allocator@U?$_List_node@U?$pair@$$CBV?$basic_string@DU?$char_traits@D@std@@V?$allocator@D@2@@std@@I@std@@PEAX@std@@@std@@@std@@SAXAEAV?$allocator@U?$_List_node@U?$pair@$$CBV?$basic_string@DU?$char_traits@D@std@@V?$allocator@D@2@@std@@I@std@@PEAX@std@@@1@QEAU?$pair@$$CBV?$basic_string@DU?$char_traits@D@std@@V?$allocator@D@2@@std@@I@1@@Z 0000000140004a10 f i preprocess.obj
 0001:00003a30       ??$emplace@U?$pair@IPEAUedge@@@std@@@?$_Hash@V?$_Umap_traits@IPEAUedge@@V?$_Uhash_compare@IU?$hash@I@std@@U?$equal_to@I@2@@std@@V?$allocator@U?$pair@$$CBIPEAUedge@@@std@@@3@$0A@@std@@@std@@QEAA?AU?$pair@V?$_List_iterator@V?$_List_val@U?$_List_simple_types@U?$pair@$$CBIPEAUedge@@@std@@@std@@@std@@@std@@_N@1@$$QEAU?$pair@IPEAUedge@@@1@@Z 0000000140004a30 f i preprocess.obj
 0001:00003ac0       ??$emplace@U?$pair@IPEAUfile_edge@@@std@@@?$_Hash@V?$_Umap_traits@IPEAUfile_edge@@V?$_Uhash_compare@IU?$hash@I@std@@U?$equal_to@I@2@@std@@V?$allocator@U?$pair@$$CBIPEAUfile_edge@@@std@@@3@$0A@@std@@@std@@QEAA?AU?$pair@V?$_List_iterator@V?$_List_val@U?$_List_simple_types@U?$pair@$$CBIPEAUfile_edge@@@std@@@std@@@std@@@std@@_N@1@$$QEAU?$pair@IPEAUfile_edge@@@1@@Z 0000000140004ac0 f i preprocess.obj
 0001:00003b50       ??$emplace@U?$pair@V?$basic_string@DU?$char_traits@D@std@@V?$allocator@D@2@@std@@I@std@@@?$_Hash@V?$_Umap_traits@V?$basic_string@DU?$char_traits@D@std@@V?$allocator@D@2@@std@@IV?$_Uhash_compare@V?$basic_string@DU?$char_traits@D@std@@V?$allocator@D@2@@std@@U?$hash@V?$basic_string@DU?$char_traits@D@std@@V?$allocator@D@2@@std@@@2@U?$equal_to@V?$basic_string@DU?$char_traits@D@std@@V?$allocator@D@2@@std@@@2@@2@V?$allocator@U?$pair@$$CBV?$basic_string@DU?$char_traits@D@std@@V?$allocator@D@2@@std@@I@std@@@2@$0A@@std@@@std@@QEAA?AU?$pair@V?$_List_iterator@V?$_List_val@U?$_List_simple_types@U?$pair@$$CBV?$basic_string@DU?$char_traits@D@std@@V?$allocator@D@2@@std@@I@std@@@std@@@std@@@std@@_N@1@$$QEAU?$pair@V?$basic_string@DU?$char_traits@D@std@@V?$allocator@D@2@@std@@I@1@@Z 0000000140004b50 f i preprocess.obj
 0001:00003be0       ??$emplace_front@U?$pair@IPEAUfile_edge@@@std@@@?$list@U?$pair@$$CBIPEAUfile_edge@@@std@@V?$allocator@U?$pair@$$CBIPEAUfile_edge@@@std@@@2@@std@@QEAAX$$QEAU?$pair@IPEAUfile_edge@@@1@@Z 0000000140004be0 f i preprocess.obj
 0001:00003be0       ??$emplace_front@U?$pair@IPEAUedge@@@std@@@?$list@U?$pair@$$CBIPEAUedge@@@std@@V?$allocator@U?$pair@$$CBIPEAUedge@@@std@@@2@@std@@QEAAX$$QEAU?$pair@IPEAUedge@@@1@@Z 0000000140004be0 f i preprocess.obj
 0001:00003c30       ??$emplace_front@U?$pair@V?$basic_string@DU?$char_traits@D@std@@V?$allocator@D@2@@std@@I@std@@@?$list@U?$pair@$$CBV?$basic_string@DU?$char_traits@D@std@@V?$allocator@D@2@@std@@I@std@@V?$allocator@U?$pair@$$CBV?$basic_string@DU?$char_traits@D@std@@V?$allocator@D@2@@std@@I@std@@@2@@std@@QEAAX$$QEAU?$pair@V?$basic_string@DU?$char_traits@D@std@@V?$allocator@D@2@@std@@I@1@@Z 0000000140004c30 f i preprocess.obj
 0001:00003c80       ??$erase@V?$_List_iterator@V?$_List_val@U?$_List_simple_types@U?$pair@$$CBIPEAUedge@@@std@@@std@@@std@@@std@@X@?$_Hash@V?$_Umap_traits@IPEAUedge@@V?$_Uhash_compare@IU?$hash@I@std@@U?$equal_to@I@2@@std@@V?$allocator@U?$pair@$$CBIPEAUedge@@@std@@@3@$0A@@std@@@std@@QEAA?AV?$_List_iterator@V?$_List_val@U?$_List_simple_types@U?$pair@$$CBIPEAUedge@@@std@@@std@@@std@@@1@V21@@Z 0000000140004c80 f i preprocess.obj
 0001:00003d00       ??$erase@V?$_List_iterator@V?$_List_val@U?$_List_simple_types@U?$pair@$$CBIPEAUfile_edge@@@std@@@std@@@std@@@std@@X@?$_Hash@V?$_Umap_traits@IPEAUfile_edge@@V?$_Uhash_compare@IU?$hash@I@std@@U?$equal_to@I@2@@std@@V?$allocator@U?$pair@$$CBIPEAUfile_edge@@@std@@@3@$0A@@std@@@std@@QEAA?AV?$_List_iterator@V?$_List_val@U?$_List_simple_types@U?$pair@$$CBIPEAUfile_edge@@@std@@@std@@@std@@@1@V21@@Z 0000000140004d00 f i preprocess.obj
 0001:00003d80       ??$erase@V?$_List_iterator@V?$_List_val@U?$_List_simple_types@U?$pair@$$CBV?$basic_string@DU?$char_traits@D@std@@V?$allocator@D@2@@std@@I@std@@@std@@@std@@@std@@X@?$_Hash@V?$_Umap_traits@V?$basic_string@DU?$char_traits@D@std@@V?$allocator@D@2@@std@@IV?$_Uhash_compare@V?$basic_string@DU?$char_traits@D@std@@V?$allocator@D@2@@std@@U?$hash@V?$basic_string@DU?$char_traits@D@std@@V?$allocator@D@2@@std@@@2@U?$equal_to@V?$basic_string@DU?$char_traits@D@std@@V?$allocator@D@2@@std@@@2@@2@V?$allocator@U?$pair@$$CBV?$basic_string@DU?$char_traits@D@std@@V?$allocator@D@2@@std@@I@std@@@2@$0A@@std@@@std@@QEAA?AV?$_List_iterator@V?$_List_val@U?$_List_simple_types@U?$pair@$$CBV?$basic_string@DU?$char_traits@D@std@@V?$allocator@D@2@@std@@I@std@@@std@@@std@@@1@V21@@Z 0000000140004d80 f i preprocess.obj
 0001:00003e00       ??$insert@U?$pair@IPEAUedge@@@std@@X@?$unordered_map@IPEAUedge@@U?$hash@I@std@@U?$equal_to@I@3@V?$allocator@U?$pair@$$CBIPEAUedge@@@std@@@3@@std@@QEAA?AU?$pair@V?$_List_iterator@V?$_List_val@U?$_List_simple_types@U?$pair@$$CBIPEAUedge@@@std@@@std@@@std@@@std@@_N@1@$$QEAU?$pair@IPEAUedge@@@1@@Z 0000000140004e00 f i preprocess.obj
 0001:00003e50       ??$insert@U?$pair@IPEAUfile_edge@@@std@@X@?$unordered_map@IPEAUfile_edge@@U?$hash@I@std@@U?$equal_to@I@3@V?$allocator@U?$pair@$$CBIPEAUfile_edge@@@std@@@3@@std@@QEAA?AU?$pair@V?$_List_iterator@V?$_List_val@U?$_List_simple_types@U?$pair@$$CBIPEAUfile_edge@@@std@@@std@@@std@@@std@@_N@1@$$QEAU?$pair@IPEAUfile_edge@@@1@@Z 0000000140004e50 f i preprocess.obj
 0001:00003ea0       ??$insert@U?$pair@V?$basic_string@DU?$char_traits@D@std@@V?$allocator@D@2@@std@@I@std@@X@?$unordered_map@V?$basic_string@DU?$char_traits@D@std@@V?$allocator@D@2@@std@@IU?$hash@V?$basic_string@DU?$char_traits@D@std@@V?$allocator@D@2@@std@@@2@U?$equal_to@V?$basic_string@DU?$char_traits@D@std@@V?$allocator@D@2@@std@@@2@V?$allocator@U?$pair@$$CBV?$basic_string@DU?$char_traits@D@std@@V?$allocator@D@2@@std@@I@std@@@2@@std@@QEAA?AU?$pair@V?$_List_iterator@V?$_List_val@U?$_List_simple_types@U?$pair@$$CBV?$basic_string@DU?$char_traits@D@std@@V?$allocator@D@2@@std@@I@std@@@std@@@std@@@std@@_N@1@$$QEAU?$pair@V?$basic_string@DU?$char_traits@D@std@@V?$allocator@D@2@@std@@I@1@@Z 0000000140004ea0 f i preprocess.obj
 0001:00003ef0       ??$make_pair@AEAIAEAPEAUedge@@@std@@YA?AU?$pair@IPEAUedge@@@0@AEAIAEAPEAUedge@@@Z 0000000140004ef0 f i preprocess.obj
 0001:00003ef0       ??$make_pair@AEAIAEAPEAUfile_edge@@@std@@YA?AU?$pair@IPEAUfile_edge@@@0@AEAIAEAPEAUfile_edge@@@Z 0000000140004ef0 f i preprocess.obj
 0001:00003f40       ??$make_pair@AEAV?$basic_string@DU?$char_traits@D@std@@V?$allocator@D@2@@std@@I@std@@YA?AU?$pair@V?$basic_string@DU?$char_traits@D@std@@V?$allocator@D@2@@std@@I@0@AEAV?$basic_string@DU?$char_traits@D@std@@V?$allocator@D@2@@0@$$QEAI@Z 0000000140004f40 f i preprocess.obj
 0001:00003f40       ??$make_pair@AEAV?$basic_string@DU?$char_traits@D@std@@V?$allocator@D@2@@std@@AEAI@std@@YA?AU?$pair@V?$basic_string@DU?$char_traits@D@std@@V?$allocator@D@2@@std@@I@0@AEAV?$basic_string@DU?$char_traits@D@std@@V?$allocator@D@2@@0@AEAI@Z 0000000140004f40 f i preprocess.obj
 0001:00003fa0       ??$swap@_KX@std@@YAXAEA_K0@Z 0000000140004fa0 f i preprocess.obj
 0001:00003fa0       ??$swap@PEAU?$_List_node@U?$pair@$$CBV?$basic_string@DU?$char_traits@D@std@@V?$allocator@D@2@@std@@I@std@@PEAX@std@@X@std@@YAXAEAPEAU?$_List_node@U?$pair@$$CBV?$basic_string@DU?$char_traits@D@std@@V?$allocator@D@2@@std@@I@std@@PEAX@0@0@Z 0000000140004fa0 f i preprocess.obj
 0001:00003ff0       ??0?$_Hash@V?$_Umap_traits@IPEAUfile_edge@@V?$_Uhash_compare@IU?$hash@I@std@@U?$equal_to@I@2@@std@@V?$allocator@U?$pair@$$CBIPEAUfile_edge@@@std@@@3@$0A@@std@@@std@@QEAA@AEBV?$_Uhash_compare@IU?$hash@I@std@@U?$equal_to@I@2@@1@AEBV?$allocator@U?$pair@$$CBIPEAUfile_edge@@@std@@@1@@Z 0000000140004ff0 f i preprocess.obj
 0001:00003ff0       ??0?$_Hash@V?$_Umap_traits@IPEAUedge@@V?$_Uhash_compare@IU?$hash@I@std@@U?$equal_to@I@2@@std@@V?$allocator@U?$pair@$$CBIPEAUedge@@@std@@@3@$0A@@std@@@std@@QEAA@AEBV?$_Uhash_compare@IU?$hash@I@std@@U?$equal_to@I@2@@1@AEBV?$allocator@U?$pair@$$CBIPEAUedge@@@std@@@1@@Z 0000000140004ff0 f i preprocess.obj
 0001:00004090       ??0?$_Hash@V?$_Umap_traits@V?$basic_string@DU?$char_traits@D@std@@V?$allocator@D@2@@std@@IV?$_Uhash_compare@V?$basic_string@DU?$char_traits@D@std@@V?$allocator@D@2@@std@@U?$hash@V?$basic_string@DU?$char_traits@D@std@@V?$allocator@D@2@@std@@@2@U?$equal_to@V?$basic_string@DU?$char_traits@D@std@@V?$allocator@D@2@@std@@@2@@2@V?$allocator@U?$pair@$$CBV?$basic_string@DU?$char_traits@D@std@@V?$allocator@D@2@@std@@I@std@@@2@$0A@@std@@@std@@QEAA@AEBV?$_Uhash_compare@V?$basic_string@DU?$char_traits@D@std@@V?$allocator@D@2@@std@@U?$hash@V?$basic_string@DU?$char_traits@D@std@@V?$allocator@D@2@@std@@@2@U?$equal_to@V?$basic_string@DU?$char_traits@D@std@@V?$allocator@D@2@@std@@@2@@1@AEBV?$allocator@U?$pair@$$CBV?$basic_string@DU?$char_traits@D@std@@V?$allocator@D@2@@std@@I@std@@@1@@Z 0000000140005090 f i preprocess.obj
 0001:00004130       ??0?$_List_const_iterator@V?$_List_val@U?$_List_simple_types@U?$pair@$$CBIPEAUfile_edge@@@std@@@std@@@std@@@std@@QEAA@$$QEAV01@@Z 0000000140005130 f i preprocess.obj
 0001:00004130       ??0?$_List_const_iterator@V?$_List_val@U?$_List_simple_types@U?$pair@$$CBV?$basic_string@DU?$char_traits@D@std@@V?$allocator@D@2@@std@@I@std@@@std@@@std@@@std@@QEAA@AEBV01@@Z 0000000140005130 f i preprocess.obj
 0001:00004130       ??0?$_List_const_iterator@V?$_List_val@U?$_List_simple_types@U?$pair@$$CBIPEAUedge@@@std@@@std@@@std@@@std@@QEAA@$$QEAV01@@Z 0000000140005130 f i preprocess.obj
 0001:00004130       ??0?$_List_const_iterator@V?$_List_val@U?$_List_simple_types@U?$pair@$$CBIPEAUfile_edge@@@std@@@std@@@std@@@std@@QEAA@AEBV01@@Z 0000000140005130 f i preprocess.obj
 0001:00004130       ??0?$_List_const_iterator@V?$_List_val@U?$_List_simple_types@U?$pair@$$CBIPEAUedge@@@std@@@std@@@std@@@std@@QEAA@AEBV01@@Z 0000000140005130 f i preprocess.obj
 0001:00004130       ??0?$_List_const_iterator@V?$_List_val@U?$_List_simple_types@U?$pair@$$CBV?$basic_string@DU?$char_traits@D@std@@V?$allocator@D@2@@std@@I@std@@@std@@@std@@@std@@QEAA@$$QEAV01@@Z 0000000140005130 f i preprocess.obj
 0001:00004160       ??0?$_List_const_iterator@V?$_List_val@U?$_List_simple_types@U?$pair@$$CBIPEAUedge@@@std@@@std@@@std@@@std@@QEAA@PEAU?$_List_node@U?$pair@$$CBIPEAUedge@@@std@@PEAX@1@PEBV?$_List_val@U?$_List_simple_types@U?$pair@$$CBIPEAUedge@@@std@@@std@@@1@@Z 0000000140005160 f i preprocess.obj
 0001:00004160       ??0?$_List_const_iterator@V?$_List_val@U?$_List_simple_types@U?$pair@$$CBIPEAUfile_edge@@@std@@@std@@@std@@@std@@QEAA@PEAU?$_List_node@U?$pair@$$CBIPEAUfile_edge@@@std@@PEAX@1@PEBV?$_List_val@U?$_List_simple_types@U?$pair@$$CBIPEAUfile_edge@@@std@@@std@@@1@@Z 0000000140005160 f i preprocess.obj
 0001:00004160       ??0?$_List_const_iterator@V?$_List_val@U?$_List_simple_types@U?$pair@$$CBV?$basic_string@DU?$char_traits@D@std@@V?$allocator@D@2@@std@@I@std@@@std@@@std@@@std@@QEAA@PEAU?$_List_node@U?$pair@$$CBV?$basic_string@DU?$char_traits@D@std@@V?$allocator@D@2@@std@@I@std@@PEAX@1@PEBV?$_List_val@U?$_List_simple_types@U?$pair@$$CBV?$basic_string@DU?$char_traits@D@std@@V?$allocator@D@2@@std@@I@std@@@std@@@1@@Z 0000000140005160 f i preprocess.obj
 0001:000041a0       ??0?$_List_iterator@V?$_List_val@U?$_List_simple_types@U?$pair@$$CBIPEAUedge@@@std@@@std@@@std@@@std@@QEAA@$$QEAV01@@Z 00000001400051a0 f i preprocess.obj
 0001:000041a0       ??0?$_List_iterator@V?$_List_val@U?$_List_simple_types@U?$pair@$$CBIPEAUfile_edge@@@std@@@std@@@std@@@std@@QEAA@$$QEAV01@@Z 00000001400051a0 f i preprocess.obj
 0001:000041a0       ??0?$_List_iterator@V?$_List_val@U?$_List_simple_types@U?$pair@$$CBV?$basic_string@DU?$char_traits@D@std@@V?$allocator@D@2@@std@@I@std@@@std@@@std@@@std@@QEAA@$$QEAV01@@Z 00000001400051a0 f i preprocess.obj
 0001:000041d0       ??0?$_List_iterator@V?$_List_val@U?$_List_simple_types@U?$pair@$$CBIPEAUfile_edge@@@std@@@std@@@std@@@std@@QEAA@PEAU?$_List_node@U?$pair@$$CBIPEAUfile_edge@@@std@@PEAX@1@PEBV?$_List_val@U?$_List_simple_types@U?$pair@$$CBIPEAUfile_edge@@@std@@@std@@@1@@Z 00000001400051d0 f i preprocess.obj
 0001:000041d0       ??0?$_List_iterator@V?$_List_val@U?$_List_simple_types@U?$pair@$$CBV?$basic_string@DU?$char_traits@D@std@@V?$allocator@D@2@@std@@I@std@@@std@@@std@@@std@@QEAA@PEAU?$_List_node@U?$pair@$$CBV?$basic_string@DU?$char_traits@D@std@@V?$allocator@D@2@@std@@I@std@@PEAX@1@PEBV?$_List_val@U?$_List_simple_types@U?$pair@$$CBV?$basic_string@DU?$char_traits@D@std@@V?$allocator@D@2@@std@@I@std@@@std@@@1@@Z 00000001400051d0 f i preprocess.obj
 0001:000041d0       ??0?$_List_iterator@V?$_List_val@U?$_List_simple_types@U?$pair@$$CBIPEAUedge@@@std@@@std@@@std@@@std@@QEAA@PEAU?$_List_node@U?$pair@$$CBIPEAUedge@@@std@@PEAX@1@PEBV?$_List_val@U?$_List_simple_types@U?$pair@$$CBIPEAUedge@@@std@@@std@@@1@@Z 00000001400051d0 f i preprocess.obj
 0001:00004210       ??0?$_List_unchecked_const_iterator@V?$_List_val@U?$_List_simple_types@U?$pair@$$CBIPEAUfile_edge@@@std@@@std@@@std@@U_Iterator_base0@2@@std@@QEAA@PEAU?$_List_node@U?$pair@$$CBIPEAUfile_edge@@@std@@PEAX@1@PEBV?$_List_val@U?$_List_simple_types@U?$pair@$$CBIPEAUfile_edge@@@std@@@std@@@1@@Z 0000000140005210 f i preprocess.obj
 0001:00004210       ??0?$_List_unchecked_const_iterator@V?$_List_val@U?$_List_simple_types@U?$pair@$$CBIPEAUedge@@@std@@@std@@@std@@U_Iterator_base0@2@@std@@QEAA@PEAU?$_List_node@U?$pair@$$CBIPEAUedge@@@std@@PEAX@1@PEBV?$_List_val@U?$_List_simple_types@U?$pair@$$CBIPEAUedge@@@std@@@std@@@1@@Z 0000000140005210 f i preprocess.obj
 0001:00004210       ??0?$_List_unchecked_const_iterator@V?$_List_val@U?$_List_simple_types@U?$pair@$$CBV?$basic_string@DU?$char_traits@D@std@@V?$allocator@D@2@@std@@I@std@@@std@@@std@@U_Iterator_base0@2@@std@@QEAA@PEAU?$_List_node@U?$pair@$$CBV?$basic_string@DU?$char_traits@D@std@@V?$allocator@D@2@@std@@I@std@@PEAX@1@PEBV?$_List_val@U?$_List_simple_types@U?$pair@$$CBV?$basic_string@DU?$char_traits@D@std@@V?$allocator@D@2@@std@@I@std@@@std@@@1@@Z 0000000140005210 f i preprocess.obj
 0001:00004250       ??0__crt_deferred_errno_cache@@QEAA@XZ 0000000140005250 f i libucrtd:output.obj
 0001:00004250       ??0?$_List_unchecked_const_iterator@V?$_List_val@U?$_List_simple_types@U?$pair@$$CBIPEAUfile_edge@@@std@@@std@@@std@@U_Iterator_base0@2@@std@@QEAA@XZ 0000000140005250 f i preprocess.obj
 0001:00004250       ??0__crt_stdio_stream@@QEAA@XZ 0000000140005250 f i libucrtd:stream.obj
 0001:00004250       ??0_Container_base12@std@@QEAA@XZ 0000000140005250 f i preprocess.obj
 0001:00004250       ??0?$_List_unchecked_const_iterator@V?$_List_val@U?$_List_simple_types@U?$pair@$$CBIPEAUedge@@@std@@@std@@@std@@U_Iterator_base0@2@@std@@QEAA@XZ 0000000140005250 f i preprocess.obj
 0001:00004250       ??0?$_List_unchecked_const_iterator@V?$_List_val@U?$_List_simple_types@U?$pair@$$CBV?$basic_string@DU?$char_traits@D@std@@V?$allocator@D@2@@std@@I@std@@@std@@@std@@U_Iterator_base0@2@@std@@QEAA@XZ 0000000140005250 f i preprocess.obj
 0001:00004270       ??0?$_List_unchecked_const_iterator@V?$_List_val@U?$_List_simple_types@U?$pair@$$CBV?$basic_string@DU?$char_traits@D@std@@V?$allocator@D@2@@std@@I@std@@@std@@@std@@U_Iterator_base12@2@@std@@QEAA@$$QEAV01@@Z 0000000140005270 f i preprocess.obj
 0001:00004270       ??0?$_List_unchecked_const_iterator@V?$_List_val@U?$_List_simple_types@U?$pair@$$CBV?$basic_string@DU?$char_traits@D@std@@V?$allocator@D@2@@std@@I@std@@@std@@@std@@U_Iterator_base12@2@@std@@QEAA@AEBV01@@Z 0000000140005270 f i preprocess.obj
 0001:00004270       ??0?$_List_unchecked_const_iterator@V?$_List_val@U?$_List_simple_types@U?$pair@$$CBIPEAUedge@@@std@@@std@@@std@@U_Iterator_base12@2@@std@@QEAA@$$QEAV01@@Z 0000000140005270 f i preprocess.obj
 0001:00004270       ??0?$_List_unchecked_const_iterator@V?$_List_val@U?$_List_simple_types@U?$pair@$$CBIPEAUfile_edge@@@std@@@std@@@std@@U_Iterator_base12@2@@std@@QEAA@$$QEAV01@@Z 0000000140005270 f i preprocess.obj
 0001:00004270       ??0?$_List_unchecked_const_iterator@V?$_List_val@U?$_List_simple_types@U?$pair@$$CBIPEAUedge@@@std@@@std@@@std@@U_Iterator_base12@2@@std@@QEAA@AEBV01@@Z 0000000140005270 f i preprocess.obj
 0001:00004270       ??0?$_List_unchecked_const_iterator@V?$_List_val@U?$_List_simple_types@U?$pair@$$CBIPEAUfile_edge@@@std@@@std@@@std@@U_Iterator_base12@2@@std@@QEAA@AEBV01@@Z 0000000140005270 f i preprocess.obj
 0001:000042b0       ??0?$_List_unchecked_const_iterator@V?$_List_val@U?$_List_simple_types@U?$pair@$$CBIPEAUfile_edge@@@std@@@std@@@std@@U_Iterator_base12@2@@std@@QEAA@PEAU?$_List_node@U?$pair@$$CBIPEAUfile_edge@@@std@@PEAX@1@PEBV?$_List_val@U?$_List_simple_types@U?$pair@$$CBIPEAUfile_edge@@@std@@@std@@@1@@Z 00000001400052b0 f i preprocess.obj
 0001:000042b0       ??0?$_List_unchecked_const_iterator@V?$_List_val@U?$_List_simple_types@U?$pair@$$CBIPEAUedge@@@std@@@std@@@std@@U_Iterator_base12@2@@std@@QEAA@PEAU?$_List_node@U?$pair@$$CBIPEAUedge@@@std@@PEAX@1@PEBV?$_List_val@U?$_List_simple_types@U?$pair@$$CBIPEAUedge@@@std@@@std@@@1@@Z 00000001400052b0 f i preprocess.obj
 0001:000042b0       ??0?$_List_unchecked_const_iterator@V?$_List_val@U?$_List_simple_types@U?$pair@$$CBV?$basic_string@DU?$char_traits@D@std@@V?$allocator@D@2@@std@@I@std@@@std@@@std@@U_Iterator_base12@2@@std@@QEAA@PEAU?$_List_node@U?$pair@$$CBV?$basic_string@DU?$char_traits@D@std@@V?$allocator@D@2@@std@@I@std@@PEAX@1@PEBV?$_List_val@U?$_List_simple_types@U?$pair@$$CBV?$basic_string@DU?$char_traits@D@std@@V?$allocator@D@2@@std@@I@std@@@std@@@1@@Z 00000001400052b0 f i preprocess.obj
 0001:00004300       ??0?$_List_unchecked_iterator@V?$_List_val@U?$_List_simple_types@U?$pair@$$CBIPEAUedge@@@std@@@std@@@std@@@std@@QEAA@PEAU?$_List_node@U?$pair@$$CBIPEAUedge@@@std@@PEAX@1@PEBV?$_List_val@U?$_List_simple_types@U?$pair@$$CBIPEAUedge@@@std@@@std@@@1@@Z 0000000140005300 f i preprocess.obj
 0001:00004300       ??0?$_List_unchecked_iterator@V?$_List_val@U?$_List_simple_types@U?$pair@$$CBV?$basic_string@DU?$char_traits@D@std@@V?$allocator@D@2@@std@@I@std@@@std@@@std@@@std@@QEAA@PEAU?$_List_node@U?$pair@$$CBV?$basic_string@DU?$char_traits@D@std@@V?$allocator@D@2@@std@@I@std@@PEAX@1@PEBV?$_List_val@U?$_List_simple_types@U?$pair@$$CBV?$basic_string@DU?$char_traits@D@std@@V?$allocator@D@2@@std@@I@std@@@std@@@1@@Z 0000000140005300 f i preprocess.obj
 0001:00004300       ??0?$_List_unchecked_iterator@V?$_List_val@U?$_List_simple_types@U?$pair@$$CBIPEAUfile_edge@@@std@@@std@@@std@@@std@@QEAA@PEAU?$_List_node@U?$pair@$$CBIPEAUfile_edge@@@std@@PEAX@1@PEBV?$_List_val@U?$_List_simple_types@U?$pair@$$CBIPEAUfile_edge@@@std@@@std@@@1@@Z 0000000140005300 f i preprocess.obj
 0001:00004340       ??0?$_List_unchecked_iterator@V?$_List_val@U?$_List_simple_types@U?$pair@$$CBIPEAUfile_edge@@@std@@@std@@@std@@@std@@QEAA@XZ 0000000140005340 f i preprocess.obj
 0001:00004340       ??0?$_List_unchecked_iterator@V?$_List_val@U?$_List_simple_types@U?$pair@$$CBIPEAUedge@@@std@@@std@@@std@@@std@@QEAA@XZ 0000000140005340 f i preprocess.obj
 0001:00004340       ??0?$_List_unchecked_iterator@V?$_List_val@U?$_List_simple_types@U?$pair@$$CBV?$basic_string@DU?$char_traits@D@std@@V?$allocator@D@2@@std@@I@std@@@std@@@std@@@std@@QEAA@XZ 0000000140005340 f i preprocess.obj
 0001:00004360       ??0?$_List_val@U?$_List_simple_types@U?$pair@$$CBIPEAUfile_edge@@@std@@@std@@@std@@QEAA@XZ 0000000140005360 f i preprocess.obj
 0001:00004360       ??0?$_List_val@U?$_List_simple_types@U?$pair@$$CBIPEAUedge@@@std@@@std@@@std@@QEAA@XZ 0000000140005360 f i preprocess.obj
 0001:00004360       ??0?$_List_val@U?$_List_simple_types@U?$pair@$$CBV?$basic_string@DU?$char_traits@D@std@@V?$allocator@D@2@@std@@I@std@@@std@@@std@@QEAA@XZ 0000000140005360 f i preprocess.obj
 0001:000043a0       ??0?$_String_alloc@U?$_String_base_types@DV?$allocator@D@std@@@std@@@std@@QEAA@XZ 00000001400053a0 f i preprocess.obj
 0001:000043e0       ??0?$_String_val@U?$_Simple_types@D@std@@@std@@QEAA@XZ 00000001400053e0 f i preprocess.obj
 0001:00004430       ??0?$_Uhash_compare@IU?$hash@I@std@@U?$equal_to@I@2@@std@@QEAA@U?$hash@I@1@U?$equal_to@I@1@@Z 0000000140005430 f i preprocess.obj
 0001:00004430       ??0?$_Uhash_compare@V?$basic_string@DU?$char_traits@D@std@@V?$allocator@D@2@@std@@U?$hash@V?$basic_string@DU?$char_traits@D@std@@V?$allocator@D@2@@std@@@2@U?$equal_to@V?$basic_string@DU?$char_traits@D@std@@V?$allocator@D@2@@std@@@2@@std@@QEAA@U?$hash@V?$basic_string@DU?$char_traits@D@std@@V?$allocator@D@2@@std@@@1@U?$equal_to@V?$basic_string@DU?$char_traits@D@std@@V?$allocator@D@2@@std@@@1@@Z 0000000140005430 f i preprocess.obj
 0001:00004490       ??0?$_Umap_traits@IPEAUfile_edge@@V?$_Uhash_compare@IU?$hash@I@std@@U?$equal_to@I@2@@std@@V?$allocator@U?$pair@$$CBIPEAUfile_edge@@@std@@@3@$0A@@std@@QEAA@AEBV?$_Uhash_compare@IU?$hash@I@std@@U?$equal_to@I@2@@1@@Z 0000000140005490 f i preprocess.obj
 0001:00004490       ??0?$_Umap_traits@IPEAUedge@@V?$_Uhash_compare@IU?$hash@I@std@@U?$equal_to@I@2@@std@@V?$allocator@U?$pair@$$CBIPEAUedge@@@std@@@3@$0A@@std@@QEAA@AEBV?$_Uhash_compare@IU?$hash@I@std@@U?$equal_to@I@2@@1@@Z 0000000140005490 f i preprocess.obj
 0001:00004490       ??0?$_Umap_traits@V?$basic_string@DU?$char_traits@D@std@@V?$allocator@D@2@@std@@IV?$_Uhash_compare@V?$basic_string@DU?$char_traits@D@std@@V?$allocator@D@2@@std@@U?$hash@V?$basic_string@DU?$char_traits@D@std@@V?$allocator@D@2@@std@@@2@U?$equal_to@V?$basic_string@DU?$char_traits@D@std@@V?$allocator@D@2@@std@@@2@@2@V?$allocator@U?$pair@$$CBV?$basic_string@DU?$char_traits@D@std@@V?$allocator@D@2@@std@@I@std@@@2@$0A@@std@@QEAA@AEBV?$_Uhash_compare@V?$basic_string@DU?$char_traits@D@std@@V?$allocator@D@2@@std@@U?$hash@V?$basic_string@DU?$char_traits@D@std@@V?$allocator@D@2@@std@@@2@U?$equal_to@V?$basic_string@DU?$char_traits@D@std@@V?$allocator@D@2@@std@@@2@@1@@Z 0000000140005490 f i preprocess.obj
 0001:000044b0       ??0?$_Uninitialized_backout_al@PEAV?$_List_unchecked_iterator@V?$_List_val@U?$_List_simple_types@U?$pair@$$CBV?$basic_string@DU?$char_traits@D@std@@V?$allocator@D@2@@std@@I@std@@@std@@@std@@@std@@V?$allocator@V?$_List_unchecked_iterator@V?$_List_val@U?$_List_simple_types@U?$pair@$$CBV?$basic_string@DU?$char_traits@D@std@@V?$allocator@D@2@@std@@I@std@@@std@@@std@@@std@@@2@@std@@QEAA@PEAV?$_List_unchecked_iterator@V?$_List_val@U?$_List_simple_types@U?$pair@$$CBV?$basic_string@DU?$char_traits@D@std@@V?$allocator@D@2@@std@@I@std@@@std@@@std@@@1@AEAV?$allocator@V?$_List_unchecked_iterator@V?$_List_val@U?$_List_simple_types@U?$pair@$$CBV?$basic_string@DU?$char_traits@D@std@@V?$allocator@D@2@@std@@I@std@@@std@@@std@@@std@@@1@@Z 00000001400054b0 f i preprocess.obj
 0001:000044b0       ??0?$_Uninitialized_backout_al@PEAV?$_List_unchecked_iterator@V?$_List_val@U?$_List_simple_types@U?$pair@$$CBIPEAUedge@@@std@@@std@@@std@@@std@@V?$allocator@V?$_List_unchecked_iterator@V?$_List_val@U?$_List_simple_types@U?$pair@$$CBIPEAUedge@@@std@@@std@@@std@@@std@@@2@@std@@QEAA@PEAV?$_List_unchecked_iterator@V?$_List_val@U?$_List_simple_types@U?$pair@$$CBIPEAUedge@@@std@@@std@@@std@@@1@AEAV?$allocator@V?$_List_unchecked_iterator@V?$_List_val@U?$_List_simple_types@U?$pair@$$CBIPEAUedge@@@std@@@std@@@std@@@std@@@1@@Z 00000001400054b0 f i preprocess.obj
 0001:000044b0       ??0?$_Uninitialized_backout_al@PEAV?$_List_unchecked_iterator@V?$_List_val@U?$_List_simple_types@U?$pair@$$CBIPEAUfile_edge@@@std@@@std@@@std@@@std@@V?$allocator@V?$_List_unchecked_iterator@V?$_List_val@U?$_List_simple_types@U?$pair@$$CBIPEAUfile_edge@@@std@@@std@@@std@@@std@@@2@@std@@QEAA@PEAV?$_List_unchecked_iterator@V?$_List_val@U?$_List_simple_types@U?$pair@$$CBIPEAUfile_edge@@@std@@@std@@@std@@@1@AEAV?$allocator@V?$_List_unchecked_iterator@V?$_List_val@U?$_List_simple_types@U?$pair@$$CBIPEAUfile_edge@@@std@@@std@@@std@@@std@@@1@@Z 00000001400054b0 f i preprocess.obj
 0001:000044f0       ??0?$_Vector_val@U?$_Simple_types@V?$_List_unchecked_iterator@V?$_List_val@U?$_List_simple_types@U?$pair@$$CBIPEAUfile_edge@@@std@@@std@@@std@@@std@@@std@@@std@@QEAA@XZ 00000001400054f0 f i preprocess.obj
 0001:000044f0       ??0?$_Vector_val@U?$_Simple_types@V?$_List_unchecked_iterator@V?$_List_val@U?$_List_simple_types@U?$pair@$$CBIPEAUedge@@@std@@@std@@@std@@@std@@@std@@@std@@QEAA@XZ 00000001400054f0 f i preprocess.obj
 0001:000044f0       ??0?$_Vector_val@U?$_Simple_types@V?$_List_unchecked_iterator@V?$_List_val@U?$_List_simple_types@U?$pair@$$CBV?$basic_string@DU?$char_traits@D@std@@V?$allocator@D@2@@std@@I@std@@@std@@@std@@@std@@@std@@@std@@QEAA@XZ 00000001400054f0 f i preprocess.obj
 0001:00004540       ??0?$basic_string@DU?$char_traits@D@std@@V?$allocator@D@2@@std@@QEAA@$$QEAV01@@Z 0000000140005540 f i preprocess.obj
 0001:000045c0       ??0?$basic_string@DU?$char_traits@D@std@@V?$allocator@D@2@@std@@QEAA@AEBV01@@Z 00000001400055c0 f i preprocess.obj
 0001:00004620       ??0?$basic_string@DU?$char_traits@D@std@@V?$allocator@D@2@@std@@QEAA@QEBD_K@Z 0000000140005620 f i preprocess.obj
 0001:00004670       ??0?$list@U?$pair@$$CBIPEAUfile_edge@@@std@@V?$allocator@U?$pair@$$CBIPEAUfile_edge@@@std@@@2@@std@@QEAA@AEBV?$allocator@U?$pair@$$CBIPEAUfile_edge@@@std@@@1@@Z 0000000140005670 f i preprocess.obj
 0001:00004670       ??0?$list@U?$pair@$$CBIPEAUedge@@@std@@V?$allocator@U?$pair@$$CBIPEAUedge@@@std@@@2@@std@@QEAA@AEBV?$allocator@U?$pair@$$CBIPEAUedge@@@std@@@1@@Z 0000000140005670 f i preprocess.obj
 0001:000046a0       ??0?$list@U?$pair@$$CBV?$basic_string@DU?$char_traits@D@std@@V?$allocator@D@2@@std@@I@std@@V?$allocator@U?$pair@$$CBV?$basic_string@DU?$char_traits@D@std@@V?$allocator@D@2@@std@@I@std@@@2@@std@@QEAA@AEBV?$allocator@U?$pair@$$CBV?$basic_string@DU?$char_traits@D@std@@V?$allocator@D@2@@std@@I@std@@@1@@Z 00000001400056a0 f i preprocess.obj
 0001:000046d0       ??0?$unordered_map@IPEAUfile_edge@@U?$hash@I@std@@U?$equal_to@I@3@V?$allocator@U?$pair@$$CBIPEAUfile_edge@@@std@@@3@@std@@QEAA@XZ 00000001400056d0 f i preprocess.obj
 0001:000046d0       ??0?$unordered_map@IPEAUedge@@U?$hash@I@std@@U?$equal_to@I@3@V?$allocator@U?$pair@$$CBIPEAUedge@@@std@@@3@@std@@QEAA@XZ 00000001400056d0 f i preprocess.obj
 0001:00004720       ??0?$unordered_map@V?$basic_string@DU?$char_traits@D@std@@V?$allocator@D@2@@std@@IU?$hash@V?$basic_string@DU?$char_traits@D@std@@V?$allocator@D@2@@std@@@2@U?$equal_to@V?$basic_string@DU?$char_traits@D@std@@V?$allocator@D@2@@std@@@2@V?$allocator@U?$pair@$$CBV?$basic_string@DU?$char_traits@D@std@@V?$allocator@D@2@@std@@I@std@@@2@@std@@QEAA@XZ 0000000140005720 f i preprocess.obj
 0001:00004770       ??0?$vector@V?$_List_unchecked_iterator@V?$_List_val@U?$_List_simple_types@U?$pair@$$CBIPEAUfile_edge@@@std@@@std@@@std@@@std@@V?$allocator@V?$_List_unchecked_iterator@V?$_List_val@U?$_List_simple_types@U?$pair@$$CBIPEAUfile_edge@@@std@@@std@@@std@@@std@@@2@@std@@QEAA@AEBV?$allocator@V?$_List_unchecked_iterator@V?$_List_val@U?$_List_simple_types@U?$pair@$$CBIPEAUfile_edge@@@std@@@std@@@std@@@std@@@1@@Z 0000000140005770 f i preprocess.obj
 0001:00004770       ??0?$vector@V?$_List_unchecked_iterator@V?$_List_val@U?$_List_simple_types@U?$pair@$$CBIPEAUedge@@@std@@@std@@@std@@@std@@V?$allocator@V?$_List_unchecked_iterator@V?$_List_val@U?$_List_simple_types@U?$pair@$$CBIPEAUedge@@@std@@@std@@@std@@@std@@@2@@std@@QEAA@AEBV?$allocator@V?$_List_unchecked_iterator@V?$_List_val@U?$_List_simple_types@U?$pair@$$CBIPEAUedge@@@std@@@std@@@std@@@std@@@1@@Z 0000000140005770 f i preprocess.obj
 0001:00004770       ??0?$vector@V?$_List_unchecked_iterator@V?$_List_val@U?$_List_simple_types@U?$pair@$$CBV?$basic_string@DU?$char_traits@D@std@@V?$allocator@D@2@@std@@I@std@@@std@@@std@@@std@@V?$allocator@V?$_List_unchecked_iterator@V?$_List_val@U?$_List_simple_types@U?$pair@$$CBV?$basic_string@DU?$char_traits@D@std@@V?$allocator@D@2@@std@@I@std@@@std@@@std@@@std@@@2@@std@@QEAA@AEBV?$allocator@V?$_List_unchecked_iterator@V?$_List_val@U?$_List_simple_types@U?$pair@$$CBV?$basic_string@DU?$char_traits@D@std@@V?$allocator@D@2@@std@@I@std@@@std@@@std@@@std@@@1@@Z 0000000140005770 f i preprocess.obj
 0001:000047b0       ??0_Container_proxy@std@@QEAA@XZ 00000001400057b0 f i preprocess.obj
 0001:000047b0       ??0_Iterator_base12@std@@QEAA@XZ 00000001400057b0 f i preprocess.obj
 0001:000047e0       ??0_Iterator_base12@std@@QEAA@AEBU01@@Z 00000001400057e0 f i preprocess.obj
 0001:00004820       ??0global_state@@QEAA@XZ   0000000140005820 f i preprocess.obj
 0001:00004870       ??1?$_Compressed_pair@V?$allocator@D@std@@V?$_String_val@U?$_Simple_types@D@std@@@2@$00@std@@QEAA@XZ 0000000140005870 f i preprocess.obj
 0001:00004890       ??1?$_Hash@V?$_Umap_traits@V?$basic_string@DU?$char_traits@D@std@@V?$allocator@D@2@@std@@IV?$_Uhash_compare@V?$basic_string@DU?$char_traits@D@std@@V?$allocator@D@2@@std@@U?$hash@V?$basic_string@DU?$char_traits@D@std@@V?$allocator@D@2@@std@@@2@U?$equal_to@V?$basic_string@DU?$char_traits@D@std@@V?$allocator@D@2@@std@@@2@@2@V?$allocator@U?$pair@$$CBV?$basic_string@DU?$char_traits@D@std@@V?$allocator@D@2@@std@@I@std@@@2@$0A@@std@@@std@@QEAA@XZ 0000000140005890 f i preprocess.obj
 0001:000048c0       ??1?$_List_alloc@U?$_List_base_types@U?$pair@$$CBIPEAUedge@@@std@@V?$allocator@U?$pair@$$CBIPEAUedge@@@std@@@2@@std@@@std@@QEAA@XZ 00000001400058c0 f i preprocess.obj
 0001:000048c0       ??1?$_List_alloc@U?$_List_base_types@U?$pair@$$CBIPEAUfile_edge@@@std@@V?$allocator@U?$pair@$$CBIPEAUfile_edge@@@std@@@2@@std@@@std@@QEAA@XZ 00000001400058c0 f i preprocess.obj
 0001:00004900       ??1?$_List_alloc@U?$_List_base_types@U?$pair@$$CBV?$basic_string@DU?$char_traits@D@std@@V?$allocator@D@2@@std@@I@std@@V?$allocator@U?$pair@$$CBV?$basic_string@DU?$char_traits@D@std@@V?$allocator@D@2@@std@@I@std@@@2@@std@@@std@@QEAA@XZ 0000000140005900 f i preprocess.obj
 0001:00004940       ??1?$_List_buy@U?$pair@$$CBIPEAUedge@@@std@@V?$allocator@U?$pair@$$CBIPEAUedge@@@std@@@2@@std@@QEAA@XZ 0000000140005940 f i preprocess.obj
 0001:00004940       ??1?$_List_buy@U?$pair@$$CBIPEAUfile_edge@@@std@@V?$allocator@U?$pair@$$CBIPEAUfile_edge@@@std@@@2@@std@@QEAA@XZ 0000000140005940 f i preprocess.obj
 0001:00004960       ??1?$_List_buy@U?$pair@$$CBV?$basic_string@DU?$char_traits@D@std@@V?$allocator@D@2@@std@@I@std@@V?$allocator@U?$pair@$$CBV?$basic_string@DU?$char_traits@D@std@@V?$allocator@D@2@@std@@I@std@@@2@@std@@QEAA@XZ 0000000140005960 f i preprocess.obj
 0001:00004980       ??1?$_List_const_iterator@V?$_List_val@U?$_List_simple_types@U?$pair@$$CBIPEAUedge@@@std@@@std@@@std@@@std@@QEAA@XZ 0000000140005980 f i preprocess.obj
 0001:00004980       ??1?$_List_const_iterator@V?$_List_val@U?$_List_simple_types@U?$pair@$$CBV?$basic_string@DU?$char_traits@D@std@@V?$allocator@D@2@@std@@I@std@@@std@@@std@@@std@@QEAA@XZ 0000000140005980 f i preprocess.obj
 0001:00004980       ??1?$_List_const_iterator@V?$_List_val@U?$_List_simple_types@U?$pair@$$CBIPEAUfile_edge@@@std@@@std@@@std@@@std@@QEAA@XZ 0000000140005980 f i preprocess.obj
 0001:000049a0       ??1?$_List_iterator@V?$_List_val@U?$_List_simple_types@U?$pair@$$CBIPEAUedge@@@std@@@std@@@std@@@std@@QEAA@XZ 00000001400059a0 f i preprocess.obj
 0001:000049a0       ??1?$_List_iterator@V?$_List_val@U?$_List_simple_types@U?$pair@$$CBIPEAUfile_edge@@@std@@@std@@@std@@@std@@QEAA@XZ 00000001400059a0 f i preprocess.obj
 0001:000049a0       ??1?$_List_iterator@V?$_List_val@U?$_List_simple_types@U?$pair@$$CBV?$basic_string@DU?$char_traits@D@std@@V?$allocator@D@2@@std@@I@std@@@std@@@std@@@std@@QEAA@XZ 00000001400059a0 f i preprocess.obj
 0001:000049c0       ??1?$_List_unchecked_const_iterator@V?$_List_val@U?$_List_simple_types@U?$pair@$$CBV?$basic_string@DU?$char_traits@D@std@@V?$allocator@D@2@@std@@I@std@@@std@@@std@@U_Iterator_base12@2@@std@@QEAA@XZ 00000001400059c0 f i preprocess.obj
 0001:000049c0       ??1?$_List_unchecked_const_iterator@V?$_List_val@U?$_List_simple_types@U?$pair@$$CBIPEAUfile_edge@@@std@@@std@@@std@@U_Iterator_base12@2@@std@@QEAA@XZ 00000001400059c0 f i preprocess.obj
 0001:000049c0       ??1?$_List_unchecked_const_iterator@V?$_List_val@U?$_List_simple_types@U?$pair@$$CBIPEAUedge@@@std@@@std@@@std@@U_Iterator_base12@2@@std@@QEAA@XZ 00000001400059c0 f i preprocess.obj
 0001:000049e0       ??1?$_String_alloc@U?$_String_base_types@DV?$allocator@D@std@@@std@@@std@@QEAA@XZ 00000001400059e0 f i preprocess.obj
 0001:00004a10       ??1?$_String_val@U?$_Simple_types@D@std@@@std@@QEAA@XZ 0000000140005a10 f i preprocess.obj
 0001:00004a30       ??1?$_Uninitialized_backout_al@PEAV?$_List_unchecked_iterator@V?$_List_val@U?$_List_simple_types@U?$pair@$$CBIPEAUfile_edge@@@std@@@std@@@std@@@std@@V?$allocator@V?$_List_unchecked_iterator@V?$_List_val@U?$_List_simple_types@U?$pair@$$CBIPEAUfile_edge@@@std@@@std@@@std@@@std@@@2@@std@@QEAA@XZ 0000000140005a30 f i preprocess.obj
 0001:00004a30       ??1?$_Uninitialized_backout_al@PEAV?$_List_unchecked_iterator@V?$_List_val@U?$_List_simple_types@U?$pair@$$CBV?$basic_string@DU?$char_traits@D@std@@V?$allocator@D@2@@std@@I@std@@@std@@@std@@@std@@V?$allocator@V?$_List_unchecked_iterator@V?$_List_val@U?$_List_simple_types@U?$pair@$$CBV?$basic_string@DU?$char_traits@D@std@@V?$allocator@D@2@@std@@I@std@@@std@@@std@@@std@@@2@@std@@QEAA@XZ 0000000140005a30 f i preprocess.obj
 0001:00004a30       ??1?$_Uninitialized_backout_al@PEAV?$_List_unchecked_iterator@V?$_List_val@U?$_List_simple_types@U?$pair@$$CBIPEAUedge@@@std@@@std@@@std@@@std@@V?$allocator@V?$_List_unchecked_iterator@V?$_List_val@U?$_List_simple_types@U?$pair@$$CBIPEAUedge@@@std@@@std@@@std@@@std@@@2@@std@@QEAA@XZ 0000000140005a30 f i preprocess.obj
 0001:00004a70       ??1?$_Vector_alloc@U?$_Vec_base_types@V?$_List_unchecked_iterator@V?$_List_val@U?$_List_simple_types@U?$pair@$$CBIPEAUfile_edge@@@std@@@std@@@std@@@std@@V?$allocator@V?$_List_unchecked_iterator@V?$_List_val@U?$_List_simple_types@U?$pair@$$CBIPEAUfile_edge@@@std@@@std@@@std@@@std@@@2@@std@@@std@@QEAA@XZ 0000000140005a70 f i preprocess.obj
 0001:00004a70       ??1?$_Vector_alloc@U?$_Vec_base_types@V?$_List_unchecked_iterator@V?$_List_val@U?$_List_simple_types@U?$pair@$$CBIPEAUedge@@@std@@@std@@@std@@@std@@V?$allocator@V?$_List_unchecked_iterator@V?$_List_val@U?$_List_simple_types@U?$pair@$$CBIPEAUedge@@@std@@@std@@@std@@@std@@@2@@std@@@std@@QEAA@XZ 0000000140005a70 f i preprocess.obj
 0001:00004a70       ??1?$_Vector_alloc@U?$_Vec_base_types@V?$_List_unchecked_iterator@V?$_List_val@U?$_List_simple_types@U?$pair@$$CBV?$basic_string@DU?$char_traits@D@std@@V?$allocator@D@2@@std@@I@std@@@std@@@std@@@std@@V?$allocator@V?$_List_unchecked_iterator@V?$_List_val@U?$_List_simple_types@U?$pair@$$CBV?$basic_string@DU?$char_traits@D@std@@V?$allocator@D@2@@std@@I@std@@@std@@@std@@@std@@@2@@std@@@std@@QEAA@XZ 0000000140005a70 f i preprocess.obj
 0001:00004aa0       ??1?$basic_string@DU?$char_traits@D@std@@V?$allocator@D@2@@std@@QEAA@XZ 0000000140005aa0 f i preprocess.obj
 0001:00004ad0       ??1?$list@U?$pair@$$CBIPEAUedge@@@std@@V?$allocator@U?$pair@$$CBIPEAUedge@@@std@@@2@@std@@QEAA@XZ 0000000140005ad0 f i preprocess.obj
 0001:00004ad0       ??1?$list@U?$pair@$$CBIPEAUfile_edge@@@std@@V?$allocator@U?$pair@$$CBIPEAUfile_edge@@@std@@@2@@std@@QEAA@XZ 0000000140005ad0 f i preprocess.obj
 0001:00004b00       ??1?$list@U?$pair@$$CBV?$basic_string@DU?$char_traits@D@std@@V?$allocator@D@2@@std@@I@std@@V?$allocator@U?$pair@$$CBV?$basic_string@DU?$char_traits@D@std@@V?$allocator@D@2@@std@@I@std@@@2@@std@@QEAA@XZ 0000000140005b00 f i preprocess.obj
 0001:00004b30       ??1?$pair@V?$basic_string@DU?$char_traits@D@std@@V?$allocator@D@2@@std@@I@std@@QEAA@XZ 0000000140005b30 f i preprocess.obj
 0001:00004b30       ??1?$pair@$$CBV?$basic_string@DU?$char_traits@D@std@@V?$allocator@D@2@@std@@I@std@@QEAA@XZ 0000000140005b30 f i preprocess.obj
 0001:00004b50       ??1?$pair@V?$_List_iterator@V?$_List_val@U?$_List_simple_types@U?$pair@$$CBV?$basic_string@DU?$char_traits@D@std@@V?$allocator@D@2@@std@@I@std@@@std@@@std@@@std@@_N@std@@QEAA@XZ 0000000140005b50 f i preprocess.obj
 0001:00004b50       ??1?$pair@V?$_List_iterator@V?$_List_val@U?$_List_simple_types@U?$pair@$$CBIPEAUedge@@@std@@@std@@@std@@@std@@_N@std@@QEAA@XZ 0000000140005b50 f i preprocess.obj
 0001:00004b50       ??1?$pair@V?$_List_iterator@V?$_List_val@U?$_List_simple_types@U?$pair@$$CBIPEAUfile_edge@@@std@@@std@@@std@@@std@@_N@std@@QEAA@XZ 0000000140005b50 f i preprocess.obj
 0001:00004b70       ??1?$unordered_map@V?$basic_string@DU?$char_traits@D@std@@V?$allocator@D@2@@std@@IU?$hash@V?$basic_string@DU?$char_traits@D@std@@V?$allocator@D@2@@std@@@2@U?$equal_to@V?$basic_string@DU?$char_traits@D@std@@V?$allocator@D@2@@std@@@2@V?$allocator@U?$pair@$$CBV?$basic_string@DU?$char_traits@D@std@@V?$allocator@D@2@@std@@I@std@@@2@@std@@QEAA@XZ 0000000140005b70 f i preprocess.obj
 0001:00004b90       ??1?$vector@V?$_List_unchecked_iterator@V?$_List_val@U?$_List_simple_types@U?$pair@$$CBIPEAUedge@@@std@@@std@@@std@@@std@@V?$allocator@V?$_List_unchecked_iterator@V?$_List_val@U?$_List_simple_types@U?$pair@$$CBIPEAUedge@@@std@@@std@@@std@@@std@@@2@@std@@QEAA@XZ 0000000140005b90 f i preprocess.obj
 0001:00004b90       ??1?$vector@V?$_List_unchecked_iterator@V?$_List_val@U?$_List_simple_types@U?$pair@$$CBIPEAUfile_edge@@@std@@@std@@@std@@@std@@V?$allocator@V?$_List_unchecked_iterator@V?$_List_val@U?$_List_simple_types@U?$pair@$$CBIPEAUfile_edge@@@std@@@std@@@std@@@std@@@2@@std@@QEAA@XZ 0000000140005b90 f i preprocess.obj
 0001:00004b90       ??1?$vector@V?$_List_unchecked_iterator@V?$_List_val@U?$_List_simple_types@U?$pair@$$CBV?$basic_string@DU?$char_traits@D@std@@V?$allocator@D@2@@std@@I@std@@@std@@@std@@@std@@V?$allocator@V?$_List_unchecked_iterator@V?$_List_val@U?$_List_simple_types@U?$pair@$$CBV?$basic_string@DU?$char_traits@D@std@@V?$allocator@D@2@@std@@I@std@@@std@@@std@@@std@@@2@@std@@QEAA@XZ 0000000140005b90 f i preprocess.obj
 0001:00004bc0       _guard_check_icall_nop     0000000140005bc0 f i LIBCMTD:guard_support.obj
 0001:00004bc0       ??1_Bxty@?$_String_val@U?$_Simple_types@D@std@@@std@@QEAA@XZ 0000000140005bc0 f i preprocess.obj
 0001:00004bc0       ??1scoped_global_state_reset@__crt_state_management@@QEAA@XZ 0000000140005bc0 f i libucrtd:onexit.obj
 0001:00004bc0       ??1?$__crt_simd_cleanup_guard@$0A@@@QEAA@XZ 0000000140005bc0 f i libucrtd:strnlen.obj
 0001:00004bd0       ??1_Iterator_base12@std@@QEAA@XZ 0000000140005bd0 f i preprocess.obj
 0001:00004c10       ??1global_state@@QEAA@XZ   0000000140005c10 f i preprocess.obj
 0001:00004c50       ??2@YAPEAX_KPEAX@Z         0000000140005c50 f i preprocess.obj
 0001:00004c60       ??4?$_Hash@V?$_Umap_traits@V?$basic_string@DU?$char_traits@D@std@@V?$allocator@D@2@@std@@IV?$_Uhash_compare@V?$basic_string@DU?$char_traits@D@std@@V?$allocator@D@2@@std@@U?$hash@V?$basic_string@DU?$char_traits@D@std@@V?$allocator@D@2@@std@@@2@U?$equal_to@V?$basic_string@DU?$char_traits@D@std@@V?$allocator@D@2@@std@@@2@@2@V?$allocator@U?$pair@$$CBV?$basic_string@DU?$char_traits@D@std@@V?$allocator@D@2@@std@@I@std@@@2@$0A@@std@@@std@@QEAAAEAV01@$$QEAV01@@Z 0000000140005c60 f i preprocess.obj
 0001:00004d00       ??4?$list@U?$pair@$$CBV?$basic_string@DU?$char_traits@D@std@@V?$allocator@D@2@@std@@I@std@@V?$allocator@U?$pair@$$CBV?$basic_string@DU?$char_traits@D@std@@V?$allocator@D@2@@std@@I@std@@@2@@std@@QEAAAEAV01@$$QEAV01@@Z 0000000140005d00 f i preprocess.obj
 0001:00004d90       ??4?$unordered_map@V?$basic_string@DU?$char_traits@D@std@@V?$allocator@D@2@@std@@IU?$hash@V?$basic_string@DU?$char_traits@D@std@@V?$allocator@D@2@@std@@@2@U?$equal_to@V?$basic_string@DU?$char_traits@D@std@@V?$allocator@D@2@@std@@@2@V?$allocator@U?$pair@$$CBV?$basic_string@DU?$char_traits@D@std@@V?$allocator@D@2@@std@@I@std@@@2@@std@@QEAAAEAV01@$$QEAV01@@Z 0000000140005d90 f i preprocess.obj
 0001:00004dd0       ??4?$vector@V?$_List_unchecked_iterator@V?$_List_val@U?$_List_simple_types@U?$pair@$$CBV?$basic_string@DU?$char_traits@D@std@@V?$allocator@D@2@@std@@I@std@@@std@@@std@@@std@@V?$allocator@V?$_List_unchecked_iterator@V?$_List_val@U?$_List_simple_types@U?$pair@$$CBV?$basic_string@DU?$char_traits@D@std@@V?$allocator@D@2@@std@@I@std@@@std@@@std@@@std@@@2@@std@@QEAAAEAV01@$$QEAV01@@Z 0000000140005dd0 f i preprocess.obj
 0001:00004e60       ??4_Iterator_base12@std@@QEAAAEAU01@AEBU01@@Z 0000000140005e60 f i preprocess.obj
 0001:00004ee0       ??8?$_List_const_iterator@V?$_List_val@U?$_List_simple_types@U?$pair@$$CBIPEAUedge@@@std@@@std@@@std@@@std@@QEBA_NAEBV01@@Z 0000000140005ee0 f i preprocess.obj
 0001:00004fc0       ??8?$_List_const_iterator@V?$_List_val@U?$_List_simple_types@U?$pair@$$CBV?$basic_string@DU?$char_traits@D@std@@V?$allocator@D@2@@std@@I@std@@@std@@@std@@@std@@QEBA_NAEBV01@@Z 0000000140005fc0 f i preprocess.obj
 0001:000050a0       ??8?$_List_unchecked_const_iterator@V?$_List_val@U?$_List_simple_types@U?$pair@$$CBV?$basic_string@DU?$char_traits@D@std@@V?$allocator@D@2@@std@@I@std@@@std@@@std@@U_Iterator_base0@2@@std@@QEBA_NAEBV01@@Z 00000001400060a0 f i preprocess.obj
 0001:000050a0       ??8?$_List_unchecked_const_iterator@V?$_List_val@U?$_List_simple_types@U?$pair@$$CBIPEAUedge@@@std@@@std@@@std@@U_Iterator_base0@2@@std@@QEBA_NAEBV01@@Z 00000001400060a0 f i preprocess.obj
 0001:000050a0       ??8?$_List_unchecked_const_iterator@V?$_List_val@U?$_List_simple_types@U?$pair@$$CBIPEAUfile_edge@@@std@@@std@@@std@@U_Iterator_base0@2@@std@@QEBA_NAEBV01@@Z 00000001400060a0 f i preprocess.obj
 0001:000050e0       ??9?$_List_unchecked_const_iterator@V?$_List_val@U?$_List_simple_types@U?$pair@$$CBV?$basic_string@DU?$char_traits@D@std@@V?$allocator@D@2@@std@@I@std@@@std@@@std@@U_Iterator_base0@2@@std@@QEBA_NAEBV01@@Z 00000001400060e0 f i preprocess.obj
 0001:000050e0       ??9?$_List_unchecked_const_iterator@V?$_List_val@U?$_List_simple_types@U?$pair@$$CBIPEAUfile_edge@@@std@@@std@@@std@@U_Iterator_base0@2@@std@@QEBA_NAEBV01@@Z 00000001400060e0 f i preprocess.obj
 0001:000050e0       ??9?$_List_unchecked_const_iterator@V?$_List_val@U?$_List_simple_types@U?$pair@$$CBIPEAUedge@@@std@@@std@@@std@@U_Iterator_base0@2@@std@@QEBA_NAEBV01@@Z 00000001400060e0 f i preprocess.obj
 0001:00005120       ??A?$vector@V?$_List_unchecked_iterator@V?$_List_val@U?$_List_simple_types@U?$pair@$$CBIPEAUedge@@@std@@@std@@@std@@@std@@V?$allocator@V?$_List_unchecked_iterator@V?$_List_val@U?$_List_simple_types@U?$pair@$$CBIPEAUedge@@@std@@@std@@@std@@@std@@@2@@std@@QEAAAEAV?$_List_unchecked_iterator@V?$_List_val@U?$_List_simple_types@U?$pair@$$CBIPEAUedge@@@std@@@std@@@std@@@1@_K@Z 0000000140006120 f i preprocess.obj
 0001:000051d0       ??A?$vector@V?$_List_unchecked_iterator@V?$_List_val@U?$_List_simple_types@U?$pair@$$CBIPEAUfile_edge@@@std@@@std@@@std@@@std@@V?$allocator@V?$_List_unchecked_iterator@V?$_List_val@U?$_List_simple_types@U?$pair@$$CBIPEAUfile_edge@@@std@@@std@@@std@@@std@@@2@@std@@QEAAAEAV?$_List_unchecked_iterator@V?$_List_val@U?$_List_simple_types@U?$pair@$$CBIPEAUfile_edge@@@std@@@std@@@std@@@1@_K@Z 00000001400061d0 f i preprocess.obj
 0001:00005280       ??A?$vector@V?$_List_unchecked_iterator@V?$_List_val@U?$_List_simple_types@U?$pair@$$CBV?$basic_string@DU?$char_traits@D@std@@V?$allocator@D@2@@std@@I@std@@@std@@@std@@@std@@V?$allocator@V?$_List_unchecked_iterator@V?$_List_val@U?$_List_simple_types@U?$pair@$$CBV?$basic_string@DU?$char_traits@D@std@@V?$allocator@D@2@@std@@I@std@@@std@@@std@@@std@@@2@@std@@QEAAAEAV?$_List_unchecked_iterator@V?$_List_val@U?$_List_simple_types@U?$pair@$$CBV?$basic_string@DU?$char_traits@D@std@@V?$allocator@D@2@@std@@I@std@@@std@@@std@@@1@_K@Z 0000000140006280 f i preprocess.obj
 0001:00005330       ??C?$_List_iterator@V?$_List_val@U?$_List_simple_types@U?$pair@$$CBIPEAUedge@@@std@@@std@@@std@@@std@@QEBAPEAU?$pair@$$CBIPEAUedge@@@1@XZ 0000000140006330 f i preprocess.obj
 0001:00005350       ??C?$_List_iterator@V?$_List_val@U?$_List_simple_types@U?$pair@$$CBIPEAUfile_edge@@@std@@@std@@@std@@@std@@QEBAPEAU?$pair@$$CBIPEAUfile_edge@@@1@XZ 0000000140006350 f i preprocess.obj
 0001:00005370       ??C?$_List_iterator@V?$_List_val@U?$_List_simple_types@U?$pair@$$CBV?$basic_string@DU?$char_traits@D@std@@V?$allocator@D@2@@std@@I@std@@@std@@@std@@@std@@QEBAPEAU?$pair@$$CBV?$basic_string@DU?$char_traits@D@std@@V?$allocator@D@2@@std@@I@1@XZ 0000000140006370 f i preprocess.obj
 0001:00005390       ??D?$_List_const_iterator@V?$_List_val@U?$_List_simple_types@U?$pair@$$CBIPEAUedge@@@std@@@std@@@std@@@std@@QEBAAEBU?$pair@$$CBIPEAUedge@@@1@XZ 0000000140006390 f i preprocess.obj
 0001:000054c0       ??D?$_List_const_iterator@V?$_List_val@U?$_List_simple_types@U?$pair@$$CBIPEAUfile_edge@@@std@@@std@@@std@@@std@@QEBAAEBU?$pair@$$CBIPEAUfile_edge@@@1@XZ 00000001400064c0 f i preprocess.obj
 0001:000055f0       ??D?$_List_const_iterator@V?$_List_val@U?$_List_simple_types@U?$pair@$$CBV?$basic_string@DU?$char_traits@D@std@@V?$allocator@D@2@@std@@I@std@@@std@@@std@@@std@@QEBAAEBU?$pair@$$CBV?$basic_string@DU?$char_traits@D@std@@V?$allocator@D@2@@std@@I@1@XZ 00000001400065f0 f i preprocess.obj
 0001:00005720       ??D?$_List_iterator@V?$_List_val@U?$_List_simple_types@U?$pair@$$CBIPEAUedge@@@std@@@std@@@std@@@std@@QEBAAEAU?$pair@$$CBIPEAUedge@@@1@XZ 0000000140006720 f i preprocess.obj
 0001:00005740       ??D?$_List_iterator@V?$_List_val@U?$_List_simple_types@U?$pair@$$CBIPEAUfile_edge@@@std@@@std@@@std@@@std@@QEBAAEAU?$pair@$$CBIPEAUfile_edge@@@1@XZ 0000000140006740 f i preprocess.obj
 0001:00005760       ??D?$_List_iterator@V?$_List_val@U?$_List_simple_types@U?$pair@$$CBV?$basic_string@DU?$char_traits@D@std@@V?$allocator@D@2@@std@@I@std@@@std@@@std@@@std@@QEBAAEAU?$pair@$$CBV?$basic_string@DU?$char_traits@D@std@@V?$allocator@D@2@@std@@I@1@XZ 0000000140006760 f i preprocess.obj
 0001:00005780       ??D?$_List_unchecked_const_iterator@V?$_List_val@U?$_List_simple_types@U?$pair@$$CBIPEAUfile_edge@@@std@@@std@@@std@@U_Iterator_base0@2@@std@@QEBAAEBU?$pair@$$CBIPEAUfile_edge@@@1@XZ 0000000140006780 f i preprocess.obj
 0001:00005780       ??D?$_List_unchecked_const_iterator@V?$_List_val@U?$_List_simple_types@U?$pair@$$CBV?$basic_string@DU?$char_traits@D@std@@V?$allocator@D@2@@std@@I@std@@@std@@@std@@U_Iterator_base0@2@@std@@QEBAAEBU?$pair@$$CBV?$basic_string@DU?$char_traits@D@std@@V?$allocator@D@2@@std@@I@1@XZ 0000000140006780 f i preprocess.obj
 0001:00005780       ??D?$_List_unchecked_const_iterator@V?$_List_val@U?$_List_simple_types@U?$pair@$$CBIPEAUedge@@@std@@@std@@@std@@U_Iterator_base0@2@@std@@QEBAAEBU?$pair@$$CBIPEAUedge@@@1@XZ 0000000140006780 f i preprocess.obj
 0001:000057a0       ??D?$_List_unchecked_iterator@V?$_List_val@U?$_List_simple_types@U?$pair@$$CBV?$basic_string@DU?$char_traits@D@std@@V?$allocator@D@2@@std@@I@std@@@std@@@std@@@std@@QEBAAEAU?$pair@$$CBV?$basic_string@DU?$char_traits@D@std@@V?$allocator@D@2@@std@@I@1@XZ 00000001400067a0 f i preprocess.obj
 0001:000057a0       ??D?$_List_unchecked_iterator@V?$_List_val@U?$_List_simple_types@U?$pair@$$CBIPEAUfile_edge@@@std@@@std@@@std@@@std@@QEBAAEAU?$pair@$$CBIPEAUfile_edge@@@1@XZ 00000001400067a0 f i preprocess.obj
 0001:000057a0       ??D?$_List_unchecked_iterator@V?$_List_val@U?$_List_simple_types@U?$pair@$$CBIPEAUedge@@@std@@@std@@@std@@@std@@QEBAAEAU?$pair@$$CBIPEAUedge@@@1@XZ 00000001400067a0 f i preprocess.obj
 0001:000057c0       ??E?$_List_const_iterator@V?$_List_val@U?$_List_simple_types@U?$pair@$$CBIPEAUedge@@@std@@@std@@@std@@@std@@QEAA?AV01@H@Z 00000001400067c0 f i preprocess.obj
 0001:00005830       ??E?$_List_const_iterator@V?$_List_val@U?$_List_simple_types@U?$pair@$$CBIPEAUedge@@@std@@@std@@@std@@@std@@QEAAAEAV01@XZ 0000000140006830 f i preprocess.obj
 0001:00005970       ??E?$_List_const_iterator@V?$_List_val@U?$_List_simple_types@U?$pair@$$CBIPEAUfile_edge@@@std@@@std@@@std@@@std@@QEAA?AV01@H@Z 0000000140006970 f i preprocess.obj
 0001:000059e0       ??E?$_List_const_iterator@V?$_List_val@U?$_List_simple_types@U?$pair@$$CBIPEAUfile_edge@@@std@@@std@@@std@@@std@@QEAAAEAV01@XZ 00000001400069e0 f i preprocess.obj
 0001:00005b20       ??E?$_List_const_iterator@V?$_List_val@U?$_List_simple_types@U?$pair@$$CBV?$basic_string@DU?$char_traits@D@std@@V?$allocator@D@2@@std@@I@std@@@std@@@std@@@std@@QEAA?AV01@H@Z 0000000140006b20 f i preprocess.obj
 0001:00005b90       ??E?$_List_const_iterator@V?$_List_val@U?$_List_simple_types@U?$pair@$$CBV?$basic_string@DU?$char_traits@D@std@@V?$allocator@D@2@@std@@I@std@@@std@@@std@@@std@@QEAAAEAV01@XZ 0000000140006b90 f i preprocess.obj
 0001:00005cd0       ??E?$_List_unchecked_const_iterator@V?$_List_val@U?$_List_simple_types@U?$pair@$$CBV?$basic_string@DU?$char_traits@D@std@@V?$allocator@D@2@@std@@I@std@@@std@@@std@@U_Iterator_base0@2@@std@@QEAAAEAV01@XZ 0000000140006cd0 f i preprocess.obj
 0001:00005cd0       ??E?$_List_unchecked_const_iterator@V?$_List_val@U?$_List_simple_types@U?$pair@$$CBIPEAUedge@@@std@@@std@@@std@@U_Iterator_base0@2@@std@@QEAAAEAV01@XZ 0000000140006cd0 f i preprocess.obj
 0001:00005cd0       ??E?$_List_unchecked_const_iterator@V?$_List_val@U?$_List_simple_types@U?$pair@$$CBIPEAUfile_edge@@@std@@@std@@@std@@U_Iterator_base0@2@@std@@QEAAAEAV01@XZ 0000000140006cd0 f i preprocess.obj
 0001:00005cf0       ??E?$_List_unchecked_iterator@V?$_List_val@U?$_List_simple_types@U?$pair@$$CBV?$basic_string@DU?$char_traits@D@std@@V?$allocator@D@2@@std@@I@std@@@std@@@std@@@std@@QEAAAEAV01@XZ 0000000140006cf0 f i preprocess.obj
 0001:00005cf0       ??E?$_List_unchecked_iterator@V?$_List_val@U?$_List_simple_types@U?$pair@$$CBIPEAUfile_edge@@@std@@@std@@@std@@@std@@QEAAAEAV01@XZ 0000000140006cf0 f i preprocess.obj
 0001:00005cf0       ??E?$_List_unchecked_iterator@V?$_List_val@U?$_List_simple_types@U?$pair@$$CBIPEAUedge@@@std@@@std@@@std@@@std@@QEAAAEAV01@XZ 0000000140006cf0 f i preprocess.obj
 0001:00005d10       ??F?$_List_unchecked_const_iterator@V?$_List_val@U?$_List_simple_types@U?$pair@$$CBV?$basic_string@DU?$char_traits@D@std@@V?$allocator@D@2@@std@@I@std@@@std@@@std@@U_Iterator_base0@2@@std@@QEAAAEAV01@XZ 0000000140006d10 f i preprocess.obj
 0001:00005d10       ??F?$_List_unchecked_const_iterator@V?$_List_val@U?$_List_simple_types@U?$pair@$$CBIPEAUfile_edge@@@std@@@std@@@std@@U_Iterator_base0@2@@std@@QEAAAEAV01@XZ 0000000140006d10 f i preprocess.obj
 0001:00005d10       ??F?$_List_unchecked_const_iterator@V?$_List_val@U?$_List_simple_types@U?$pair@$$CBIPEAUedge@@@std@@@std@@@std@@U_Iterator_base0@2@@std@@QEAAAEAV01@XZ 0000000140006d10 f i preprocess.obj
 0001:00005d30       ??F?$_List_unchecked_iterator@V?$_List_val@U?$_List_simple_types@U?$pair@$$CBIPEAUedge@@@std@@@std@@@std@@@std@@QEAAAEAV01@XZ 0000000140006d30 f i preprocess.obj
 0001:00005d30       ??F?$_List_unchecked_iterator@V?$_List_val@U?$_List_simple_types@U?$pair@$$CBV?$basic_string@DU?$char_traits@D@std@@V?$allocator@D@2@@std@@I@std@@@std@@@std@@@std@@QEAAAEAV01@XZ 0000000140006d30 f i preprocess.obj
 0001:00005d30       ??F?$_List_unchecked_iterator@V?$_List_val@U?$_List_simple_types@U?$pair@$$CBIPEAUfile_edge@@@std@@@std@@@std@@@std@@QEAAAEAV01@XZ 0000000140006d30 f i preprocess.obj
 0001:00005d50       ??R<lambda_66f57f934f28d61049862f64df852ff0>@@QEBAXQEAD_KQEBD@Z 0000000140006d50 f i preprocess.obj
 0001:00005db0       ??R?$_Conditionally_enabled_hash@I$00@std@@QEBA_KAEBI@Z 0000000140006db0 f i preprocess.obj
 0001:00005dd0       ??R?$_Uhash_compare@IU?$hash@I@std@@U?$equal_to@I@2@@std@@QEBA_KAEBI@Z 0000000140006dd0 f i preprocess.obj
 0001:00005e00       ??R?$_Uhash_compare@IU?$hash@I@std@@U?$equal_to@I@2@@std@@QEBA_NAEBI0@Z 0000000140006e00 f i preprocess.obj
 0001:00005e60       ??R?$_Uhash_compare@V?$basic_string@DU?$char_traits@D@std@@V?$allocator@D@2@@std@@U?$hash@V?$basic_string@DU?$char_traits@D@std@@V?$allocator@D@2@@std@@@2@U?$equal_to@V?$basic_string@DU?$char_traits@D@std@@V?$allocator@D@2@@std@@@2@@std@@QEBA_KAEBV?$basic_string@DU?$char_traits@D@std@@V?$allocator@D@2@@1@@Z 0000000140006e60 f i preprocess.obj
 0001:00005e90       ??R?$_Uhash_compare@V?$basic_string@DU?$char_traits@D@std@@V?$allocator@D@2@@std@@U?$hash@V?$basic_string@DU?$char_traits@D@std@@V?$allocator@D@2@@std@@@2@U?$equal_to@V?$basic_string@DU?$char_traits@D@std@@V?$allocator@D@2@@std@@@2@@std@@QEBA_NAEBV?$basic_string@DU?$char_traits@D@std@@V?$allocator@D@2@@1@0@Z 0000000140006e90 f i preprocess.obj
 0001:00005ef0       ??R?$equal_to@I@std@@QEBA_NAEBI0@Z 0000000140006ef0 f i preprocess.obj
 0001:00005f30       ??R?$equal_to@V?$basic_string@DU?$char_traits@D@std@@V?$allocator@D@2@@std@@@std@@QEBA_NAEBV?$basic_string@DU?$char_traits@D@std@@V?$allocator@D@2@@1@0@Z 0000000140006f30 f i preprocess.obj
 0001:00005f60       ??R?$hash@V?$basic_string@DU?$char_traits@D@std@@V?$allocator@D@2@@std@@@std@@QEBA_KAEBV?$basic_string@DU?$char_traits@D@std@@V?$allocator@D@2@@1@@Z 0000000140006f60 f i preprocess.obj
 0001:00005fa0       ??_G?$pair@$$CBV?$basic_string@DU?$char_traits@D@std@@V?$allocator@D@2@@std@@I@std@@QEAAPEAXI@Z 0000000140006fa0 f i preprocess.obj
 0001:00005fe0       ?AdvanceCharsToNewline@@YAXPEAUstring@@@Z 0000000140006fe0 f i preprocess.obj
 0001:00006030       ?AdvancePastDeadSpaces@@YAXPEAUstring@@@Z 0000000140007030 f i preprocess.obj
 0001:00006080       ?AdvanceString@@YAXPEAUstring@@_K@Z 0000000140007080 f i preprocess.obj
 0001:000060e0       ?AlignAddress@@YA_KPEAX_K@Z 00000001400070e0 f i preprocess.obj
 0001:000060e0       ?AlignAddress@@YA_K_K0@Z   00000001400070e0 f i preprocess.obj
 0001:00006120       ?BlockArenaCreate@@YA?AUblock_arena@@PEAUplatform_block_arena@@@Z 0000000140007120 f i preprocess.obj
 0001:00006180       ?BlockArenaCreate@@YA?AUblock_arena@@PEAUplatform_block_arena@@_K@Z 0000000140007180 f i preprocess.obj
 0001:000061f0       ?BlockArenaGetBlockSize@@YA_KPEAUblock_arena@@@Z 00000001400071f0 f i preprocess.obj
 0001:00006210       ?BlockGetData_@@YAPEAXPEAUblock@@@Z 0000000140007210 f i preprocess.obj
 0001:00006230       ?CharToUInt@@YAID@Z        0000000140007230 f i preprocess.obj
 0001:00006270       ?EdgeGetOrCreate@@YAPEAUedge@@II@Z 0000000140007270 f i preprocess.obj
 0001:000066a0       ?FileArenaCreate@@YA?AUfile_arena@@_K0@Z 00000001400076a0 f i preprocess.obj
 0001:00006720       ?FileArenaPushSize@@YA_KPEAUfile_arena@@_K@Z 0000000140007720 f i preprocess.obj
 0001:00006790       ?FileSubArena@@YA?AUfile_arena@@PEAU1@_K@Z 0000000140007790 f i preprocess.obj
 0001:00006820       ?GetAlignOffset@@YA_K_K0@Z 0000000140007820 f i preprocess.obj
 0001:00006870       ?HashtagGetOrCreate@@YAIUstring@@@Z 0000000140007870 f i preprocess.obj
 0001:00006a80       ?IsDeadSpace@@YAID@Z       0000000140007a80 f i preprocess.obj
 0001:00006ac0       ?IsNewLine@@YAID@Z         0000000140007ac0 f i preprocess.obj
 0001:00006b00       ?IsUInt@@YAID@Z            0000000140007b00 f i preprocess.obj
 0001:00006b40       ?LinearArenaCreate@@YA?AUlinear_arena@@PEAX_K@Z 0000000140007b40 f i preprocess.obj
 0001:00006ba0       ?MemoryAllocate@@YAPEAX_K@Z 0000000140007ba0 f i preprocess.obj
 0001:00006be0       ?Min@@YAIII@Z              0000000140007be0 f i preprocess.obj
 0001:00006c10       ?Min@@YA_K_K0@Z            0000000140007c10 f i preprocess.obj
 0001:00006c50       ?NumCharsToNewLine@@YAIUstring@@@Z 0000000140007c50 f i preprocess.obj
 0001:00006ca0       ?NumDeadSpaceChars@@YAIUstring@@@Z 0000000140007ca0 f i preprocess.obj
 0001:00006cf0       ?PlatformBlockArenaAllocate@@YAPEAUblock@@PEAUplatform_block_arena@@@Z 0000000140007cf0 f i preprocess.obj
 0001:000070f0       ?PlatformBlockArenaCreate@@YA?AUplatform_block_arena@@_K0@Z 00000001400080f0 f i preprocess.obj
 0001:00007160       ?PlatformBlockArenaNumBlocks@@YA_KPEAUplatform_block_arena@@@Z 0000000140008160 f i preprocess.obj
 0001:00007190       ?PushSizeAligned@@YAPEAXPEAUblock_arena@@_K1@Z 0000000140008190 f i preprocess.obj
 0001:000072d0       ?PushSizeAligned@@YAPEAXPEAUlinear_arena@@_K1@Z 00000001400082d0 f i preprocess.obj
 0001:00007360       ?ReadUInt@@YAIUstring@@PEAI@Z 0000000140008360 f i preprocess.obj
 0001:00007450       ?ReadUIntAndAdvance@@YAIPEAUstring@@PEAI@Z 0000000140008450 f i preprocess.obj
 0001:000074b0       ?String@@YA?AUstring@@PEAD_K@Z 00000001400084b0 f i preprocess.obj
 0001:00007510       ?StringGetAndMovePastString@@YA?AUstring@@PEAU1@@Z 0000000140008510 f i preprocess.obj
 0001:000075d0       ?StringGetPastHashtag@@YA?AUstring@@PEAU1@@Z 00000001400085d0 f i preprocess.obj
 0001:000076b0       ?StringMovePastComma@@YAXPEAUstring@@@Z 00000001400086b0 f i preprocess.obj
 0001:00007790       ?_Adjust_manually_vector_aligned@std@@YAXAEAPEAXAEA_K@Z 0000000140008790 f i preprocess.obj
 0001:00007920       ?_Adopt@_Iterator_base12@std@@QEAAXPEBU_Container_base12@2@@Z 0000000140008920 f i preprocess.obj
 0001:000079e0       ?_Alloc_proxy@?$_List_alloc@U?$_List_base_types@U?$pair@$$CBIPEAUfile_edge@@@std@@V?$allocator@U?$pair@$$CBIPEAUfile_edge@@@std@@@2@@std@@@std@@QEAAXXZ 00000001400089e0 f i preprocess.obj
 0001:000079e0       ?_Alloc_proxy@?$_String_alloc@U?$_String_base_types@DV?$allocator@D@std@@@std@@@std@@QEAAXXZ 00000001400089e0 f i preprocess.obj
 0001:000079e0       ?_Alloc_proxy@?$_List_alloc@U?$_List_base_types@U?$pair@$$CBV?$basic_string@DU?$char_traits@D@std@@V?$allocator@D@2@@std@@I@std@@V?$allocator@U?$pair@$$CBV?$basic_string@DU?$char_traits@D@std@@V?$allocator@D@2@@std@@I@std@@@2@@std@@@std@@QEAAXXZ 00000001400089e0 f i preprocess.obj
 0001:000079e0       ?_Alloc_proxy@?$_Vector_alloc@U?$_Vec_base_types@V?$_List_unchecked_iterator@V?$_List_val@U?$_List_simple_types@U?$pair@$$CBIPEAUedge@@@std@@@std@@@std@@@std@@V?$allocator@V?$_List_unchecked_iterator@V?$_List_val@U?$_List_simple_types@U?$pair@$$CBIPEAUedge@@@std@@@std@@@std@@@std@@@2@@std@@@std@@QEAAXXZ 00000001400089e0 f i preprocess.obj
 0001:000079e0       ?_Alloc_proxy@?$_List_alloc@U?$_List_base_types@U?$pair@$$CBIPEAUedge@@@std@@V?$allocator@U?$pair@$$CBIPEAUedge@@@std@@@2@@std@@@std@@QEAAXXZ 00000001400089e0 f i preprocess.obj
 0001:000079e0       ?_Alloc_proxy@?$_Vector_alloc@U?$_Vec_base_types@V?$_List_unchecked_iterator@V?$_List_val@U?$_List_simple_types@U?$pair@$$CBIPEAUfile_edge@@@std@@@std@@@std@@@std@@V?$allocator@V?$_List_unchecked_iterator@V?$_List_val@U?$_List_simple_types@U?$pair@$$CBIPEAUfile_edge@@@std@@@std@@@std@@@std@@@2@@std@@@std@@QEAAXXZ 00000001400089e0 f i preprocess.obj
 0001:000079e0       ?_Alloc_proxy@?$_Vector_alloc@U?$_Vec_base_types@V?$_List_unchecked_iterator@V?$_List_val@U?$_List_simple_types@U?$pair@$$CBV?$basic_string@DU?$char_traits@D@std@@V?$allocator@D@2@@std@@I@std@@@std@@@std@@@std@@V?$allocator@V?$_List_unchecked_iterator@V?$_List_val@U?$_List_simple_types@U?$pair@$$CBV?$basic_string@DU?$char_traits@D@std@@V?$allocator@D@2@@std@@I@std@@@std@@@std@@@std@@@2@@std@@@std@@QEAAXXZ 00000001400089e0 f i preprocess.obj
 0001:00007a90       ?_Allocate@_Default_allocate_traits@std@@SAPEAX_K@Z 0000000140008a90 f i preprocess.obj
 0001:00007ab0       ?_Assign_rv@?$list@U?$pair@$$CBV?$basic_string@DU?$char_traits@D@std@@V?$allocator@D@2@@std@@I@std@@V?$allocator@U?$pair@$$CBV?$basic_string@DU?$char_traits@D@std@@V?$allocator@D@2@@std@@I@std@@@2@@std@@QEAAX$$QEAV12@U?$integral_constant@_N$00@2@@Z 0000000140008ab0 f i preprocess.obj
 0001:00007b40       ?_Assign_rv_contents_with_alloc_always_equal@?$basic_string@DU?$char_traits@D@std@@V?$allocator@D@2@@std@@QEAAX$$QEAV12@U?$integral_constant@_N$00@2@@Z 0000000140008b40 f i preprocess.obj
 0001:00007c00       ?_Begin@?$_Hash@V?$_Umap_traits@IPEAUedge@@V?$_Uhash_compare@IU?$hash@I@std@@U?$equal_to@I@2@@std@@V?$allocator@U?$pair@$$CBIPEAUedge@@@std@@@3@$0A@@std@@@std@@IEAA?AV?$_List_unchecked_iterator@V?$_List_val@U?$_List_simple_types@U?$pair@$$CBIPEAUedge@@@std@@@std@@@std@@@2@_K@Z 0000000140008c00 f i preprocess.obj
 0001:00007c40       ?_Begin@?$_Hash@V?$_Umap_traits@IPEAUfile_edge@@V?$_Uhash_compare@IU?$hash@I@std@@U?$equal_to@I@2@@std@@V?$allocator@U?$pair@$$CBIPEAUfile_edge@@@std@@@3@$0A@@std@@@std@@IEAA?AV?$_List_unchecked_iterator@V?$_List_val@U?$_List_simple_types@U?$pair@$$CBIPEAUfile_edge@@@std@@@std@@@std@@@2@_K@Z 0000000140008c40 f i preprocess.obj
 0001:00007c80       ?_Begin@?$_Hash@V?$_Umap_traits@V?$basic_string@DU?$char_traits@D@std@@V?$allocator@D@2@@std@@IV?$_Uhash_compare@V?$basic_string@DU?$char_traits@D@std@@V?$allocator@D@2@@std@@U?$hash@V?$basic_string@DU?$char_traits@D@std@@V?$allocator@D@2@@std@@@2@U?$equal_to@V?$basic_string@DU?$char_traits@D@std@@V?$allocator@D@2@@std@@@2@@2@V?$allocator@U?$pair@$$CBV?$basic_string@DU?$char_traits@D@std@@V?$allocator@D@2@@std@@I@std@@@2@$0A@@std@@@std@@IEAA?AV?$_List_unchecked_iterator@V?$_List_val@U?$_List_simple_types@U?$pair@$$CBV?$basic_string@DU?$char_traits@D@std@@V?$allocator@D@2@@std@@I@std@@@std@@@std@@@2@_K@Z 0000000140008c80 f i preprocess.obj
 0001:00007cc0       ?_Buy@?$vector@V?$_List_unchecked_iterator@V?$_List_val@U?$_List_simple_types@U?$pair@$$CBIPEAUfile_edge@@@std@@@std@@@std@@@std@@V?$allocator@V?$_List_unchecked_iterator@V?$_List_val@U?$_List_simple_types@U?$pair@$$CBIPEAUfile_edge@@@std@@@std@@@std@@@std@@@2@@std@@AEAA_N_K@Z 0000000140008cc0 f i preprocess.obj
 0001:00007cc0       ?_Buy@?$vector@V?$_List_unchecked_iterator@V?$_List_val@U?$_List_simple_types@U?$pair@$$CBV?$basic_string@DU?$char_traits@D@std@@V?$allocator@D@2@@std@@I@std@@@std@@@std@@@std@@V?$allocator@V?$_List_unchecked_iterator@V?$_List_val@U?$_List_simple_types@U?$pair@$$CBV?$basic_string@DU?$char_traits@D@std@@V?$allocator@D@2@@std@@I@std@@@std@@@std@@@std@@@2@@std@@AEAA_N_K@Z 0000000140008cc0 f i preprocess.obj
 0001:00007cc0       ?_Buy@?$vector@V?$_List_unchecked_iterator@V?$_List_val@U?$_List_simple_types@U?$pair@$$CBIPEAUedge@@@std@@@std@@@std@@@std@@V?$allocator@V?$_List_unchecked_iterator@V?$_List_val@U?$_List_simple_types@U?$pair@$$CBIPEAUedge@@@std@@@std@@@std@@@std@@@2@@std@@AEAA_N_K@Z 0000000140008cc0 f i preprocess.obj
 0001:00007db0       ?_Buyheadnode@?$_List_alloc@U?$_List_base_types@U?$pair@$$CBIPEAUfile_edge@@@std@@V?$allocator@U?$pair@$$CBIPEAUfile_edge@@@std@@@2@@std@@@std@@QEAAPEAU?$_List_node@U?$pair@$$CBIPEAUfile_edge@@@std@@PEAX@2@XZ 0000000140008db0 f i preprocess.obj
 0001:00007db0       ?_Buyheadnode@?$_List_alloc@U?$_List_base_types@U?$pair@$$CBIPEAUedge@@@std@@V?$allocator@U?$pair@$$CBIPEAUedge@@@std@@@2@@std@@@std@@QEAAPEAU?$_List_node@U?$pair@$$CBIPEAUedge@@@std@@PEAX@2@XZ 0000000140008db0 f i preprocess.obj
 0001:00007dd0       ?_Buyheadnode@?$_List_alloc@U?$_List_base_types@U?$pair@$$CBV?$basic_string@DU?$char_traits@D@std@@V?$allocator@D@2@@std@@I@std@@V?$allocator@U?$pair@$$CBV?$basic_string@DU?$char_traits@D@std@@V?$allocator@D@2@@std@@I@std@@@2@@std@@@std@@QEAAPEAU?$_List_node@U?$pair@$$CBV?$basic_string@DU?$char_traits@D@std@@V?$allocator@D@2@@std@@I@std@@PEAX@2@XZ 0000000140008dd0 f i preprocess.obj
 0001:00007df0       ?_Buynode0@?$_List_alloc@U?$_List_base_types@U?$pair@$$CBIPEAUfile_edge@@@std@@V?$allocator@U?$pair@$$CBIPEAUfile_edge@@@std@@@2@@std@@@std@@QEAAPEAU?$_List_node@U?$pair@$$CBIPEAUfile_edge@@@std@@PEAX@2@PEAU32@0@Z 0000000140008df0 f i preprocess.obj
 0001:00007df0       ?_Buynode0@?$_List_alloc@U?$_List_base_types@U?$pair@$$CBIPEAUedge@@@std@@V?$allocator@U?$pair@$$CBIPEAUedge@@@std@@@2@@std@@@std@@QEAAPEAU?$_List_node@U?$pair@$$CBIPEAUedge@@@std@@PEAX@2@PEAU32@0@Z 0000000140008df0 f i preprocess.obj
 0001:00007eb0       ?_Buynode0@?$_List_alloc@U?$_List_base_types@U?$pair@$$CBV?$basic_string@DU?$char_traits@D@std@@V?$allocator@D@2@@std@@I@std@@V?$allocator@U?$pair@$$CBV?$basic_string@DU?$char_traits@D@std@@V?$allocator@D@2@@std@@I@std@@@2@@std@@@std@@QEAAPEAU?$_List_node@U?$pair@$$CBV?$basic_string@DU?$char_traits@D@std@@V?$allocator@D@2@@std@@I@std@@PEAX@2@PEAU32@0@Z 0000000140008eb0 f i preprocess.obj
 0001:00007f70       ?_Calculate_growth@?$basic_string@DU?$char_traits@D@std@@V?$allocator@D@2@@std@@QEBA_K_K@Z 0000000140008f70 f i preprocess.obj
 0001:00008030       ?_Calculate_growth@?$vector@V?$_List_unchecked_iterator@V?$_List_val@U?$_List_simple_types@U?$pair@$$CBIPEAUedge@@@std@@@std@@@std@@@std@@V?$allocator@V?$_List_unchecked_iterator@V?$_List_val@U?$_List_simple_types@U?$pair@$$CBIPEAUedge@@@std@@@std@@@std@@@std@@@2@@std@@AEBA_K_K@Z 0000000140009030 f i preprocess.obj
 0001:00008030       ?_Calculate_growth@?$vector@V?$_List_unchecked_iterator@V?$_List_val@U?$_List_simple_types@U?$pair@$$CBV?$basic_string@DU?$char_traits@D@std@@V?$allocator@D@2@@std@@I@std@@@std@@@std@@@std@@V?$allocator@V?$_List_unchecked_iterator@V?$_List_val@U?$_List_simple_types@U?$pair@$$CBV?$basic_string@DU?$char_traits@D@std@@V?$allocator@D@2@@std@@I@std@@@std@@@std@@@std@@@2@@std@@AEBA_K_K@Z 0000000140009030 f i preprocess.obj
 0001:00008030       ?_Calculate_growth@?$vector@V?$_List_unchecked_iterator@V?$_List_val@U?$_List_simple_types@U?$pair@$$CBIPEAUfile_edge@@@std@@@std@@@std@@@std@@V?$allocator@V?$_List_unchecked_iterator@V?$_List_val@U?$_List_simple_types@U?$pair@$$CBIPEAUfile_edge@@@std@@@std@@@std@@@std@@@2@@std@@AEBA_K_K@Z 0000000140009030 f i preprocess.obj
 0001:000080c0       ?_Change_array@?$vector@V?$_List_unchecked_iterator@V?$_List_val@U?$_List_simple_types@U?$pair@$$CBV?$basic_string@DU?$char_traits@D@std@@V?$allocator@D@2@@std@@I@std@@@std@@@std@@@std@@V?$allocator@V?$_List_unchecked_iterator@V?$_List_val@U?$_List_simple_types@U?$pair@$$CBV?$basic_string@DU?$char_traits@D@std@@V?$allocator@D@2@@std@@I@std@@@std@@@std@@@std@@@2@@std@@AEAAXQEAV?$_List_unchecked_iterator@V?$_List_val@U?$_List_simple_types@U?$pair@$$CBV?$basic_string@DU?$char_traits@D@std@@V?$allocator@D@2@@std@@I@std@@@std@@@std@@@2@_K1@Z 00000001400090c0 f i preprocess.obj
 0001:000080c0       ?_Change_array@?$vector@V?$_List_unchecked_iterator@V?$_List_val@U?$_List_simple_types@U?$pair@$$CBIPEAUedge@@@std@@@std@@@std@@@std@@V?$allocator@V?$_List_unchecked_iterator@V?$_List_val@U?$_List_simple_types@U?$pair@$$CBIPEAUedge@@@std@@@std@@@std@@@std@@@2@@std@@AEAAXQEAV?$_List_unchecked_iterator@V?$_List_val@U?$_List_simple_types@U?$pair@$$CBIPEAUedge@@@std@@@std@@@std@@@2@_K1@Z 00000001400090c0 f i preprocess.obj
 0001:000080c0       ?_Change_array@?$vector@V?$_List_unchecked_iterator@V?$_List_val@U?$_List_simple_types@U?$pair@$$CBIPEAUfile_edge@@@std@@@std@@@std@@@std@@V?$allocator@V?$_List_unchecked_iterator@V?$_List_val@U?$_List_simple_types@U?$pair@$$CBIPEAUfile_edge@@@std@@@std@@@std@@@std@@@2@@std@@AEAAXQEAV?$_List_unchecked_iterator@V?$_List_val@U?$_List_simple_types@U?$pair@$$CBIPEAUfile_edge@@@std@@@std@@@std@@@2@_K1@Z 00000001400090c0 f i preprocess.obj
 0001:000081d0       ?_Check_size@?$_Hash@V?$_Umap_traits@IPEAUedge@@V?$_Uhash_compare@IU?$hash@I@std@@U?$equal_to@I@2@@std@@V?$allocator@U?$pair@$$CBIPEAUedge@@@std@@@3@$0A@@std@@@std@@IEAAXXZ 00000001400091d0 f i preprocess.obj
 0001:00008280       ?_Check_size@?$_Hash@V?$_Umap_traits@IPEAUfile_edge@@V?$_Uhash_compare@IU?$hash@I@std@@U?$equal_to@I@2@@std@@V?$allocator@U?$pair@$$CBIPEAUfile_edge@@@std@@@3@$0A@@std@@@std@@IEAAXXZ 0000000140009280 f i preprocess.obj
 0001:00008330       ?_Check_size@?$_Hash@V?$_Umap_traits@V?$basic_string@DU?$char_traits@D@std@@V?$allocator@D@2@@std@@IV?$_Uhash_compare@V?$basic_string@DU?$char_traits@D@std@@V?$allocator@D@2@@std@@U?$hash@V?$basic_string@DU?$char_traits@D@std@@V?$allocator@D@2@@std@@@2@U?$equal_to@V?$basic_string@DU?$char_traits@D@std@@V?$allocator@D@2@@std@@@2@@2@V?$allocator@U?$pair@$$CBV?$basic_string@DU?$char_traits@D@std@@V?$allocator@D@2@@std@@I@std@@@2@$0A@@std@@@std@@IEAAXXZ 0000000140009330 f i preprocess.obj
 0001:000083e0       ?_Clrcont@_Iterator_base12@std@@QEAAXXZ 00000001400093e0 f i preprocess.obj
 0001:00008400       ?_Construct_lv_contents@?$basic_string@DU?$char_traits@D@std@@V?$allocator@D@2@@std@@QEAAXAEBV12@@Z 0000000140009400 f i preprocess.obj
 0001:00008570       ?_Destroy@?$vector@V?$_List_unchecked_iterator@V?$_List_val@U?$_List_simple_types@U?$pair@$$CBV?$basic_string@DU?$char_traits@D@std@@V?$allocator@D@2@@std@@I@std@@@std@@@std@@@std@@V?$allocator@V?$_List_unchecked_iterator@V?$_List_val@U?$_List_simple_types@U?$pair@$$CBV?$basic_string@DU?$char_traits@D@std@@V?$allocator@D@2@@std@@I@std@@@std@@@std@@@std@@@2@@std@@AEAAXPEAV?$_List_unchecked_iterator@V?$_List_val@U?$_List_simple_types@U?$pair@$$CBV?$basic_string@DU?$char_traits@D@std@@V?$allocator@D@2@@std@@I@std@@@std@@@std@@@2@0@Z 0000000140009570 f i preprocess.obj
 0001:00008570       ?_Destroy@?$vector@V?$_List_unchecked_iterator@V?$_List_val@U?$_List_simple_types@U?$pair@$$CBIPEAUfile_edge@@@std@@@std@@@std@@@std@@V?$allocator@V?$_List_unchecked_iterator@V?$_List_val@U?$_List_simple_types@U?$pair@$$CBIPEAUfile_edge@@@std@@@std@@@std@@@std@@@2@@std@@AEAAXPEAV?$_List_unchecked_iterator@V?$_List_val@U?$_List_simple_types@U?$pair@$$CBIPEAUfile_edge@@@std@@@std@@@std@@@2@0@Z 0000000140009570 f i preprocess.obj
 0001:00008570       ?_Destroy@?$vector@V?$_List_unchecked_iterator@V?$_List_val@U?$_List_simple_types@U?$pair@$$CBIPEAUedge@@@std@@@std@@@std@@@std@@V?$allocator@V?$_List_unchecked_iterator@V?$_List_val@U?$_List_simple_types@U?$pair@$$CBIPEAUedge@@@std@@@std@@@std@@@std@@@2@@std@@AEAAXPEAV?$_List_unchecked_iterator@V?$_List_val@U?$_List_simple_types@U?$pair@$$CBIPEAUedge@@@std@@@std@@@std@@@2@0@Z 0000000140009570 f i preprocess.obj
 0001:000085b0       ?_Destroy_if_node@?$_Hash@V?$_Umap_traits@IPEAUedge@@V?$_Uhash_compare@IU?$hash@I@std@@U?$equal_to@I@2@@std@@V?$allocator@U?$pair@$$CBIPEAUedge@@@std@@@3@$0A@@std@@@std@@IEAAXV?$_List_unchecked_iterator@V?$_List_val@U?$_List_simple_types@U?$pair@$$CBIPEAUedge@@@std@@@std@@@std@@@2@@Z 00000001400095b0 f i preprocess.obj
 0001:00008660       ?_Destroy_if_node@?$_Hash@V?$_Umap_traits@IPEAUfile_edge@@V?$_Uhash_compare@IU?$hash@I@std@@U?$equal_to@I@2@@std@@V?$allocator@U?$pair@$$CBIPEAUfile_edge@@@std@@@3@$0A@@std@@@std@@IEAAXV?$_List_unchecked_iterator@V?$_List_val@U?$_List_simple_types@U?$pair@$$CBIPEAUfile_edge@@@std@@@std@@@std@@@2@@Z 0000000140009660 f i preprocess.obj
 0001:00008710       ?_Destroy_if_node@?$_Hash@V?$_Umap_traits@V?$basic_string@DU?$char_traits@D@std@@V?$allocator@D@2@@std@@IV?$_Uhash_compare@V?$basic_string@DU?$char_traits@D@std@@V?$allocator@D@2@@std@@U?$hash@V?$basic_string@DU?$char_traits@D@std@@V?$allocator@D@2@@std@@@2@U?$equal_to@V?$basic_string@DU?$char_traits@D@std@@V?$allocator@D@2@@std@@@2@@2@V?$allocator@U?$pair@$$CBV?$basic_string@DU?$char_traits@D@std@@V?$allocator@D@2@@std@@I@std@@@2@$0A@@std@@@std@@IEAAXV?$_List_unchecked_iterator@V?$_List_val@U?$_List_simple_types@U?$pair@$$CBV?$basic_string@DU?$char_traits@D@std@@V?$allocator@D@2@@std@@I@std@@@std@@@std@@@2@@Z 0000000140009710 f i preprocess.obj
 0001:000087c0       ?_Do_hash@?$hash@I@std@@SA_KAEBI@Z 00000001400097c0 f i preprocess.obj
 0001:000087e0       ?_End@?$_Hash@V?$_Umap_traits@IPEAUedge@@V?$_Uhash_compare@IU?$hash@I@std@@U?$equal_to@I@2@@std@@V?$allocator@U?$pair@$$CBIPEAUedge@@@std@@@3@$0A@@std@@@std@@IEAA?AV?$_List_unchecked_iterator@V?$_List_val@U?$_List_simple_types@U?$pair@$$CBIPEAUedge@@@std@@@std@@@std@@@2@_K@Z 00000001400097e0 f i preprocess.obj
 0001:00008880       ?_End@?$_Hash@V?$_Umap_traits@IPEAUfile_edge@@V?$_Uhash_compare@IU?$hash@I@std@@U?$equal_to@I@2@@std@@V?$allocator@U?$pair@$$CBIPEAUfile_edge@@@std@@@3@$0A@@std@@@std@@IEAA?AV?$_List_unchecked_iterator@V?$_List_val@U?$_List_simple_types@U?$pair@$$CBIPEAUfile_edge@@@std@@@std@@@std@@@2@_K@Z 0000000140009880 f i preprocess.obj
 0001:00008920       ?_End@?$_Hash@V?$_Umap_traits@V?$basic_string@DU?$char_traits@D@std@@V?$allocator@D@2@@std@@IV?$_Uhash_compare@V?$basic_string@DU?$char_traits@D@std@@V?$allocator@D@2@@std@@U?$hash@V?$basic_string@DU?$char_traits@D@std@@V?$allocator@D@2@@std@@@2@U?$equal_to@V?$basic_string@DU?$char_traits@D@std@@V?$allocator@D@2@@std@@@2@@2@V?$allocator@U?$pair@$$CBV?$basic_string@DU?$char_traits@D@std@@V?$allocator@D@2@@std@@I@std@@@2@$0A@@std@@@std@@IEAA?AV?$_List_unchecked_iterator@V?$_List_val@U?$_List_simple_types@U?$pair@$$CBV?$basic_string@DU?$char_traits@D@std@@V?$allocator@D@2@@std@@I@std@@@std@@@std@@@2@_K@Z 0000000140009920 f i preprocess.obj
 0001:000089c0       ?_Equal@?$basic_string@DU?$char_traits@D@std@@V?$allocator@D@2@@std@@QEBA_NAEBV12@@Z 00000001400099c0 f i preprocess.obj
 0001:00008a40       ?_Erase_bucket@?$_Hash@V?$_Umap_traits@IPEAUedge@@V?$_Uhash_compare@IU?$hash@I@std@@U?$equal_to@I@2@@std@@V?$allocator@U?$pair@$$CBIPEAUedge@@@std@@@3@$0A@@std@@@std@@IEAAXV?$_List_iterator@V?$_List_val@U?$_List_simple_types@U?$pair@$$CBIPEAUedge@@@std@@@std@@@std@@@2@_K@Z 0000000140009a40 f i preprocess.obj
 0001:00008bb0       ?_Erase_bucket@?$_Hash@V?$_Umap_traits@IPEAUfile_edge@@V?$_Uhash_compare@IU?$hash@I@std@@U?$equal_to@I@2@@std@@V?$allocator@U?$pair@$$CBIPEAUfile_edge@@@std@@@3@$0A@@std@@@std@@IEAAXV?$_List_iterator@V?$_List_val@U?$_List_simple_types@U?$pair@$$CBIPEAUfile_edge@@@std@@@std@@@std@@@2@_K@Z 0000000140009bb0 f i preprocess.obj
 0001:00008d20       ?_Erase_bucket@?$_Hash@V?$_Umap_traits@V?$basic_string@DU?$char_traits@D@std@@V?$allocator@D@2@@std@@IV?$_Uhash_compare@V?$basic_string@DU?$char_traits@D@std@@V?$allocator@D@2@@std@@U?$hash@V?$basic_string@DU?$char_traits@D@std@@V?$allocator@D@2@@std@@@2@U?$equal_to@V?$basic_string@DU?$char_traits@D@std@@V?$allocator@D@2@@std@@@2@@2@V?$allocator@U?$pair@$$CBV?$basic_string@DU?$char_traits@D@std@@V?$allocator@D@2@@std@@I@std@@@2@$0A@@std@@@std@@IEAAXV?$_List_iterator@V?$_List_val@U?$_List_simple_types@U?$pair@$$CBV?$basic_string@DU?$char_traits@D@std@@V?$allocator@D@2@@std@@I@std@@@std@@@std@@@2@_K@Z 0000000140009d20 f i preprocess.obj
 0001:00008e90       ?_Fnv1a_append_bytes@std@@YA_K_KQEBE_K@Z 0000000140009e90 f i preprocess.obj
 0001:00008f10       ?_Free_proxy@?$_List_alloc@U?$_List_base_types@U?$pair@$$CBIPEAUedge@@@std@@V?$allocator@U?$pair@$$CBIPEAUedge@@@std@@@2@@std@@@std@@QEAAXXZ 0000000140009f10 f i preprocess.obj
 0001:00008f10       ?_Free_proxy@?$_Vector_alloc@U?$_Vec_base_types@V?$_List_unchecked_iterator@V?$_List_val@U?$_List_simple_types@U?$pair@$$CBIPEAUedge@@@std@@@std@@@std@@@std@@V?$allocator@V?$_List_unchecked_iterator@V?$_List_val@U?$_List_simple_types@U?$pair@$$CBIPEAUedge@@@std@@@std@@@std@@@std@@@2@@std@@@std@@QEAAXXZ 0000000140009f10 f i preprocess.obj
 0001:00008f10       ?_Free_proxy@?$_String_alloc@U?$_String_base_types@DV?$allocator@D@std@@@std@@@std@@QEAAXXZ 0000000140009f10 f i preprocess.obj
 0001:00008f10       ?_Free_proxy@?$_Vector_alloc@U?$_Vec_base_types@V?$_List_unchecked_iterator@V?$_List_val@U?$_List_simple_types@U?$pair@$$CBV?$basic_string@DU?$char_traits@D@std@@V?$allocator@D@2@@std@@I@std@@@std@@@std@@@std@@V?$allocator@V?$_List_unchecked_iterator@V?$_List_val@U?$_List_simple_types@U?$pair@$$CBV?$basic_string@DU?$char_traits@D@std@@V?$allocator@D@2@@std@@I@std@@@std@@@std@@@std@@@2@@std@@@std@@QEAAXXZ 0000000140009f10 f i preprocess.obj
 0001:00008f10       ?_Free_proxy@?$_List_alloc@U?$_List_base_types@U?$pair@$$CBV?$basic_string@DU?$char_traits@D@std@@V?$allocator@D@2@@std@@I@std@@V?$allocator@U?$pair@$$CBV?$basic_string@DU?$char_traits@D@std@@V?$allocator@D@2@@std@@I@std@@@2@@std@@@std@@QEAAXXZ 0000000140009f10 f i preprocess.obj
 0001:00008f10       ?_Free_proxy@?$_Vector_alloc@U?$_Vec_base_types@V?$_List_unchecked_iterator@V?$_List_val@U?$_List_simple_types@U?$pair@$$CBIPEAUfile_edge@@@std@@@std@@@std@@@std@@V?$allocator@V?$_List_unchecked_iterator@V?$_List_val@U?$_List_simple_types@U?$pair@$$CBIPEAUfile_edge@@@std@@@std@@@std@@@std@@@2@@std@@@std@@QEAAXXZ 0000000140009f10 f i preprocess.obj
 0001:00008f10       ?_Free_proxy@?$_List_alloc@U?$_List_base_types@U?$pair@$$CBIPEAUfile_edge@@@std@@V?$allocator@U?$pair@$$CBIPEAUfile_edge@@@std@@@2@@std@@@std@@QEAAXXZ 0000000140009f10 f i preprocess.obj
 0001:00008f80       ?_Freeheadnode@?$_List_alloc@U?$_List_base_types@U?$pair@$$CBIPEAUfile_edge@@@std@@V?$allocator@U?$pair@$$CBIPEAUfile_edge@@@std@@@2@@std@@@std@@QEAAXPEAU?$_List_node@U?$pair@$$CBIPEAUfile_edge@@@std@@PEAX@2@@Z 0000000140009f80 f i preprocess.obj
 0001:00008f80       ?_Freeheadnode@?$_List_alloc@U?$_List_base_types@U?$pair@$$CBIPEAUedge@@@std@@V?$allocator@U?$pair@$$CBIPEAUedge@@@std@@@2@@std@@@std@@QEAAXPEAU?$_List_node@U?$pair@$$CBIPEAUedge@@@std@@PEAX@2@@Z 0000000140009f80 f i preprocess.obj
 0001:00008fb0       ?_Freeheadnode@?$_List_alloc@U?$_List_base_types@U?$pair@$$CBV?$basic_string@DU?$char_traits@D@std@@V?$allocator@D@2@@std@@I@std@@V?$allocator@U?$pair@$$CBV?$basic_string@DU?$char_traits@D@std@@V?$allocator@D@2@@std@@I@std@@@2@@std@@@std@@QEAAXPEAU?$_List_node@U?$pair@$$CBV?$basic_string@DU?$char_traits@D@std@@V?$allocator@D@2@@std@@I@std@@PEAX@2@@Z 0000000140009fb0 f i preprocess.obj
 0001:00008fe0       ?_Freenode@?$_List_buy@U?$pair@$$CBIPEAUfile_edge@@@std@@V?$allocator@U?$pair@$$CBIPEAUfile_edge@@@std@@@2@@std@@QEAAXPEAU?$_List_node@U?$pair@$$CBIPEAUfile_edge@@@std@@PEAX@2@@Z 0000000140009fe0 f i preprocess.obj
 0001:00008fe0       ?_Freenode@?$_List_buy@U?$pair@$$CBIPEAUedge@@@std@@V?$allocator@U?$pair@$$CBIPEAUedge@@@std@@@2@@std@@QEAAXPEAU?$_List_node@U?$pair@$$CBIPEAUedge@@@std@@PEAX@2@@Z 0000000140009fe0 f i preprocess.obj
 0001:00009030       ?_Freenode@?$_List_buy@U?$pair@$$CBV?$basic_string@DU?$char_traits@D@std@@V?$allocator@D@2@@std@@I@std@@V?$allocator@U?$pair@$$CBV?$basic_string@DU?$char_traits@D@std@@V?$allocator@D@2@@std@@I@std@@@2@@std@@QEAAXPEAU?$_List_node@U?$pair@$$CBV?$basic_string@DU?$char_traits@D@std@@V?$allocator@D@2@@std@@I@std@@PEAX@2@@Z 000000014000a030 f i preprocess.obj
 0001:00009080       ?_Get_data@?$_Vector_alloc@U?$_Vec_base_types@V?$_List_unchecked_iterator@V?$_List_val@U?$_List_simple_types@U?$pair@$$CBIPEAUfile_edge@@@std@@@std@@@std@@@std@@V?$allocator@V?$_List_unchecked_iterator@V?$_List_val@U?$_List_simple_types@U?$pair@$$CBIPEAUfile_edge@@@std@@@std@@@std@@@std@@@2@@std@@@std@@QEAAAEAV?$_Vector_val@U?$_Simple_types@V?$_List_unchecked_iterator@V?$_List_val@U?$_List_simple_types@U?$pair@$$CBIPEAUfile_edge@@@std@@@std@@@std@@@std@@@std@@@2@XZ 000000014000a080 f i preprocess.obj
 0001:00009080       ?_Getal@?$_List_alloc@U?$_List_base_types@U?$pair@$$CBV?$basic_string@DU?$char_traits@D@std@@V?$allocator@D@2@@std@@I@std@@V?$allocator@U?$pair@$$CBV?$basic_string@DU?$char_traits@D@std@@V?$allocator@D@2@@std@@I@std@@@2@@std@@@std@@QEBAAEBV?$allocator@U?$_List_node@U?$pair@$$CBV?$basic_string@DU?$char_traits@D@std@@V?$allocator@D@2@@std@@I@std@@PEAX@std@@@2@XZ 000000014000a080 f i preprocess.obj
 0001:00009080       ?_Getal@?$_List_alloc@U?$_List_base_types@U?$pair@$$CBIPEAUfile_edge@@@std@@V?$allocator@U?$pair@$$CBIPEAUfile_edge@@@std@@@2@@std@@@std@@QEAAAEAV?$allocator@U?$_List_node@U?$pair@$$CBIPEAUfile_edge@@@std@@PEAX@std@@@2@XZ 000000014000a080 f i preprocess.obj
 0001:00009080       ?_Getal@?$_String_alloc@U?$_String_base_types@DV?$allocator@D@std@@@std@@@std@@QEBAAEBV?$allocator@D@2@XZ 000000014000a080 f i preprocess.obj
 0001:00009080       ?_Getal@?$_List_alloc@U?$_List_base_types@U?$pair@$$CBIPEAUedge@@@std@@V?$allocator@U?$pair@$$CBIPEAUedge@@@std@@@2@@std@@@std@@QEAAAEAV?$allocator@U?$_List_node@U?$pair@$$CBIPEAUedge@@@std@@PEAX@std@@@2@XZ 000000014000a080 f i preprocess.obj
 0001:00009080       ?_Get_data@?$_List_alloc@U?$_List_base_types@U?$pair@$$CBV?$basic_string@DU?$char_traits@D@std@@V?$allocator@D@2@@std@@I@std@@V?$allocator@U?$pair@$$CBV?$basic_string@DU?$char_traits@D@std@@V?$allocator@D@2@@std@@I@std@@@2@@std@@@std@@QEBAAEBV?$_List_val@U?$_List_simple_types@U?$pair@$$CBV?$basic_string@DU?$char_traits@D@std@@V?$allocator@D@2@@std@@I@std@@@std@@@2@XZ 000000014000a080 f i preprocess.obj
 0001:00009080       ?_Getal@?$_List_alloc@U?$_List_base_types@U?$pair@$$CBIPEAUfile_edge@@@std@@V?$allocator@U?$pair@$$CBIPEAUfile_edge@@@std@@@2@@std@@@std@@QEBAAEBV?$allocator@U?$_List_node@U?$pair@$$CBIPEAUfile_edge@@@std@@PEAX@std@@@2@XZ 000000014000a080 f i preprocess.obj
 0001:00009080       ?_Get_data@?$_List_alloc@U?$_List_base_types@U?$pair@$$CBV?$basic_string@DU?$char_traits@D@std@@V?$allocator@D@2@@std@@I@std@@V?$allocator@U?$pair@$$CBV?$basic_string@DU?$char_traits@D@std@@V?$allocator@D@2@@std@@I@std@@@2@@std@@@std@@QEAAAEAV?$_List_val@U?$_List_simple_types@U?$pair@$$CBV?$basic_string@DU?$char_traits@D@std@@V?$allocator@D@2@@std@@I@std@@@std@@@2@XZ 000000014000a080 f i preprocess.obj
 0001:00009080       ?_Get_data@?$_String_alloc@U?$_String_base_types@DV?$allocator@D@std@@@std@@@std@@QEBAAEBV?$_String_val@U?$_Simple_types@D@std@@@2@XZ 000000014000a080 f i preprocess.obj
 0001:00009080       ?_Get_data@?$_String_alloc@U?$_String_base_types@DV?$allocator@D@std@@@std@@@std@@QEAAAEAV?$_String_val@U?$_Simple_types@D@std@@@2@XZ 000000014000a080 f i preprocess.obj
 0001:00009080       ?_Getal@?$_Vector_alloc@U?$_Vec_base_types@V?$_List_unchecked_iterator@V?$_List_val@U?$_List_simple_types@U?$pair@$$CBIPEAUfile_edge@@@std@@@std@@@std@@@std@@V?$allocator@V?$_List_unchecked_iterator@V?$_List_val@U?$_List_simple_types@U?$pair@$$CBIPEAUfile_edge@@@std@@@std@@@std@@@std@@@2@@std@@@std@@QEBAAEBV?$allocator@V?$_List_unchecked_iterator@V?$_List_val@U?$_List_simple_types@U?$pair@$$CBIPEAUfile_edge@@@std@@@std@@@std@@@std@@@2@XZ 000000014000a080 f i preprocess.obj
 0001:00009080       ?_Gethash@?$_Uhash_compare@V?$basic_string@DU?$char_traits@D@std@@V?$allocator@D@2@@std@@U?$hash@V?$basic_string@DU?$char_traits@D@std@@V?$allocator@D@2@@std@@@2@U?$equal_to@V?$basic_string@DU?$char_traits@D@std@@V?$allocator@D@2@@std@@@2@@std@@QEBAAEBU?$hash@V?$basic_string@DU?$char_traits@D@std@@V?$allocator@D@2@@std@@@2@XZ 000000014000a080 f i preprocess.obj
 0001:00009080       ?_Get_data@?$_Vector_alloc@U?$_Vec_base_types@V?$_List_unchecked_iterator@V?$_List_val@U?$_List_simple_types@U?$pair@$$CBIPEAUedge@@@std@@@std@@@std@@@std@@V?$allocator@V?$_List_unchecked_iterator@V?$_List_val@U?$_List_simple_types@U?$pair@$$CBIPEAUedge@@@std@@@std@@@std@@@std@@@2@@std@@@std@@QEAAAEAV?$_Vector_val@U?$_Simple_types@V?$_List_unchecked_iterator@V?$_List_val@U?$_List_simple_types@U?$pair@$$CBIPEAUedge@@@std@@@std@@@std@@@std@@@std@@@2@XZ 000000014000a080 f i preprocess.obj
 0001:00009080       ?_Gethash@?$_Uhash_compare@IU?$hash@I@std@@U?$equal_to@I@2@@std@@QEBAAEBU?$hash@I@2@XZ 000000014000a080 f i preprocess.obj
 0001:00009080       ?_Getal@?$_String_alloc@U?$_String_base_types@DV?$allocator@D@std@@@std@@@std@@QEAAAEAV?$allocator@D@2@XZ 000000014000a080 f i preprocess.obj
 0001:00009080       ?_Get_data@?$_Vector_alloc@U?$_Vec_base_types@V?$_List_unchecked_iterator@V?$_List_val@U?$_List_simple_types@U?$pair@$$CBIPEAUedge@@@std@@@std@@@std@@@std@@V?$allocator@V?$_List_unchecked_iterator@V?$_List_val@U?$_List_simple_types@U?$pair@$$CBIPEAUedge@@@std@@@std@@@std@@@std@@@2@@std@@@std@@QEBAAEBV?$_Vector_val@U?$_Simple_types@V?$_List_unchecked_iterator@V?$_List_val@U?$_List_simple_types@U?$pair@$$CBIPEAUedge@@@std@@@std@@@std@@@std@@@std@@@2@XZ 000000014000a080 f i preprocess.obj
 0001:00009080       ?_Getal@?$_Vector_alloc@U?$_Vec_base_types@V?$_List_unchecked_iterator@V?$_List_val@U?$_List_simple_types@U?$pair@$$CBIPEAUedge@@@std@@@std@@@std@@@std@@V?$allocator@V?$_List_unchecked_iterator@V?$_List_val@U?$_List_simple_types@U?$pair@$$CBIPEAUedge@@@std@@@std@@@std@@@std@@@2@@std@@@std@@QEAAAEAV?$allocator@V?$_List_unchecked_iterator@V?$_List_val@U?$_List_simple_types@U?$pair@$$CBIPEAUedge@@@std@@@std@@@std@@@std@@@2@XZ 000000014000a080 f i preprocess.obj
 0001:00009080       ?_Get_data@?$_List_alloc@U?$_List_base_types@U?$pair@$$CBIPEAUfile_edge@@@std@@V?$allocator@U?$pair@$$CBIPEAUfile_edge@@@std@@@2@@std@@@std@@QEAAAEAV?$_List_val@U?$_List_simple_types@U?$pair@$$CBIPEAUfile_edge@@@std@@@std@@@2@XZ 000000014000a080 f i preprocess.obj
 0001:00009080       ?_Getal@?$_List_alloc@U?$_List_base_types@U?$pair@$$CBIPEAUedge@@@std@@V?$allocator@U?$pair@$$CBIPEAUedge@@@std@@@2@@std@@@std@@QEBAAEBV?$allocator@U?$_List_node@U?$pair@$$CBIPEAUedge@@@std@@PEAX@std@@@2@XZ 000000014000a080 f i preprocess.obj
 0001:00009080       ?_Getal@?$_Vector_alloc@U?$_Vec_base_types@V?$_List_unchecked_iterator@V?$_List_val@U?$_List_simple_types@U?$pair@$$CBIPEAUedge@@@std@@@std@@@std@@@std@@V?$allocator@V?$_List_unchecked_iterator@V?$_List_val@U?$_List_simple_types@U?$pair@$$CBIPEAUedge@@@std@@@std@@@std@@@std@@@2@@std@@@std@@QEBAAEBV?$allocator@V?$_List_unchecked_iterator@V?$_List_val@U?$_List_simple_types@U?$pair@$$CBIPEAUedge@@@std@@@std@@@std@@@std@@@2@XZ 000000014000a080 f i preprocess.obj
 0001:00009080       ?_Getal@?$_Vector_alloc@U?$_Vec_base_types@V?$_List_unchecked_iterator@V?$_List_val@U?$_List_simple_types@U?$pair@$$CBV?$basic_string@DU?$char_traits@D@std@@V?$allocator@D@2@@std@@I@std@@@std@@@std@@@std@@V?$allocator@V?$_List_unchecked_iterator@V?$_List_val@U?$_List_simple_types@U?$pair@$$CBV?$basic_string@DU?$char_traits@D@std@@V?$allocator@D@2@@std@@I@std@@@std@@@std@@@std@@@2@@std@@@std@@QEAAAEAV?$allocator@V?$_List_unchecked_iterator@V?$_List_val@U?$_List_simple_types@U?$pair@$$CBV?$basic_string@DU?$char_traits@D@std@@V?$allocator@D@2@@std@@I@std@@@std@@@std@@@std@@@2@XZ 000000014000a080 f i preprocess.obj
 0001:00009080       ?_Get_data@?$_List_alloc@U?$_List_base_types@U?$pair@$$CBIPEAUedge@@@std@@V?$allocator@U?$pair@$$CBIPEAUedge@@@std@@@2@@std@@@std@@QEAAAEAV?$_List_val@U?$_List_simple_types@U?$pair@$$CBIPEAUedge@@@std@@@std@@@2@XZ 000000014000a080 f i preprocess.obj
 0001:00009080       ?_Get_data@?$_List_alloc@U?$_List_base_types@U?$pair@$$CBIPEAUedge@@@std@@V?$allocator@U?$pair@$$CBIPEAUedge@@@std@@@2@@std@@@std@@QEBAAEBV?$_List_val@U?$_List_simple_types@U?$pair@$$CBIPEAUedge@@@std@@@std@@@2@XZ 000000014000a080 f i preprocess.obj
 0001:00009080       ?_Getal@?$_List_alloc@U?$_List_base_types@U?$pair@$$CBV?$basic_string@DU?$char_traits@D@std@@V?$allocator@D@2@@std@@I@std@@V?$allocator@U?$pair@$$CBV?$basic_string@DU?$char_traits@D@std@@V?$allocator@D@2@@std@@I@std@@@2@@std@@@std@@QEAAAEAV?$allocator@U?$_List_node@U?$pair@$$CBV?$basic_string@DU?$char_traits@D@std@@V?$allocator@D@2@@std@@I@std@@PEAX@std@@@2@XZ 000000014000a080 f i preprocess.obj
 0001:00009080       ?_Getal@?$_Vector_alloc@U?$_Vec_base_types@V?$_List_unchecked_iterator@V?$_List_val@U?$_List_simple_types@U?$pair@$$CBIPEAUfile_edge@@@std@@@std@@@std@@@std@@V?$allocator@V?$_List_unchecked_iterator@V?$_List_val@U?$_List_simple_types@U?$pair@$$CBIPEAUfile_edge@@@std@@@std@@@std@@@std@@@2@@std@@@std@@QEAAAEAV?$allocator@V?$_List_unchecked_iterator@V?$_List_val@U?$_List_simple_types@U?$pair@$$CBIPEAUfile_edge@@@std@@@std@@@std@@@std@@@2@XZ 000000014000a080 f i preprocess.obj
 0001:00009080       ?_Get_data@?$_Vector_alloc@U?$_Vec_base_types@V?$_List_unchecked_iterator@V?$_List_val@U?$_List_simple_types@U?$pair@$$CBV?$basic_string@DU?$char_traits@D@std@@V?$allocator@D@2@@std@@I@std@@@std@@@std@@@std@@V?$allocator@V?$_List_unchecked_iterator@V?$_List_val@U?$_List_simple_types@U?$pair@$$CBV?$basic_string@DU?$char_traits@D@std@@V?$allocator@D@2@@std@@I@std@@@std@@@std@@@std@@@2@@std@@@std@@QEBAAEBV?$_Vector_val@U?$_Simple_types@V?$_List_unchecked_iterator@V?$_List_val@U?$_List_simple_types@U?$pair@$$CBV?$basic_string@DU?$char_traits@D@std@@V?$allocator@D@2@@std@@I@std@@@std@@@std@@@std@@@std@@@2@XZ 000000014000a080 f i preprocess.obj
 0001:00009080       ?_Get_data@?$_Vector_alloc@U?$_Vec_base_types@V?$_List_unchecked_iterator@V?$_List_val@U?$_List_simple_types@U?$pair@$$CBV?$basic_string@DU?$char_traits@D@std@@V?$allocator@D@2@@std@@I@std@@@std@@@std@@@std@@V?$allocator@V?$_List_unchecked_iterator@V?$_List_val@U?$_List_simple_types@U?$pair@$$CBV?$basic_string@DU?$char_traits@D@std@@V?$allocator@D@2@@std@@I@std@@@std@@@std@@@std@@@2@@std@@@std@@QEAAAEAV?$_Vector_val@U?$_Simple_types@V?$_List_unchecked_iterator@V?$_List_val@U?$_List_simple_types@U?$pair@$$CBV?$basic_string@DU?$char_traits@D@std@@V?$allocator@D@2@@std@@I@std@@@std@@@std@@@std@@@std@@@2@XZ 000000014000a080 f i preprocess.obj
 0001:00009080       ?_Get_data@?$_Vector_alloc@U?$_Vec_base_types@V?$_List_unchecked_iterator@V?$_List_val@U?$_List_simple_types@U?$pair@$$CBIPEAUfile_edge@@@std@@@std@@@std@@@std@@V?$allocator@V?$_List_unchecked_iterator@V?$_List_val@U?$_List_simple_types@U?$pair@$$CBIPEAUfile_edge@@@std@@@std@@@std@@@std@@@2@@std@@@std@@QEBAAEBV?$_Vector_val@U?$_Simple_types@V?$_List_unchecked_iterator@V?$_List_val@U?$_List_simple_types@U?$pair@$$CBIPEAUfile_edge@@@std@@@std@@@std@@@std@@@std@@@2@XZ 000000014000a080 f i preprocess.obj
 0001:00009080       ?_Getal@?$_Vector_alloc@U?$_Vec_base_types@V?$_List_unchecked_iterator@V?$_List_val@U?$_List_simple_types@U?$pair@$$CBV?$basic_string@DU?$char_traits@D@std@@V?$allocator@D@2@@std@@I@std@@@std@@@std@@@std@@V?$allocator@V?$_List_unchecked_iterator@V?$_List_val@U?$_List_simple_types@U?$pair@$$CBV?$basic_string@DU?$char_traits@D@std@@V?$allocator@D@2@@std@@I@std@@@std@@@std@@@std@@@2@@std@@@std@@QEBAAEBV?$allocator@V?$_List_unchecked_iterator@V?$_List_val@U?$_List_simple_types@U?$pair@$$CBV?$basic_string@DU?$char_traits@D@std@@V?$allocator@D@2@@std@@I@std@@@std@@@std@@@std@@@2@XZ 000000014000a080 f i preprocess.obj
 0001:00009080       ?_Get_data@?$_List_alloc@U?$_List_base_types@U?$pair@$$CBIPEAUfile_edge@@@std@@V?$allocator@U?$pair@$$CBIPEAUfile_edge@@@std@@@2@@std@@@std@@QEBAAEBV?$_List_val@U?$_List_simple_types@U?$pair@$$CBIPEAUfile_edge@@@std@@@std@@@2@XZ 000000014000a080 f i preprocess.obj
 0001:000090a0       ?_Getkeyeq@?$_Uhash_compare@V?$basic_string@DU?$char_traits@D@std@@V?$allocator@D@2@@std@@U?$hash@V?$basic_string@DU?$char_traits@D@std@@V?$allocator@D@2@@std@@@2@U?$equal_to@V?$basic_string@DU?$char_traits@D@std@@V?$allocator@D@2@@std@@@2@@std@@QEBAAEBU?$equal_to@V?$basic_string@DU?$char_traits@D@std@@V?$allocator@D@2@@std@@@2@XZ 000000014000a0a0 f i preprocess.obj
 0001:000090a0       ?_Get_max_bucket_size@?$_Uhash_compare@V?$basic_string@DU?$char_traits@D@std@@V?$allocator@D@2@@std@@U?$hash@V?$basic_string@DU?$char_traits@D@std@@V?$allocator@D@2@@std@@@2@U?$equal_to@V?$basic_string@DU?$char_traits@D@std@@V?$allocator@D@2@@std@@@2@@std@@QEBAAEBMXZ 000000014000a0a0 f i preprocess.obj
 0001:000090a0       ?_Getkeyeq@?$_Uhash_compare@IU?$hash@I@std@@U?$equal_to@I@2@@std@@QEBAAEBU?$equal_to@I@2@XZ 000000014000a0a0 f i preprocess.obj
 0001:000090a0       ?_Get_max_bucket_size@?$_Uhash_compare@IU?$hash@I@std@@U?$equal_to@I@2@@std@@QEBAAEBMXZ 000000014000a0a0 f i preprocess.obj
 0001:000090a0       ?_Get_max_bucket_size@?$_Uhash_compare@IU?$hash@I@std@@U?$equal_to@I@2@@std@@QEAAAEAMXZ 000000014000a0a0 f i preprocess.obj
 0001:000090a0       ?_Get_max_bucket_size@?$_Uhash_compare@V?$basic_string@DU?$char_traits@D@std@@V?$allocator@D@2@@std@@U?$hash@V?$basic_string@DU?$char_traits@D@std@@V?$allocator@D@2@@std@@@2@U?$equal_to@V?$basic_string@DU?$char_traits@D@std@@V?$allocator@D@2@@std@@@2@@std@@QEAAAEAMXZ 000000014000a0a0 f i preprocess.obj
 0001:000090d0       ?_Getcont@_Iterator_base12@std@@QEBAPEBU_Container_base12@2@XZ 000000014000a0d0 f i preprocess.obj
 0001:00009110       ?_Getpfirst@?$_List_alloc@U?$_List_base_types@U?$pair@$$CBV?$basic_string@DU?$char_traits@D@std@@V?$allocator@D@2@@std@@I@std@@V?$allocator@U?$pair@$$CBV?$basic_string@DU?$char_traits@D@std@@V?$allocator@D@2@@std@@I@std@@@2@@std@@@std@@QEBAPEAPEAU_Iterator_base12@2@XZ 000000014000a110 f i preprocess.obj
 0001:00009110       ?_Getpfirst@?$_List_alloc@U?$_List_base_types@U?$pair@$$CBIPEAUedge@@@std@@V?$allocator@U?$pair@$$CBIPEAUedge@@@std@@@2@@std@@@std@@QEBAPEAPEAU_Iterator_base12@2@XZ 000000014000a110 f i preprocess.obj
 0001:00009110       ?_Getpfirst@?$_List_alloc@U?$_List_base_types@U?$pair@$$CBIPEAUfile_edge@@@std@@V?$allocator@U?$pair@$$CBIPEAUfile_edge@@@std@@@2@@std@@@std@@QEBAPEAPEAU_Iterator_base12@2@XZ 000000014000a110 f i preprocess.obj
 0001:00009130       ?_Getpfirst@_Container_base12@std@@QEBAPEAPEAU_Iterator_base12@2@XZ 000000014000a130 f i preprocess.obj
 0001:00009170       ?_Getpnext@_Iterator_base12@std@@QEAAPEAPEAU12@XZ 000000014000a170 f i preprocess.obj
 0001:00009170       ?GetLocaleT@_LocaleUpdate@@QEAAPEAU__crt_locale_pointers@@XZ 000000014000a170 f i libucrtd:debug_heap.obj
 0001:00009180       ?_Hashval@?$_Hash@V?$_Umap_traits@IPEAUfile_edge@@V?$_Uhash_compare@IU?$hash@I@std@@U?$equal_to@I@2@@std@@V?$allocator@U?$pair@$$CBIPEAUfile_edge@@@std@@@3@$0A@@std@@@std@@IEBA_KAEBI@Z 000000014000a180 f i preprocess.obj
 0001:00009180       ?_Hashval@?$_Hash@V?$_Umap_traits@IPEAUedge@@V?$_Uhash_compare@IU?$hash@I@std@@U?$equal_to@I@2@@std@@V?$allocator@U?$pair@$$CBIPEAUedge@@@std@@@3@$0A@@std@@@std@@IEBA_KAEBI@Z 000000014000a180 f i preprocess.obj
 0001:000091b0       ?_Hashval@?$_Hash@V?$_Umap_traits@V?$basic_string@DU?$char_traits@D@std@@V?$allocator@D@2@@std@@IV?$_Uhash_compare@V?$basic_string@DU?$char_traits@D@std@@V?$allocator@D@2@@std@@U?$hash@V?$basic_string@DU?$char_traits@D@std@@V?$allocator@D@2@@std@@@2@U?$equal_to@V?$basic_string@DU?$char_traits@D@std@@V?$allocator@D@2@@std@@@2@@2@V?$allocator@U?$pair@$$CBV?$basic_string@DU?$char_traits@D@std@@V?$allocator@D@2@@std@@I@std@@@2@$0A@@std@@@std@@IEBA_KAEBV?$basic_string@DU?$char_traits@D@std@@V?$allocator@D@2@@2@@Z 000000014000a1b0 f i preprocess.obj
 0001:000091e0       ?_Incsize@?$list@U?$pair@$$CBIPEAUfile_edge@@@std@@V?$allocator@U?$pair@$$CBIPEAUfile_edge@@@std@@@2@@std@@QEAAX_K@Z 000000014000a1e0 f i preprocess.obj
 0001:000091e0       ?_Incsize@?$list@U?$pair@$$CBIPEAUedge@@@std@@V?$allocator@U?$pair@$$CBIPEAUedge@@@std@@@2@@std@@QEAAX_K@Z 000000014000a1e0 f i preprocess.obj
 0001:00009260       ?_Incsize@?$list@U?$pair@$$CBV?$basic_string@DU?$char_traits@D@std@@V?$allocator@D@2@@std@@I@std@@V?$allocator@U?$pair@$$CBV?$basic_string@DU?$char_traits@D@std@@V?$allocator@D@2@@std@@I@std@@@2@@std@@QEAAX_K@Z 000000014000a260 f i preprocess.obj
 0001:000092e0       ?_Init@?$_Hash@V?$_Umap_traits@IPEAUfile_edge@@V?$_Uhash_compare@IU?$hash@I@std@@U?$equal_to@I@2@@std@@V?$allocator@U?$pair@$$CBIPEAUfile_edge@@@std@@@3@$0A@@std@@@std@@IEAAX_K@Z 000000014000a2e0 f i preprocess.obj
 0001:000092e0       ?_Init@?$_Hash@V?$_Umap_traits@V?$basic_string@DU?$char_traits@D@std@@V?$allocator@D@2@@std@@IV?$_Uhash_compare@V?$basic_string@DU?$char_traits@D@std@@V?$allocator@D@2@@std@@U?$hash@V?$basic_string@DU?$char_traits@D@std@@V?$allocator@D@2@@std@@@2@U?$equal_to@V?$basic_string@DU?$char_traits@D@std@@V?$allocator@D@2@@std@@@2@@2@V?$allocator@U?$pair@$$CBV?$basic_string@DU?$char_traits@D@std@@V?$allocator@D@2@@std@@I@std@@@2@$0A@@std@@@std@@IEAAX_K@Z 000000014000a2e0 f i preprocess.obj
 0001:000092e0       ?_Init@?$_Hash@V?$_Umap_traits@IPEAUedge@@V?$_Uhash_compare@IU?$hash@I@std@@U?$equal_to@I@2@@std@@V?$allocator@U?$pair@$$CBIPEAUedge@@@std@@@3@$0A@@std@@@std@@IEAAX_K@Z 000000014000a2e0 f i preprocess.obj
 0001:00009370       ?_Insert_bucket@?$_Hash@V?$_Umap_traits@IPEAUedge@@V?$_Uhash_compare@IU?$hash@I@std@@U?$equal_to@I@2@@std@@V?$allocator@U?$pair@$$CBIPEAUedge@@@std@@@3@$0A@@std@@@std@@IEAAXV?$_List_unchecked_iterator@V?$_List_val@U?$_List_simple_types@U?$pair@$$CBIPEAUedge@@@std@@@std@@@std@@@2@0_K@Z 000000014000a370 f i preprocess.obj
 0001:00009480       ?_Insert_bucket@?$_Hash@V?$_Umap_traits@IPEAUfile_edge@@V?$_Uhash_compare@IU?$hash@I@std@@U?$equal_to@I@2@@std@@V?$allocator@U?$pair@$$CBIPEAUfile_edge@@@std@@@3@$0A@@std@@@std@@IEAAXV?$_List_unchecked_iterator@V?$_List_val@U?$_List_simple_types@U?$pair@$$CBIPEAUfile_edge@@@std@@@std@@@std@@@2@0_K@Z 000000014000a480 f i preprocess.obj
 0001:00009590       ?_Insert_bucket@?$_Hash@V?$_Umap_traits@V?$basic_string@DU?$char_traits@D@std@@V?$allocator@D@2@@std@@IV?$_Uhash_compare@V?$basic_string@DU?$char_traits@D@std@@V?$allocator@D@2@@std@@U?$hash@V?$basic_string@DU?$char_traits@D@std@@V?$allocator@D@2@@std@@@2@U?$equal_to@V?$basic_string@DU?$char_traits@D@std@@V?$allocator@D@2@@std@@@2@@2@V?$allocator@U?$pair@$$CBV?$basic_string@DU?$char_traits@D@std@@V?$allocator@D@2@@std@@I@std@@@2@$0A@@std@@@std@@IEAAXV?$_List_unchecked_iterator@V?$_List_val@U?$_List_simple_types@U?$pair@$$CBV?$basic_string@DU?$char_traits@D@std@@V?$allocator@D@2@@std@@I@std@@@std@@@std@@@2@0_K@Z 000000014000a590 f i preprocess.obj
 0001:000096a0       ?_Large_string_engaged@?$_String_val@U?$_Simple_types@D@std@@@std@@QEBA_NXZ 000000014000a6a0 f i preprocess.obj
 0001:000096d0       ?_Make_iter@?$_Hash@V?$_Umap_traits@V?$basic_string@DU?$char_traits@D@std@@V?$allocator@D@2@@std@@IV?$_Uhash_compare@V?$basic_string@DU?$char_traits@D@std@@V?$allocator@D@2@@std@@U?$hash@V?$basic_string@DU?$char_traits@D@std@@V?$allocator@D@2@@std@@@2@U?$equal_to@V?$basic_string@DU?$char_traits@D@std@@V?$allocator@D@2@@std@@@2@@2@V?$allocator@U?$pair@$$CBV?$basic_string@DU?$char_traits@D@std@@V?$allocator@D@2@@std@@I@std@@@2@$0A@@std@@@std@@QEBA?AV?$_List_iterator@V?$_List_val@U?$_List_simple_types@U?$pair@$$CBV?$basic_string@DU?$char_traits@D@std@@V?$allocator@D@2@@std@@I@std@@@std@@@std@@@2@V?$_List_const_iterator@V?$_List_val@U?$_List_simple_types@U?$pair@$$CBV?$basic_string@DU?$char_traits@D@std@@V?$allocator@D@2@@std@@I@std@@@std@@@std@@@2@@Z 000000014000a6d0 f i preprocess.obj
 0001:000096d0       ?_Make_iter@?$_Hash@V?$_Umap_traits@IPEAUedge@@V?$_Uhash_compare@IU?$hash@I@std@@U?$equal_to@I@2@@std@@V?$allocator@U?$pair@$$CBIPEAUedge@@@std@@@3@$0A@@std@@@std@@QEBA?AV?$_List_iterator@V?$_List_val@U?$_List_simple_types@U?$pair@$$CBIPEAUedge@@@std@@@std@@@std@@@2@V?$_List_const_iterator@V?$_List_val@U?$_List_simple_types@U?$pair@$$CBIPEAUedge@@@std@@@std@@@std@@@2@@Z 000000014000a6d0 f i preprocess.obj
 0001:000096d0       ?_Make_iter@?$_Hash@V?$_Umap_traits@IPEAUfile_edge@@V?$_Uhash_compare@IU?$hash@I@std@@U?$equal_to@I@2@@std@@V?$allocator@U?$pair@$$CBIPEAUfile_edge@@@std@@@3@$0A@@std@@@std@@QEBA?AV?$_List_iterator@V?$_List_val@U?$_List_simple_types@U?$pair@$$CBIPEAUfile_edge@@@std@@@std@@@std@@@2@V?$_List_const_iterator@V?$_List_val@U?$_List_simple_types@U?$pair@$$CBIPEAUfile_edge@@@std@@@std@@@std@@@2@@Z 000000014000a6d0 f i preprocess.obj
 0001:00009750       ?_Make_iter@?$_Hash@V?$_Umap_traits@IPEAUfile_edge@@V?$_Uhash_compare@IU?$hash@I@std@@U?$equal_to@I@2@@std@@V?$allocator@U?$pair@$$CBIPEAUfile_edge@@@std@@@3@$0A@@std@@@std@@QEBA?AV?$_List_iterator@V?$_List_val@U?$_List_simple_types@U?$pair@$$CBIPEAUfile_edge@@@std@@@std@@@std@@@2@V?$_List_unchecked_const_iterator@V?$_List_val@U?$_List_simple_types@U?$pair@$$CBIPEAUfile_edge@@@std@@@std@@@std@@U_Iterator_base0@2@@2@@Z 000000014000a750 f i preprocess.obj
 0001:00009750       ?_Make_iter@?$_Hash@V?$_Umap_traits@IPEAUedge@@V?$_Uhash_compare@IU?$hash@I@std@@U?$equal_to@I@2@@std@@V?$allocator@U?$pair@$$CBIPEAUedge@@@std@@@3@$0A@@std@@@std@@QEBA?AV?$_List_iterator@V?$_List_val@U?$_List_simple_types@U?$pair@$$CBIPEAUedge@@@std@@@std@@@std@@@2@V?$_List_unchecked_const_iterator@V?$_List_val@U?$_List_simple_types@U?$pair@$$CBIPEAUedge@@@std@@@std@@@std@@U_Iterator_base0@2@@2@@Z 000000014000a750 f i preprocess.obj
 0001:00009750       ?_Make_iter@?$_Hash@V?$_Umap_traits@V?$basic_string@DU?$char_traits@D@std@@V?$allocator@D@2@@std@@IV?$_Uhash_compare@V?$basic_string@DU?$char_traits@D@std@@V?$allocator@D@2@@std@@U?$hash@V?$basic_string@DU?$char_traits@D@std@@V?$allocator@D@2@@std@@@2@U?$equal_to@V?$basic_string@DU?$char_traits@D@std@@V?$allocator@D@2@@std@@@2@@2@V?$allocator@U?$pair@$$CBV?$basic_string@DU?$char_traits@D@std@@V?$allocator@D@2@@std@@I@std@@@2@$0A@@std@@@std@@QEBA?AV?$_List_iterator@V?$_List_val@U?$_List_simple_types@U?$pair@$$CBV?$basic_string@DU?$char_traits@D@std@@V?$allocator@D@2@@std@@I@std@@@std@@@std@@@2@V?$_List_unchecked_const_iterator@V?$_List_val@U?$_List_simple_types@U?$pair@$$CBV?$basic_string@DU?$char_traits@D@std@@V?$allocator@D@2@@std@@I@std@@@std@@@std@@U_Iterator_base0@2@@2@@Z 000000014000a750 f i preprocess.obj
 0001:000097a0       ?_Make_iter@?$list@U?$pair@$$CBV?$basic_string@DU?$char_traits@D@std@@V?$allocator@D@2@@std@@I@std@@V?$allocator@U?$pair@$$CBV?$basic_string@DU?$char_traits@D@std@@V?$allocator@D@2@@std@@I@std@@@2@@std@@QEBA?AV?$_List_iterator@V?$_List_val@U?$_List_simple_types@U?$pair@$$CBV?$basic_string@DU?$char_traits@D@std@@V?$allocator@D@2@@std@@I@std@@@std@@@std@@@2@V?$_List_const_iterator@V?$_List_val@U?$_List_simple_types@U?$pair@$$CBV?$basic_string@DU?$char_traits@D@std@@V?$allocator@D@2@@std@@I@std@@@std@@@std@@@2@@Z 000000014000a7a0 f i preprocess.obj
 0001:000097a0       ?_Make_iter@?$list@U?$pair@$$CBIPEAUfile_edge@@@std@@V?$allocator@U?$pair@$$CBIPEAUfile_edge@@@std@@@2@@std@@QEBA?AV?$_List_iterator@V?$_List_val@U?$_List_simple_types@U?$pair@$$CBIPEAUfile_edge@@@std@@@std@@@std@@@2@V?$_List_const_iterator@V?$_List_val@U?$_List_simple_types@U?$pair@$$CBIPEAUfile_edge@@@std@@@std@@@std@@@2@@Z 000000014000a7a0 f i preprocess.obj
 0001:000097a0       ?_Make_iter@?$list@U?$pair@$$CBIPEAUedge@@@std@@V?$allocator@U?$pair@$$CBIPEAUedge@@@std@@@2@@std@@QEBA?AV?$_List_iterator@V?$_List_val@U?$_List_simple_types@U?$pair@$$CBIPEAUedge@@@std@@@std@@@std@@@2@V?$_List_const_iterator@V?$_List_val@U?$_List_simple_types@U?$pair@$$CBIPEAUedge@@@std@@@std@@@std@@@2@@Z 000000014000a7a0 f i preprocess.obj
 0001:00009800       ?_Make_iter@?$list@U?$pair@$$CBIPEAUedge@@@std@@V?$allocator@U?$pair@$$CBIPEAUedge@@@std@@@2@@std@@QEBA?AV?$_List_iterator@V?$_List_val@U?$_List_simple_types@U?$pair@$$CBIPEAUedge@@@std@@@std@@@std@@@2@V?$_List_unchecked_const_iterator@V?$_List_val@U?$_List_simple_types@U?$pair@$$CBIPEAUedge@@@std@@@std@@@std@@U_Iterator_base0@2@@2@@Z 000000014000a800 f i preprocess.obj
 0001:00009800       ?_Make_iter@?$list@U?$pair@$$CBIPEAUfile_edge@@@std@@V?$allocator@U?$pair@$$CBIPEAUfile_edge@@@std@@@2@@std@@QEBA?AV?$_List_iterator@V?$_List_val@U?$_List_simple_types@U?$pair@$$CBIPEAUfile_edge@@@std@@@std@@@std@@@2@V?$_List_unchecked_const_iterator@V?$_List_val@U?$_List_simple_types@U?$pair@$$CBIPEAUfile_edge@@@std@@@std@@@std@@U_Iterator_base0@2@@2@@Z 000000014000a800 f i preprocess.obj
 0001:00009800       ?_Make_iter@?$list@U?$pair@$$CBV?$basic_string@DU?$char_traits@D@std@@V?$allocator@D@2@@std@@I@std@@V?$allocator@U?$pair@$$CBV?$basic_string@DU?$char_traits@D@std@@V?$allocator@D@2@@std@@I@std@@@2@@std@@QEBA?AV?$_List_iterator@V?$_List_val@U?$_List_simple_types@U?$pair@$$CBV?$basic_string@DU?$char_traits@D@std@@V?$allocator@D@2@@std@@I@std@@@std@@@std@@@2@V?$_List_unchecked_const_iterator@V?$_List_val@U?$_List_simple_types@U?$pair@$$CBV?$basic_string@DU?$char_traits@D@std@@V?$allocator@D@2@@std@@I@std@@@std@@@std@@U_Iterator_base0@2@@2@@Z 000000014000a800 f i preprocess.obj
 0001:00009860       ?_Max_bucket_size@?$_Hash@V?$_Umap_traits@V?$basic_string@DU?$char_traits@D@std@@V?$allocator@D@2@@std@@IV?$_Uhash_compare@V?$basic_string@DU?$char_traits@D@std@@V?$allocator@D@2@@std@@U?$hash@V?$basic_string@DU?$char_traits@D@std@@V?$allocator@D@2@@std@@@2@U?$equal_to@V?$basic_string@DU?$char_traits@D@std@@V?$allocator@D@2@@std@@@2@@2@V?$allocator@U?$pair@$$CBV?$basic_string@DU?$char_traits@D@std@@V?$allocator@D@2@@std@@I@std@@@2@$0A@@std@@@std@@IEBAAEBMXZ 000000014000a860 f i preprocess.obj
 0001:00009860       ?_Max_bucket_size@?$_Hash@V?$_Umap_traits@IPEAUedge@@V?$_Uhash_compare@IU?$hash@I@std@@U?$equal_to@I@2@@std@@V?$allocator@U?$pair@$$CBIPEAUedge@@@std@@@3@$0A@@std@@@std@@IEBAAEBMXZ 000000014000a860 f i preprocess.obj
 0001:00009860       ?_Max_bucket_size@?$_Hash@V?$_Umap_traits@IPEAUedge@@V?$_Uhash_compare@IU?$hash@I@std@@U?$equal_to@I@2@@std@@V?$allocator@U?$pair@$$CBIPEAUedge@@@std@@@3@$0A@@std@@@std@@IEAAAEAMXZ 000000014000a860 f i preprocess.obj
 0001:00009860       ?_Max_bucket_size@?$_Hash@V?$_Umap_traits@IPEAUfile_edge@@V?$_Uhash_compare@IU?$hash@I@std@@U?$equal_to@I@2@@std@@V?$allocator@U?$pair@$$CBIPEAUfile_edge@@@std@@@3@$0A@@std@@@std@@IEBAAEBMXZ 000000014000a860 f i preprocess.obj
 0001:00009860       ?_Max_bucket_size@?$_Hash@V?$_Umap_traits@V?$basic_string@DU?$char_traits@D@std@@V?$allocator@D@2@@std@@IV?$_Uhash_compare@V?$basic_string@DU?$char_traits@D@std@@V?$allocator@D@2@@std@@U?$hash@V?$basic_string@DU?$char_traits@D@std@@V?$allocator@D@2@@std@@@2@U?$equal_to@V?$basic_string@DU?$char_traits@D@std@@V?$allocator@D@2@@std@@@2@@2@V?$allocator@U?$pair@$$CBV?$basic_string@DU?$char_traits@D@std@@V?$allocator@D@2@@std@@I@std@@@2@$0A@@std@@@std@@IEAAAEAMXZ 000000014000a860 f i preprocess.obj
 0001:00009860       ?_Max_bucket_size@?$_Hash@V?$_Umap_traits@IPEAUfile_edge@@V?$_Uhash_compare@IU?$hash@I@std@@U?$equal_to@I@2@@std@@V?$allocator@U?$pair@$$CBIPEAUfile_edge@@@std@@@3@$0A@@std@@@std@@IEAAAEAMXZ 000000014000a860 f i preprocess.obj
 0001:00009880       ?_Move_alloc@?$_List_alloc@U?$_List_base_types@U?$pair@$$CBV?$basic_string@DU?$char_traits@D@std@@V?$allocator@D@2@@std@@I@std@@V?$allocator@U?$pair@$$CBV?$basic_string@DU?$char_traits@D@std@@V?$allocator@D@2@@std@@I@std@@@2@@std@@@std@@QEAAXAEAV?$allocator@U?$_List_node@U?$pair@$$CBV?$basic_string@DU?$char_traits@D@std@@V?$allocator@D@2@@std@@I@std@@PEAX@std@@@2@@Z 000000014000a880 f i preprocess.obj
 0001:00009950       ?_Move_alloc@?$_Vector_alloc@U?$_Vec_base_types@V?$_List_unchecked_iterator@V?$_List_val@U?$_List_simple_types@U?$pair@$$CBV?$basic_string@DU?$char_traits@D@std@@V?$allocator@D@2@@std@@I@std@@@std@@@std@@@std@@V?$allocator@V?$_List_unchecked_iterator@V?$_List_val@U?$_List_simple_types@U?$pair@$$CBV?$basic_string@DU?$char_traits@D@std@@V?$allocator@D@2@@std@@I@std@@@std@@@std@@@std@@@2@@std@@@std@@QEAAXAEAV?$allocator@V?$_List_unchecked_iterator@V?$_List_val@U?$_List_simple_types@U?$pair@$$CBV?$basic_string@DU?$char_traits@D@std@@V?$allocator@D@2@@std@@I@std@@@std@@@std@@@std@@@2@@Z 000000014000a950 f i preprocess.obj
 0001:000099e0       ?_Move_assign_from@?$vector@V?$_List_unchecked_iterator@V?$_List_val@U?$_List_simple_types@U?$pair@$$CBV?$basic_string@DU?$char_traits@D@std@@V?$allocator@D@2@@std@@I@std@@@std@@@std@@@std@@V?$allocator@V?$_List_unchecked_iterator@V?$_List_val@U?$_List_simple_types@U?$pair@$$CBV?$basic_string@DU?$char_traits@D@std@@V?$allocator@D@2@@std@@I@std@@@std@@@std@@@std@@@2@@std@@AEAAX$$QEAV12@U?$integral_constant@_N$00@2@@Z 000000014000a9e0 f i preprocess.obj
 0001:00009a30       ?_Move_from@?$vector@V?$_List_unchecked_iterator@V?$_List_val@U?$_List_simple_types@U?$pair@$$CBV?$basic_string@DU?$char_traits@D@std@@V?$allocator@D@2@@std@@I@std@@@std@@@std@@@std@@V?$allocator@V?$_List_unchecked_iterator@V?$_List_val@U?$_List_simple_types@U?$pair@$$CBV?$basic_string@DU?$char_traits@D@std@@V?$allocator@D@2@@std@@I@std@@@std@@@std@@@std@@@2@@std@@AEAAX$$QEAV12@U?$integral_constant@_N$00@2@@Z 000000014000aa30 f i preprocess.obj
 0001:00009b10       ?_Myend@?$_Vector_alloc@U?$_Vec_base_types@V?$_List_unchecked_iterator@V?$_List_val@U?$_List_simple_types@U?$pair@$$CBV?$basic_string@DU?$char_traits@D@std@@V?$allocator@D@2@@std@@I@std@@@std@@@std@@@std@@V?$allocator@V?$_List_unchecked_iterator@V?$_List_val@U?$_List_simple_types@U?$pair@$$CBV?$basic_string@DU?$char_traits@D@std@@V?$allocator@D@2@@std@@I@std@@@std@@@std@@@std@@@2@@std@@@std@@QEBAAEBQEAV?$_List_unchecked_iterator@V?$_List_val@U?$_List_simple_types@U?$pair@$$CBV?$basic_string@DU?$char_traits@D@std@@V?$allocator@D@2@@std@@I@std@@@std@@@std@@@2@XZ 000000014000ab10 f i preprocess.obj
 0001:00009b10       ?_Myend@?$_Vector_alloc@U?$_Vec_base_types@V?$_List_unchecked_iterator@V?$_List_val@U?$_List_simple_types@U?$pair@$$CBIPEAUfile_edge@@@std@@@std@@@std@@@std@@V?$allocator@V?$_List_unchecked_iterator@V?$_List_val@U?$_List_simple_types@U?$pair@$$CBIPEAUfile_edge@@@std@@@std@@@std@@@std@@@2@@std@@@std@@QEAAAEAPEAV?$_List_unchecked_iterator@V?$_List_val@U?$_List_simple_types@U?$pair@$$CBIPEAUfile_edge@@@std@@@std@@@std@@@2@XZ 000000014000ab10 f i preprocess.obj
 0001:00009b10       ?_Myend@?$_Vector_alloc@U?$_Vec_base_types@V?$_List_unchecked_iterator@V?$_List_val@U?$_List_simple_types@U?$pair@$$CBV?$basic_string@DU?$char_traits@D@std@@V?$allocator@D@2@@std@@I@std@@@std@@@std@@@std@@V?$allocator@V?$_List_unchecked_iterator@V?$_List_val@U?$_List_simple_types@U?$pair@$$CBV?$basic_string@DU?$char_traits@D@std@@V?$allocator@D@2@@std@@I@std@@@std@@@std@@@std@@@2@@std@@@std@@QEAAAEAPEAV?$_List_unchecked_iterator@V?$_List_val@U?$_List_simple_types@U?$pair@$$CBV?$basic_string@DU?$char_traits@D@std@@V?$allocator@D@2@@std@@I@std@@@std@@@std@@@2@XZ 000000014000ab10 f i preprocess.obj
 0001:00009b10       ?_Myend@?$_Vector_alloc@U?$_Vec_base_types@V?$_List_unchecked_iterator@V?$_List_val@U?$_List_simple_types@U?$pair@$$CBIPEAUfile_edge@@@std@@@std@@@std@@@std@@V?$allocator@V?$_List_unchecked_iterator@V?$_List_val@U?$_List_simple_types@U?$pair@$$CBIPEAUfile_edge@@@std@@@std@@@std@@@std@@@2@@std@@@std@@QEBAAEBQEAV?$_List_unchecked_iterator@V?$_List_val@U?$_List_simple_types@U?$pair@$$CBIPEAUfile_edge@@@std@@@std@@@std@@@2@XZ 000000014000ab10 f i preprocess.obj
 0001:00009b10       ?_Myend@?$_Vector_alloc@U?$_Vec_base_types@V?$_List_unchecked_iterator@V?$_List_val@U?$_List_simple_types@U?$pair@$$CBIPEAUedge@@@std@@@std@@@std@@@std@@V?$allocator@V?$_List_unchecked_iterator@V?$_List_val@U?$_List_simple_types@U?$pair@$$CBIPEAUedge@@@std@@@std@@@std@@@std@@@2@@std@@@std@@QEBAAEBQEAV?$_List_unchecked_iterator@V?$_List_val@U?$_List_simple_types@U?$pair@$$CBIPEAUedge@@@std@@@std@@@std@@@2@XZ 000000014000ab10 f i preprocess.obj
 0001:00009b10       ?_Myend@?$_Vector_alloc@U?$_Vec_base_types@V?$_List_unchecked_iterator@V?$_List_val@U?$_List_simple_types@U?$pair@$$CBIPEAUedge@@@std@@@std@@@std@@@std@@V?$allocator@V?$_List_unchecked_iterator@V?$_List_val@U?$_List_simple_types@U?$pair@$$CBIPEAUedge@@@std@@@std@@@std@@@std@@@2@@std@@@std@@QEAAAEAPEAV?$_List_unchecked_iterator@V?$_List_val@U?$_List_simple_types@U?$pair@$$CBIPEAUedge@@@std@@@std@@@std@@@2@XZ 000000014000ab10 f i preprocess.obj
 0001:00009b30       ?_Myfirst@?$_Vector_alloc@U?$_Vec_base_types@V?$_List_unchecked_iterator@V?$_List_val@U?$_List_simple_types@U?$pair@$$CBIPEAUfile_edge@@@std@@@std@@@std@@@std@@V?$allocator@V?$_List_unchecked_iterator@V?$_List_val@U?$_List_simple_types@U?$pair@$$CBIPEAUfile_edge@@@std@@@std@@@std@@@std@@@2@@std@@@std@@QEAAAEAPEAV?$_List_unchecked_iterator@V?$_List_val@U?$_List_simple_types@U?$pair@$$CBIPEAUfile_edge@@@std@@@std@@@std@@@2@XZ 000000014000ab30 f i preprocess.obj
 0001:00009b30       ?_Myfirst@?$_Vector_alloc@U?$_Vec_base_types@V?$_List_unchecked_iterator@V?$_List_val@U?$_List_simple_types@U?$pair@$$CBV?$basic_string@DU?$char_traits@D@std@@V?$allocator@D@2@@std@@I@std@@@std@@@std@@@std@@V?$allocator@V?$_List_unchecked_iterator@V?$_List_val@U?$_List_simple_types@U?$pair@$$CBV?$basic_string@DU?$char_traits@D@std@@V?$allocator@D@2@@std@@I@std@@@std@@@std@@@std@@@2@@std@@@std@@QEAAAEAPEAV?$_List_unchecked_iterator@V?$_List_val@U?$_List_simple_types@U?$pair@$$CBV?$basic_string@DU?$char_traits@D@std@@V?$allocator@D@2@@std@@I@std@@@std@@@std@@@2@XZ 000000014000ab30 f i preprocess.obj
 0001:00009b30       ?_Myfirst@?$_Vector_alloc@U?$_Vec_base_types@V?$_List_unchecked_iterator@V?$_List_val@U?$_List_simple_types@U?$pair@$$CBV?$basic_string@DU?$char_traits@D@std@@V?$allocator@D@2@@std@@I@std@@@std@@@std@@@std@@V?$allocator@V?$_List_unchecked_iterator@V?$_List_val@U?$_List_simple_types@U?$pair@$$CBV?$basic_string@DU?$char_traits@D@std@@V?$allocator@D@2@@std@@I@std@@@std@@@std@@@std@@@2@@std@@@std@@QEBAAEBQEAV?$_List_unchecked_iterator@V?$_List_val@U?$_List_simple_types@U?$pair@$$CBV?$basic_string@DU?$char_traits@D@std@@V?$allocator@D@2@@std@@I@std@@@std@@@std@@@2@XZ 000000014000ab30 f i preprocess.obj
 0001:00009b30       ?_Myhead@?$_List_alloc@U?$_List_base_types@U?$pair@$$CBV?$basic_string@DU?$char_traits@D@std@@V?$allocator@D@2@@std@@I@std@@V?$allocator@U?$pair@$$CBV?$basic_string@DU?$char_traits@D@std@@V?$allocator@D@2@@std@@I@std@@@2@@std@@@std@@QEAAAEAPEAU?$_List_node@U?$pair@$$CBV?$basic_string@DU?$char_traits@D@std@@V?$allocator@D@2@@std@@I@std@@PEAX@2@XZ 000000014000ab30 f i preprocess.obj
 0001:00009b30       ?_Myfirst@?$_Vector_alloc@U?$_Vec_base_types@V?$_List_unchecked_iterator@V?$_List_val@U?$_List_simple_types@U?$pair@$$CBIPEAUedge@@@std@@@std@@@std@@@std@@V?$allocator@V?$_List_unchecked_iterator@V?$_List_val@U?$_List_simple_types@U?$pair@$$CBIPEAUedge@@@std@@@std@@@std@@@std@@@2@@std@@@std@@QEAAAEAPEAV?$_List_unchecked_iterator@V?$_List_val@U?$_List_simple_types@U?$pair@$$CBIPEAUedge@@@std@@@std@@@std@@@2@XZ 000000014000ab30 f i preprocess.obj
 0001:00009b30       ?_Myfirst@?$_Vector_alloc@U?$_Vec_base_types@V?$_List_unchecked_iterator@V?$_List_val@U?$_List_simple_types@U?$pair@$$CBIPEAUfile_edge@@@std@@@std@@@std@@@std@@V?$allocator@V?$_List_unchecked_iterator@V?$_List_val@U?$_List_simple_types@U?$pair@$$CBIPEAUfile_edge@@@std@@@std@@@std@@@std@@@2@@std@@@std@@QEBAAEBQEAV?$_List_unchecked_iterator@V?$_List_val@U?$_List_simple_types@U?$pair@$$CBIPEAUfile_edge@@@std@@@std@@@std@@@2@XZ 000000014000ab30 f i preprocess.obj
 0001:00009b30       ?_Myhead@?$_List_alloc@U?$_List_base_types@U?$pair@$$CBIPEAUedge@@@std@@V?$allocator@U?$pair@$$CBIPEAUedge@@@std@@@2@@std@@@std@@QEAAAEAPEAU?$_List_node@U?$pair@$$CBIPEAUedge@@@std@@PEAX@2@XZ 000000014000ab30 f i preprocess.obj
 0001:00009b30       ?_Myhead@?$_List_alloc@U?$_List_base_types@U?$pair@$$CBIPEAUfile_edge@@@std@@V?$allocator@U?$pair@$$CBIPEAUfile_edge@@@std@@@2@@std@@@std@@QEAAAEAPEAU?$_List_node@U?$pair@$$CBIPEAUfile_edge@@@std@@PEAX@2@XZ 000000014000ab30 f i preprocess.obj
 0001:00009b30       ?_Myfirst@?$_Vector_alloc@U?$_Vec_base_types@V?$_List_unchecked_iterator@V?$_List_val@U?$_List_simple_types@U?$pair@$$CBIPEAUedge@@@std@@@std@@@std@@@std@@V?$allocator@V?$_List_unchecked_iterator@V?$_List_val@U?$_List_simple_types@U?$pair@$$CBIPEAUedge@@@std@@@std@@@std@@@std@@@2@@std@@@std@@QEBAAEBQEAV?$_List_unchecked_iterator@V?$_List_val@U?$_List_simple_types@U?$pair@$$CBIPEAUedge@@@std@@@std@@@std@@@2@XZ 000000014000ab30 f i preprocess.obj
 0001:00009b50       ?_Mylast@?$_Vector_alloc@U?$_Vec_base_types@V?$_List_unchecked_iterator@V?$_List_val@U?$_List_simple_types@U?$pair@$$CBIPEAUfile_edge@@@std@@@std@@@std@@@std@@V?$allocator@V?$_List_unchecked_iterator@V?$_List_val@U?$_List_simple_types@U?$pair@$$CBIPEAUfile_edge@@@std@@@std@@@std@@@std@@@2@@std@@@std@@QEAAAEAPEAV?$_List_unchecked_iterator@V?$_List_val@U?$_List_simple_types@U?$pair@$$CBIPEAUfile_edge@@@std@@@std@@@std@@@2@XZ 000000014000ab50 f i preprocess.obj
 0001:00009b50       ?_Mysize@?$_List_alloc@U?$_List_base_types@U?$pair@$$CBV?$basic_string@DU?$char_traits@D@std@@V?$allocator@D@2@@std@@I@std@@V?$allocator@U?$pair@$$CBV?$basic_string@DU?$char_traits@D@std@@V?$allocator@D@2@@std@@I@std@@@2@@std@@@std@@QEAAAEA_KXZ 000000014000ab50 f i preprocess.obj
 0001:00009b50       ?_Mylast@?$_Vector_alloc@U?$_Vec_base_types@V?$_List_unchecked_iterator@V?$_List_val@U?$_List_simple_types@U?$pair@$$CBIPEAUedge@@@std@@@std@@@std@@@std@@V?$allocator@V?$_List_unchecked_iterator@V?$_List_val@U?$_List_simple_types@U?$pair@$$CBIPEAUedge@@@std@@@std@@@std@@@std@@@2@@std@@@std@@QEAAAEAPEAV?$_List_unchecked_iterator@V?$_List_val@U?$_List_simple_types@U?$pair@$$CBIPEAUedge@@@std@@@std@@@std@@@2@XZ 000000014000ab50 f i preprocess.obj
 0001:00009b50       ?_Mysize@?$_List_alloc@U?$_List_base_types@U?$pair@$$CBV?$basic_string@DU?$char_traits@D@std@@V?$allocator@D@2@@std@@I@std@@V?$allocator@U?$pair@$$CBV?$basic_string@DU?$char_traits@D@std@@V?$allocator@D@2@@std@@I@std@@@2@@std@@@std@@QEBAAEB_KXZ 000000014000ab50 f i preprocess.obj
 0001:00009b50       ?_Mylast@?$_Vector_alloc@U?$_Vec_base_types@V?$_List_unchecked_iterator@V?$_List_val@U?$_List_simple_types@U?$pair@$$CBIPEAUfile_edge@@@std@@@std@@@std@@@std@@V?$allocator@V?$_List_unchecked_iterator@V?$_List_val@U?$_List_simple_types@U?$pair@$$CBIPEAUfile_edge@@@std@@@std@@@std@@@std@@@2@@std@@@std@@QEBAAEBQEAV?$_List_unchecked_iterator@V?$_List_val@U?$_List_simple_types@U?$pair@$$CBIPEAUfile_edge@@@std@@@std@@@std@@@2@XZ 000000014000ab50 f i preprocess.obj
 0001:00009b50       ?_Mysize@?$_List_alloc@U?$_List_base_types@U?$pair@$$CBIPEAUedge@@@std@@V?$allocator@U?$pair@$$CBIPEAUedge@@@std@@@2@@std@@@std@@QEAAAEA_KXZ 000000014000ab50 f i preprocess.obj
 0001:00009b50       ?_Mylast@?$_Vector_alloc@U?$_Vec_base_types@V?$_List_unchecked_iterator@V?$_List_val@U?$_List_simple_types@U?$pair@$$CBIPEAUedge@@@std@@@std@@@std@@@std@@V?$allocator@V?$_List_unchecked_iterator@V?$_List_val@U?$_List_simple_types@U?$pair@$$CBIPEAUedge@@@std@@@std@@@std@@@std@@@2@@std@@@std@@QEBAAEBQEAV?$_List_unchecked_iterator@V?$_List_val@U?$_List_simple_types@U?$pair@$$CBIPEAUedge@@@std@@@std@@@std@@@2@XZ 000000014000ab50 f i preprocess.obj
 0001:00009b50       ?_Mysize@?$_List_alloc@U?$_List_base_types@U?$pair@$$CBIPEAUfile_edge@@@std@@V?$allocator@U?$pair@$$CBIPEAUfile_edge@@@std@@@2@@std@@@std@@QEBAAEB_KXZ 000000014000ab50 f i preprocess.obj
 0001:00009b50       ?_Mylast@?$_Vector_alloc@U?$_Vec_base_types@V?$_List_unchecked_iterator@V?$_List_val@U?$_List_simple_types@U?$pair@$$CBV?$basic_string@DU?$char_traits@D@std@@V?$allocator@D@2@@std@@I@std@@@std@@@std@@@std@@V?$allocator@V?$_List_unchecked_iterator@V?$_List_val@U?$_List_simple_types@U?$pair@$$CBV?$basic_string@DU?$char_traits@D@std@@V?$allocator@D@2@@std@@I@std@@@std@@@std@@@std@@@2@@std@@@std@@QEBAAEBQEAV?$_List_unchecked_iterator@V?$_List_val@U?$_List_simple_types@U?$pair@$$CBV?$basic_string@DU?$char_traits@D@std@@V?$allocator@D@2@@std@@I@std@@@std@@@std@@@2@XZ 000000014000ab50 f i preprocess.obj
 0001:00009b50       ?_Mysize@?$_List_alloc@U?$_List_base_types@U?$pair@$$CBIPEAUedge@@@std@@V?$allocator@U?$pair@$$CBIPEAUedge@@@std@@@2@@std@@@std@@QEBAAEB_KXZ 000000014000ab50 f i preprocess.obj
 0001:00009b50       ?_Mysize@?$_List_alloc@U?$_List_base_types@U?$pair@$$CBIPEAUfile_edge@@@std@@V?$allocator@U?$pair@$$CBIPEAUfile_edge@@@std@@@2@@std@@@std@@QEAAAEA_KXZ 000000014000ab50 f i preprocess.obj
 0001:00009b50       ?_Mylast@?$_Vector_alloc@U?$_Vec_base_types@V?$_List_unchecked_iterator@V?$_List_val@U?$_List_simple_types@U?$pair@$$CBV?$basic_string@DU?$char_traits@D@std@@V?$allocator@D@2@@std@@I@std@@@std@@@std@@@std@@V?$allocator@V?$_List_unchecked_iterator@V?$_List_val@U?$_List_simple_types@U?$pair@$$CBV?$basic_string@DU?$char_traits@D@std@@V?$allocator@D@2@@std@@I@std@@@std@@@std@@@std@@@2@@std@@@std@@QEAAAEAPEAV?$_List_unchecked_iterator@V?$_List_val@U?$_List_simple_types@U?$pair@$$CBV?$basic_string@DU?$char_traits@D@std@@V?$allocator@D@2@@std@@I@std@@@std@@@std@@@2@XZ 000000014000ab50 f i preprocess.obj
 0001:00009b70       ?_Myproxy@?$_List_alloc@U?$_List_base_types@U?$pair@$$CBIPEAUedge@@@std@@V?$allocator@U?$pair@$$CBIPEAUedge@@@std@@@2@@std@@@std@@QEAAAEAPEAU_Container_proxy@2@XZ 000000014000ab70 f i preprocess.obj
 0001:00009b70       ?_Myproxy@?$_List_alloc@U?$_List_base_types@U?$pair@$$CBV?$basic_string@DU?$char_traits@D@std@@V?$allocator@D@2@@std@@I@std@@V?$allocator@U?$pair@$$CBV?$basic_string@DU?$char_traits@D@std@@V?$allocator@D@2@@std@@I@std@@@2@@std@@@std@@QEAAAEAPEAU_Container_proxy@2@XZ 000000014000ab70 f i preprocess.obj
 0001:00009b70       ?_Myproxy@?$_Vector_alloc@U?$_Vec_base_types@V?$_List_unchecked_iterator@V?$_List_val@U?$_List_simple_types@U?$pair@$$CBIPEAUfile_edge@@@std@@@std@@@std@@@std@@V?$allocator@V?$_List_unchecked_iterator@V?$_List_val@U?$_List_simple_types@U?$pair@$$CBIPEAUfile_edge@@@std@@@std@@@std@@@std@@@2@@std@@@std@@QEAAAEAPEAU_Container_proxy@2@XZ 000000014000ab70 f i preprocess.obj
 0001:00009b70       ?_Myproxy@?$_List_alloc@U?$_List_base_types@U?$pair@$$CBIPEAUfile_edge@@@std@@V?$allocator@U?$pair@$$CBIPEAUfile_edge@@@std@@@2@@std@@@std@@QEAAAEAPEAU_Container_proxy@2@XZ 000000014000ab70 f i preprocess.obj
 0001:00009b70       ?_Myproxy@?$_Vector_alloc@U?$_Vec_base_types@V?$_List_unchecked_iterator@V?$_List_val@U?$_List_simple_types@U?$pair@$$CBIPEAUedge@@@std@@@std@@@std@@@std@@V?$allocator@V?$_List_unchecked_iterator@V?$_List_val@U?$_List_simple_types@U?$pair@$$CBIPEAUedge@@@std@@@std@@@std@@@std@@@2@@std@@@std@@QEAAAEAPEAU_Container_proxy@2@XZ 000000014000ab70 f i preprocess.obj
 0001:00009b70       ?_Myproxy@?$_String_alloc@U?$_String_base_types@DV?$allocator@D@std@@@std@@@std@@QEAAAEAPEAU_Container_proxy@2@XZ 000000014000ab70 f i preprocess.obj
 0001:00009b70       ?_Myproxy@?$_Vector_alloc@U?$_Vec_base_types@V?$_List_unchecked_iterator@V?$_List_val@U?$_List_simple_types@U?$pair@$$CBV?$basic_string@DU?$char_traits@D@std@@V?$allocator@D@2@@std@@I@std@@@std@@@std@@@std@@V?$allocator@V?$_List_unchecked_iterator@V?$_List_val@U?$_List_simple_types@U?$pair@$$CBV?$basic_string@DU?$char_traits@D@std@@V?$allocator@D@2@@std@@I@std@@@std@@@std@@@std@@@2@@std@@@std@@QEAAAEAPEAU_Container_proxy@2@XZ 000000014000ab70 f i preprocess.obj
 0001:00009b90       ?_Myptr@?$_String_val@U?$_Simple_types@D@std@@@std@@QEAAPEADXZ 000000014000ab90 f i preprocess.obj
 0001:00009b90       ?_Myptr@?$_String_val@U?$_Simple_types@D@std@@@std@@QEBAPEBDXZ 000000014000ab90 f i preprocess.obj
 0001:00009be0       ?_Orphan_all@?$_List_alloc@U?$_List_base_types@U?$pair@$$CBV?$basic_string@DU?$char_traits@D@std@@V?$allocator@D@2@@std@@I@std@@V?$allocator@U?$pair@$$CBV?$basic_string@DU?$char_traits@D@std@@V?$allocator@D@2@@std@@I@std@@@2@@std@@@std@@QEAAXXZ 000000014000abe0 f i preprocess.obj
 0001:00009be0       ?_Orphan_all@?$_List_alloc@U?$_List_base_types@U?$pair@$$CBIPEAUedge@@@std@@V?$allocator@U?$pair@$$CBIPEAUedge@@@std@@@2@@std@@@std@@QEAAXXZ 000000014000abe0 f i preprocess.obj
 0001:00009be0       ?_Orphan_all@?$_Vector_alloc@U?$_Vec_base_types@V?$_List_unchecked_iterator@V?$_List_val@U?$_List_simple_types@U?$pair@$$CBIPEAUedge@@@std@@@std@@@std@@@std@@V?$allocator@V?$_List_unchecked_iterator@V?$_List_val@U?$_List_simple_types@U?$pair@$$CBIPEAUedge@@@std@@@std@@@std@@@std@@@2@@std@@@std@@QEAAXXZ 000000014000abe0 f i preprocess.obj
 0001:00009be0       ?_Orphan_all@?$_List_alloc@U?$_List_base_types@U?$pair@$$CBIPEAUfile_edge@@@std@@V?$allocator@U?$pair@$$CBIPEAUfile_edge@@@std@@@2@@std@@@std@@QEAAXXZ 000000014000abe0 f i preprocess.obj
 0001:00009be0       ?_Orphan_all@?$_String_alloc@U?$_String_base_types@DV?$allocator@D@std@@@std@@@std@@QEAAXXZ 000000014000abe0 f i preprocess.obj
 0001:00009be0       ?_Orphan_all@?$_Vector_alloc@U?$_Vec_base_types@V?$_List_unchecked_iterator@V?$_List_val@U?$_List_simple_types@U?$pair@$$CBIPEAUfile_edge@@@std@@@std@@@std@@@std@@V?$allocator@V?$_List_unchecked_iterator@V?$_List_val@U?$_List_simple_types@U?$pair@$$CBIPEAUfile_edge@@@std@@@std@@@std@@@std@@@2@@std@@@std@@QEAAXXZ 000000014000abe0 f i preprocess.obj
 0001:00009be0       ?_Orphan_all@?$_Vector_alloc@U?$_Vec_base_types@V?$_List_unchecked_iterator@V?$_List_val@U?$_List_simple_types@U?$pair@$$CBV?$basic_string@DU?$char_traits@D@std@@V?$allocator@D@2@@std@@I@std@@@std@@@std@@@std@@V?$allocator@V?$_List_unchecked_iterator@V?$_List_val@U?$_List_simple_types@U?$pair@$$CBV?$basic_string@DU?$char_traits@D@std@@V?$allocator@D@2@@std@@I@std@@@std@@@std@@@std@@@2@@std@@@std@@QEAAXXZ 000000014000abe0 f i preprocess.obj
 0001:00009c00       ?_Orphan_all@_Container_base12@std@@QEAAXXZ 000000014000ac00 f i preprocess.obj
 0001:00009c90       ?_Orphan_me@_Iterator_base12@std@@QEAAXXZ 000000014000ac90 f i preprocess.obj
 0001:00009d90       ?_Orphan_ptr@?$list@U?$pair@$$CBIPEAUedge@@@std@@V?$allocator@U?$pair@$$CBIPEAUedge@@@std@@@2@@std@@QEAAXPEAU?$_List_node@U?$pair@$$CBIPEAUedge@@@std@@PEAX@2@@Z 000000014000ad90 f i preprocess.obj
 0001:00009d90       ?_Orphan_ptr@?$list@U?$pair@$$CBIPEAUfile_edge@@@std@@V?$allocator@U?$pair@$$CBIPEAUfile_edge@@@std@@@2@@std@@QEAAXPEAU?$_List_node@U?$pair@$$CBIPEAUfile_edge@@@std@@PEAX@2@@Z 000000014000ad90 f i preprocess.obj
 0001:00009d90       ?_Orphan_ptr@?$list@U?$pair@$$CBV?$basic_string@DU?$char_traits@D@std@@V?$allocator@D@2@@std@@I@std@@V?$allocator@U?$pair@$$CBV?$basic_string@DU?$char_traits@D@std@@V?$allocator@D@2@@std@@I@std@@@2@@std@@QEAAXPEAU?$_List_node@U?$pair@$$CBV?$basic_string@DU?$char_traits@D@std@@V?$allocator@D@2@@std@@I@std@@PEAX@2@@Z 000000014000ad90 f i preprocess.obj
 0001:00009e70       ?_Reallocate_exactly@?$vector@V?$_List_unchecked_iterator@V?$_List_val@U?$_List_simple_types@U?$pair@$$CBV?$basic_string@DU?$char_traits@D@std@@V?$allocator@D@2@@std@@I@std@@@std@@@std@@@std@@V?$allocator@V?$_List_unchecked_iterator@V?$_List_val@U?$_List_simple_types@U?$pair@$$CBV?$basic_string@DU?$char_traits@D@std@@V?$allocator@D@2@@std@@I@std@@@std@@@std@@@std@@@2@@std@@AEAAX_K@Z 000000014000ae70 f i preprocess.obj
 0001:00009e70       ?_Reallocate_exactly@?$vector@V?$_List_unchecked_iterator@V?$_List_val@U?$_List_simple_types@U?$pair@$$CBIPEAUedge@@@std@@@std@@@std@@@std@@V?$allocator@V?$_List_unchecked_iterator@V?$_List_val@U?$_List_simple_types@U?$pair@$$CBIPEAUedge@@@std@@@std@@@std@@@std@@@2@@std@@AEAAX_K@Z 000000014000ae70 f i preprocess.obj
 0001:00009e70       ?_Reallocate_exactly@?$vector@V?$_List_unchecked_iterator@V?$_List_val@U?$_List_simple_types@U?$pair@$$CBIPEAUfile_edge@@@std@@@std@@@std@@@std@@V?$allocator@V?$_List_unchecked_iterator@V?$_List_val@U?$_List_simple_types@U?$pair@$$CBIPEAUfile_edge@@@std@@@std@@@std@@@std@@@2@@std@@AEAAX_K@Z 000000014000ae70 f i preprocess.obj
 0001:00009f10       ?_Reinsert@?$_Hash@V?$_Umap_traits@IPEAUedge@@V?$_Uhash_compare@IU?$hash@I@std@@U?$equal_to@I@2@@std@@V?$allocator@U?$pair@$$CBIPEAUedge@@@std@@@3@$0A@@std@@@std@@IEAAXXZ 000000014000af10 f i preprocess.obj
 0001:00009fc0       ?_Reinsert@?$_Hash@V?$_Umap_traits@IPEAUfile_edge@@V?$_Uhash_compare@IU?$hash@I@std@@U?$equal_to@I@2@@std@@V?$allocator@U?$pair@$$CBIPEAUfile_edge@@@std@@@3@$0A@@std@@@std@@IEAAXXZ 000000014000afc0 f i preprocess.obj
 0001:0000a070       ?_Reinsert@?$_Hash@V?$_Umap_traits@V?$basic_string@DU?$char_traits@D@std@@V?$allocator@D@2@@std@@IV?$_Uhash_compare@V?$basic_string@DU?$char_traits@D@std@@V?$allocator@D@2@@std@@U?$hash@V?$basic_string@DU?$char_traits@D@std@@V?$allocator@D@2@@std@@@2@U?$equal_to@V?$basic_string@DU?$char_traits@D@std@@V?$allocator@D@2@@std@@@2@@2@V?$allocator@U?$pair@$$CBV?$basic_string@DU?$char_traits@D@std@@V?$allocator@D@2@@std@@I@std@@@2@$0A@@std@@@std@@IEAAXXZ 000000014000b070 f i preprocess.obj
 0001:0000a120       ?_Release@?$_Uninitialized_backout_al@PEAV?$_List_unchecked_iterator@V?$_List_val@U?$_List_simple_types@U?$pair@$$CBIPEAUedge@@@std@@@std@@@std@@@std@@V?$allocator@V?$_List_unchecked_iterator@V?$_List_val@U?$_List_simple_types@U?$pair@$$CBIPEAUedge@@@std@@@std@@@std@@@std@@@2@@std@@QEAAPEAV?$_List_unchecked_iterator@V?$_List_val@U?$_List_simple_types@U?$pair@$$CBIPEAUedge@@@std@@@std@@@std@@@2@XZ 000000014000b120 f i preprocess.obj
 0001:0000a120       ?_Release@?$_Uninitialized_backout_al@PEAV?$_List_unchecked_iterator@V?$_List_val@U?$_List_simple_types@U?$pair@$$CBV?$basic_string@DU?$char_traits@D@std@@V?$allocator@D@2@@std@@I@std@@@std@@@std@@@std@@V?$allocator@V?$_List_unchecked_iterator@V?$_List_val@U?$_List_simple_types@U?$pair@$$CBV?$basic_string@DU?$char_traits@D@std@@V?$allocator@D@2@@std@@I@std@@@std@@@std@@@std@@@2@@std@@QEAAPEAV?$_List_unchecked_iterator@V?$_List_val@U?$_List_simple_types@U?$pair@$$CBV?$basic_string@DU?$char_traits@D@std@@V?$allocator@D@2@@std@@I@std@@@std@@@std@@@2@XZ 000000014000b120 f i preprocess.obj
 0001:0000a120       ?_Release@?$_Uninitialized_backout_al@PEAV?$_List_unchecked_iterator@V?$_List_val@U?$_List_simple_types@U?$pair@$$CBIPEAUfile_edge@@@std@@@std@@@std@@@std@@V?$allocator@V?$_List_unchecked_iterator@V?$_List_val@U?$_List_simple_types@U?$pair@$$CBIPEAUfile_edge@@@std@@@std@@@std@@@std@@@2@@std@@QEAAPEAV?$_List_unchecked_iterator@V?$_List_val@U?$_List_simple_types@U?$pair@$$CBIPEAUfile_edge@@@std@@@std@@@std@@@2@XZ 000000014000b120 f i preprocess.obj
 0001:0000a140       ?_Swap_all@?$_Vector_alloc@U?$_Vec_base_types@V?$_List_unchecked_iterator@V?$_List_val@U?$_List_simple_types@U?$pair@$$CBV?$basic_string@DU?$char_traits@D@std@@V?$allocator@D@2@@std@@I@std@@@std@@@std@@@std@@V?$allocator@V?$_List_unchecked_iterator@V?$_List_val@U?$_List_simple_types@U?$pair@$$CBV?$basic_string@DU?$char_traits@D@std@@V?$allocator@D@2@@std@@I@std@@@std@@@std@@@std@@@2@@std@@@std@@QEAAXAEAV12@@Z 000000014000b140 f i preprocess.obj
 0001:0000a140       ?_Swap_all@?$_List_alloc@U?$_List_base_types@U?$pair@$$CBV?$basic_string@DU?$char_traits@D@std@@V?$allocator@D@2@@std@@I@std@@V?$allocator@U?$pair@$$CBV?$basic_string@DU?$char_traits@D@std@@V?$allocator@D@2@@std@@I@std@@@2@@std@@@std@@QEAAXAEAV12@@Z 000000014000b140 f i preprocess.obj
 0001:0000a140       ?_Swap_all@?$_String_alloc@U?$_String_base_types@DV?$allocator@D@std@@@std@@@std@@QEAAXAEAV12@@Z 000000014000b140 f i preprocess.obj
 0001:0000a180       ?_Swap_all@_Container_base12@std@@QEAAXAEAU12@@Z 000000014000b180 f i preprocess.obj
 0001:0000a220       ?_Tidy@?$list@U?$pair@$$CBIPEAUedge@@@std@@V?$allocator@U?$pair@$$CBIPEAUedge@@@std@@@2@@std@@QEAAXXZ 000000014000b220 f i preprocess.obj
 0001:0000a220       ?_Tidy@?$list@U?$pair@$$CBIPEAUfile_edge@@@std@@V?$allocator@U?$pair@$$CBIPEAUfile_edge@@@std@@@2@@std@@QEAAXXZ 000000014000b220 f i preprocess.obj
 0001:0000a240       ?_Tidy@?$list@U?$pair@$$CBV?$basic_string@DU?$char_traits@D@std@@V?$allocator@D@2@@std@@I@std@@V?$allocator@U?$pair@$$CBV?$basic_string@DU?$char_traits@D@std@@V?$allocator@D@2@@std@@I@std@@@2@@std@@QEAAXXZ 000000014000b240 f i preprocess.obj
 0001:0000a260       ?_Tidy@?$vector@V?$_List_unchecked_iterator@V?$_List_val@U?$_List_simple_types@U?$pair@$$CBV?$basic_string@DU?$char_traits@D@std@@V?$allocator@D@2@@std@@I@std@@@std@@@std@@@std@@V?$allocator@V?$_List_unchecked_iterator@V?$_List_val@U?$_List_simple_types@U?$pair@$$CBV?$basic_string@DU?$char_traits@D@std@@V?$allocator@D@2@@std@@I@std@@@std@@@std@@@std@@@2@@std@@AEAAXXZ 000000014000b260 f i preprocess.obj
 0001:0000a260       ?_Tidy@?$vector@V?$_List_unchecked_iterator@V?$_List_val@U?$_List_simple_types@U?$pair@$$CBIPEAUedge@@@std@@@std@@@std@@@std@@V?$allocator@V?$_List_unchecked_iterator@V?$_List_val@U?$_List_simple_types@U?$pair@$$CBIPEAUedge@@@std@@@std@@@std@@@std@@@2@@std@@AEAAXXZ 000000014000b260 f i preprocess.obj
 0001:0000a260       ?_Tidy@?$vector@V?$_List_unchecked_iterator@V?$_List_val@U?$_List_simple_types@U?$pair@$$CBIPEAUfile_edge@@@std@@@std@@@std@@@std@@V?$allocator@V?$_List_unchecked_iterator@V?$_List_val@U?$_List_simple_types@U?$pair@$$CBIPEAUfile_edge@@@std@@@std@@@std@@@std@@@2@@std@@AEAAXXZ 000000014000b260 f i preprocess.obj
 0001:0000a330       ?_Tidy_deallocate@?$basic_string@DU?$char_traits@D@std@@V?$allocator@D@2@@std@@QEAAXXZ 000000014000b330 f i preprocess.obj
 0001:0000a400       ?_Tidy_init@?$basic_string@DU?$char_traits@D@std@@V?$allocator@D@2@@std@@QEAAXXZ 000000014000b400 f i preprocess.obj
 0001:0000a460       ?_Ufill@?$vector@V?$_List_unchecked_iterator@V?$_List_val@U?$_List_simple_types@U?$pair@$$CBV?$basic_string@DU?$char_traits@D@std@@V?$allocator@D@2@@std@@I@std@@@std@@@std@@@std@@V?$allocator@V?$_List_unchecked_iterator@V?$_List_val@U?$_List_simple_types@U?$pair@$$CBV?$basic_string@DU?$char_traits@D@std@@V?$allocator@D@2@@std@@I@std@@@std@@@std@@@std@@@2@@std@@AEAAPEAV?$_List_unchecked_iterator@V?$_List_val@U?$_List_simple_types@U?$pair@$$CBV?$basic_string@DU?$char_traits@D@std@@V?$allocator@D@2@@std@@I@std@@@std@@@std@@@2@PEAV32@_KAEBV32@@Z 000000014000b460 f i preprocess.obj
 0001:0000a460       ?_Ufill@?$vector@V?$_List_unchecked_iterator@V?$_List_val@U?$_List_simple_types@U?$pair@$$CBIPEAUfile_edge@@@std@@@std@@@std@@@std@@V?$allocator@V?$_List_unchecked_iterator@V?$_List_val@U?$_List_simple_types@U?$pair@$$CBIPEAUfile_edge@@@std@@@std@@@std@@@std@@@2@@std@@AEAAPEAV?$_List_unchecked_iterator@V?$_List_val@U?$_List_simple_types@U?$pair@$$CBIPEAUfile_edge@@@std@@@std@@@std@@@2@PEAV32@_KAEBV32@@Z 000000014000b460 f i preprocess.obj
 0001:0000a460       ?_Ufill@?$vector@V?$_List_unchecked_iterator@V?$_List_val@U?$_List_simple_types@U?$pair@$$CBIPEAUedge@@@std@@@std@@@std@@@std@@V?$allocator@V?$_List_unchecked_iterator@V?$_List_val@U?$_List_simple_types@U?$pair@$$CBIPEAUedge@@@std@@@std@@@std@@@std@@@2@@std@@AEAAPEAV?$_List_unchecked_iterator@V?$_List_val@U?$_List_simple_types@U?$pair@$$CBIPEAUedge@@@std@@@std@@@std@@@2@PEAV32@_KAEBV32@@Z 000000014000b460 f i preprocess.obj
 0001:0000a4a0       ?_Umove_if_noexcept1@?$vector@V?$_List_unchecked_iterator@V?$_List_val@U?$_List_simple_types@U?$pair@$$CBIPEAUfile_edge@@@std@@@std@@@std@@@std@@V?$allocator@V?$_List_unchecked_iterator@V?$_List_val@U?$_List_simple_types@U?$pair@$$CBIPEAUfile_edge@@@std@@@std@@@std@@@std@@@2@@std@@AEAAXPEAV?$_List_unchecked_iterator@V?$_List_val@U?$_List_simple_types@U?$pair@$$CBIPEAUfile_edge@@@std@@@std@@@std@@@2@00U?$integral_constant@_N$00@2@@Z 000000014000b4a0 f i preprocess.obj
 0001:0000a4a0       ?_Umove_if_noexcept1@?$vector@V?$_List_unchecked_iterator@V?$_List_val@U?$_List_simple_types@U?$pair@$$CBV?$basic_string@DU?$char_traits@D@std@@V?$allocator@D@2@@std@@I@std@@@std@@@std@@@std@@V?$allocator@V?$_List_unchecked_iterator@V?$_List_val@U?$_List_simple_types@U?$pair@$$CBV?$basic_string@DU?$char_traits@D@std@@V?$allocator@D@2@@std@@I@std@@@std@@@std@@@std@@@2@@std@@AEAAXPEAV?$_List_unchecked_iterator@V?$_List_val@U?$_List_simple_types@U?$pair@$$CBV?$basic_string@DU?$char_traits@D@std@@V?$allocator@D@2@@std@@I@std@@@std@@@std@@@2@00U?$integral_constant@_N$00@2@@Z 000000014000b4a0 f i preprocess.obj
 0001:0000a4a0       ?_Umove_if_noexcept1@?$vector@V?$_List_unchecked_iterator@V?$_List_val@U?$_List_simple_types@U?$pair@$$CBIPEAUedge@@@std@@@std@@@std@@@std@@V?$allocator@V?$_List_unchecked_iterator@V?$_List_val@U?$_List_simple_types@U?$pair@$$CBIPEAUedge@@@std@@@std@@@std@@@std@@@2@@std@@AEAAXPEAV?$_List_unchecked_iterator@V?$_List_val@U?$_List_simple_types@U?$pair@$$CBIPEAUedge@@@std@@@std@@@std@@@2@00U?$integral_constant@_N$00@2@@Z 000000014000b4a0 f i preprocess.obj
 0001:0000a4e0       ?_Umove_if_noexcept@?$vector@V?$_List_unchecked_iterator@V?$_List_val@U?$_List_simple_types@U?$pair@$$CBIPEAUfile_edge@@@std@@@std@@@std@@@std@@V?$allocator@V?$_List_unchecked_iterator@V?$_List_val@U?$_List_simple_types@U?$pair@$$CBIPEAUfile_edge@@@std@@@std@@@std@@@std@@@2@@std@@AEAAXPEAV?$_List_unchecked_iterator@V?$_List_val@U?$_List_simple_types@U?$pair@$$CBIPEAUfile_edge@@@std@@@std@@@std@@@2@00@Z 000000014000b4e0 f i preprocess.obj
 0001:0000a4e0       ?_Umove_if_noexcept@?$vector@V?$_List_unchecked_iterator@V?$_List_val@U?$_List_simple_types@U?$pair@$$CBV?$basic_string@DU?$char_traits@D@std@@V?$allocator@D@2@@std@@I@std@@@std@@@std@@@std@@V?$allocator@V?$_List_unchecked_iterator@V?$_List_val@U?$_List_simple_types@U?$pair@$$CBV?$basic_string@DU?$char_traits@D@std@@V?$allocator@D@2@@std@@I@std@@@std@@@std@@@std@@@2@@std@@AEAAXPEAV?$_List_unchecked_iterator@V?$_List_val@U?$_List_simple_types@U?$pair@$$CBV?$basic_string@DU?$char_traits@D@std@@V?$allocator@D@2@@std@@I@std@@@std@@@std@@@2@00@Z 000000014000b4e0 f i preprocess.obj
 0001:0000a4e0       ?_Umove_if_noexcept@?$vector@V?$_List_unchecked_iterator@V?$_List_val@U?$_List_simple_types@U?$pair@$$CBIPEAUedge@@@std@@@std@@@std@@@std@@V?$allocator@V?$_List_unchecked_iterator@V?$_List_val@U?$_List_simple_types@U?$pair@$$CBIPEAUedge@@@std@@@std@@@std@@@std@@@2@@std@@AEAAXPEAV?$_List_unchecked_iterator@V?$_List_val@U?$_List_simple_types@U?$pair@$$CBIPEAUedge@@@std@@@std@@@std@@@2@00@Z 000000014000b4e0 f i preprocess.obj
 0001:0000a540       ?_Unchecked_begin@?$_Hash@V?$_Umap_traits@IPEAUedge@@V?$_Uhash_compare@IU?$hash@I@std@@U?$equal_to@I@2@@std@@V?$allocator@U?$pair@$$CBIPEAUedge@@@std@@@3@$0A@@std@@@std@@QEAA?AV?$_List_unchecked_iterator@V?$_List_val@U?$_List_simple_types@U?$pair@$$CBIPEAUedge@@@std@@@std@@@std@@@2@XZ 000000014000b540 f i preprocess.obj
 0001:0000a540       ?_Unchecked_begin@?$_Hash@V?$_Umap_traits@V?$basic_string@DU?$char_traits@D@std@@V?$allocator@D@2@@std@@IV?$_Uhash_compare@V?$basic_string@DU?$char_traits@D@std@@V?$allocator@D@2@@std@@U?$hash@V?$basic_string@DU?$char_traits@D@std@@V?$allocator@D@2@@std@@@2@U?$equal_to@V?$basic_string@DU?$char_traits@D@std@@V?$allocator@D@2@@std@@@2@@2@V?$allocator@U?$pair@$$CBV?$basic_string@DU?$char_traits@D@std@@V?$allocator@D@2@@std@@I@std@@@2@$0A@@std@@@std@@QEAA?AV?$_List_unchecked_iterator@V?$_List_val@U?$_List_simple_types@U?$pair@$$CBV?$basic_string@DU?$char_traits@D@std@@V?$allocator@D@2@@std@@I@std@@@std@@@std@@@2@XZ 000000014000b540 f i preprocess.obj
 0001:0000a540       ?_Unchecked_begin@?$_Hash@V?$_Umap_traits@IPEAUfile_edge@@V?$_Uhash_compare@IU?$hash@I@std@@U?$equal_to@I@2@@std@@V?$allocator@U?$pair@$$CBIPEAUfile_edge@@@std@@@3@$0A@@std@@@std@@QEAA?AV?$_List_unchecked_iterator@V?$_List_val@U?$_List_simple_types@U?$pair@$$CBIPEAUfile_edge@@@std@@@std@@@std@@@2@XZ 000000014000b540 f i preprocess.obj
 0001:0000a570       ?_Unchecked_begin@?$list@U?$pair@$$CBIPEAUedge@@@std@@V?$allocator@U?$pair@$$CBIPEAUedge@@@std@@@2@@std@@QEAA?AV?$_List_unchecked_iterator@V?$_List_val@U?$_List_simple_types@U?$pair@$$CBIPEAUedge@@@std@@@std@@@std@@@2@XZ 000000014000b570 f i preprocess.obj
 0001:0000a570       ?_Unchecked_begin@?$list@U?$pair@$$CBIPEAUfile_edge@@@std@@V?$allocator@U?$pair@$$CBIPEAUfile_edge@@@std@@@2@@std@@QEAA?AV?$_List_unchecked_iterator@V?$_List_val@U?$_List_simple_types@U?$pair@$$CBIPEAUfile_edge@@@std@@@std@@@std@@@2@XZ 000000014000b570 f i preprocess.obj
 0001:0000a570       ?_Unchecked_begin@?$list@U?$pair@$$CBV?$basic_string@DU?$char_traits@D@std@@V?$allocator@D@2@@std@@I@std@@V?$allocator@U?$pair@$$CBV?$basic_string@DU?$char_traits@D@std@@V?$allocator@D@2@@std@@I@std@@@2@@std@@QEAA?AV?$_List_unchecked_iterator@V?$_List_val@U?$_List_simple_types@U?$pair@$$CBV?$basic_string@DU?$char_traits@D@std@@V?$allocator@D@2@@std@@I@std@@@std@@@std@@@2@XZ 000000014000b570 f i preprocess.obj
 0001:0000a5b0       ?_Unchecked_end@?$_Hash@V?$_Umap_traits@V?$basic_string@DU?$char_traits@D@std@@V?$allocator@D@2@@std@@IV?$_Uhash_compare@V?$basic_string@DU?$char_traits@D@std@@V?$allocator@D@2@@std@@U?$hash@V?$basic_string@DU?$char_traits@D@std@@V?$allocator@D@2@@std@@@2@U?$equal_to@V?$basic_string@DU?$char_traits@D@std@@V?$allocator@D@2@@std@@@2@@2@V?$allocator@U?$pair@$$CBV?$basic_string@DU?$char_traits@D@std@@V?$allocator@D@2@@std@@I@std@@@2@$0A@@std@@@std@@QEAA?AV?$_List_unchecked_iterator@V?$_List_val@U?$_List_simple_types@U?$pair@$$CBV?$basic_string@DU?$char_traits@D@std@@V?$allocator@D@2@@std@@I@std@@@std@@@std@@@2@XZ 000000014000b5b0 f i preprocess.obj
 0001:0000a5b0       ?_Unchecked_end@?$_Hash@V?$_Umap_traits@IPEAUfile_edge@@V?$_Uhash_compare@IU?$hash@I@std@@U?$equal_to@I@2@@std@@V?$allocator@U?$pair@$$CBIPEAUfile_edge@@@std@@@3@$0A@@std@@@std@@QEAA?AV?$_List_unchecked_iterator@V?$_List_val@U?$_List_simple_types@U?$pair@$$CBIPEAUfile_edge@@@std@@@std@@@std@@@2@XZ 000000014000b5b0 f i preprocess.obj
 0001:0000a5b0       ?_Unchecked_end@?$_Hash@V?$_Umap_traits@IPEAUedge@@V?$_Uhash_compare@IU?$hash@I@std@@U?$equal_to@I@2@@std@@V?$allocator@U?$pair@$$CBIPEAUedge@@@std@@@3@$0A@@std@@@std@@QEAA?AV?$_List_unchecked_iterator@V?$_List_val@U?$_List_simple_types@U?$pair@$$CBIPEAUedge@@@std@@@std@@@std@@@2@XZ 000000014000b5b0 f i preprocess.obj
 0001:0000a5e0       ?_Unchecked_end@?$list@U?$pair@$$CBIPEAUfile_edge@@@std@@V?$allocator@U?$pair@$$CBIPEAUfile_edge@@@std@@@2@@std@@QEAA?AV?$_List_unchecked_iterator@V?$_List_val@U?$_List_simple_types@U?$pair@$$CBIPEAUfile_edge@@@std@@@std@@@std@@@2@XZ 000000014000b5e0 f i preprocess.obj
 0001:0000a5e0       ?_Unchecked_end@?$list@U?$pair@$$CBIPEAUedge@@@std@@V?$allocator@U?$pair@$$CBIPEAUedge@@@std@@@2@@std@@QEAA?AV?$_List_unchecked_iterator@V?$_List_val@U?$_List_simple_types@U?$pair@$$CBIPEAUedge@@@std@@@std@@@std@@@2@XZ 000000014000b5e0 f i preprocess.obj
 0001:0000a5e0       ?_Unchecked_end@?$list@U?$pair@$$CBV?$basic_string@DU?$char_traits@D@std@@V?$allocator@D@2@@std@@I@std@@V?$allocator@U?$pair@$$CBV?$basic_string@DU?$char_traits@D@std@@V?$allocator@D@2@@std@@I@std@@@2@@std@@QEAA?AV?$_List_unchecked_iterator@V?$_List_val@U?$_List_simple_types@U?$pair@$$CBV?$basic_string@DU?$char_traits@D@std@@V?$allocator@D@2@@std@@I@std@@@std@@@std@@@2@XZ 000000014000b5e0 f i preprocess.obj
 0001:0000a620       ?_Unchecked_splice@?$list@U?$pair@$$CBIPEAUedge@@@std@@V?$allocator@U?$pair@$$CBIPEAUedge@@@std@@@2@@std@@QEAAXV?$_List_unchecked_const_iterator@V?$_List_val@U?$_List_simple_types@U?$pair@$$CBIPEAUedge@@@std@@@std@@@std@@U_Iterator_base0@2@@2@00@Z 000000014000b620 f i preprocess.obj
 0001:0000a620       ?_Unchecked_splice@?$list@U?$pair@$$CBIPEAUfile_edge@@@std@@V?$allocator@U?$pair@$$CBIPEAUfile_edge@@@std@@@2@@std@@QEAAXV?$_List_unchecked_const_iterator@V?$_List_val@U?$_List_simple_types@U?$pair@$$CBIPEAUfile_edge@@@std@@@std@@@std@@U_Iterator_base0@2@@2@00@Z 000000014000b620 f i preprocess.obj
 0001:0000a620       ?_Unchecked_splice@?$list@U?$pair@$$CBV?$basic_string@DU?$char_traits@D@std@@V?$allocator@D@2@@std@@I@std@@V?$allocator@U?$pair@$$CBV?$basic_string@DU?$char_traits@D@std@@V?$allocator@D@2@@std@@I@std@@@2@@std@@QEAAXV?$_List_unchecked_const_iterator@V?$_List_val@U?$_List_simple_types@U?$pair@$$CBV?$basic_string@DU?$char_traits@D@std@@V?$allocator@D@2@@std@@I@std@@@std@@@std@@U_Iterator_base0@2@@2@00@Z 000000014000b620 f i preprocess.obj
 0001:0000a6b0       ?_Unlinknode@?$list@U?$pair@$$CBIPEAUedge@@@std@@V?$allocator@U?$pair@$$CBIPEAUedge@@@std@@@2@@std@@QEAAPEAU?$_List_node@U?$pair@$$CBIPEAUedge@@@std@@PEAX@2@V?$_List_const_iterator@V?$_List_val@U?$_List_simple_types@U?$pair@$$CBIPEAUedge@@@std@@@std@@@std@@@2@@Z 000000014000b6b0 f i preprocess.obj
 0001:0000a7f0       ?_Unlinknode@?$list@U?$pair@$$CBIPEAUfile_edge@@@std@@V?$allocator@U?$pair@$$CBIPEAUfile_edge@@@std@@@2@@std@@QEAAPEAU?$_List_node@U?$pair@$$CBIPEAUfile_edge@@@std@@PEAX@2@V?$_List_const_iterator@V?$_List_val@U?$_List_simple_types@U?$pair@$$CBIPEAUfile_edge@@@std@@@std@@@std@@@2@@Z 000000014000b7f0 f i preprocess.obj
 0001:0000a930       ?_Unlinknode@?$list@U?$pair@$$CBV?$basic_string@DU?$char_traits@D@std@@V?$allocator@D@2@@std@@I@std@@V?$allocator@U?$pair@$$CBV?$basic_string@DU?$char_traits@D@std@@V?$allocator@D@2@@std@@I@std@@@2@@std@@QEAAPEAU?$_List_node@U?$pair@$$CBV?$basic_string@DU?$char_traits@D@std@@V?$allocator@D@2@@std@@I@std@@PEAX@2@V?$_List_const_iterator@V?$_List_val@U?$_List_simple_types@U?$pair@$$CBV?$basic_string@DU?$char_traits@D@std@@V?$allocator@D@2@@std@@I@std@@@std@@@std@@@2@@Z 000000014000b930 f i preprocess.obj
 0001:0000aa70       ?_Unwrapped@?$_List_iterator@V?$_List_val@U?$_List_simple_types@U?$pair@$$CBIPEAUedge@@@std@@@std@@@std@@@std@@QEBA?AV?$_List_unchecked_iterator@V?$_List_val@U?$_List_simple_types@U?$pair@$$CBIPEAUedge@@@std@@@std@@@std@@@2@XZ 000000014000ba70 f i preprocess.obj
 0001:0000aa70       ?_Unwrapped@?$_List_iterator@V?$_List_val@U?$_List_simple_types@U?$pair@$$CBV?$basic_string@DU?$char_traits@D@std@@V?$allocator@D@2@@std@@I@std@@@std@@@std@@@std@@QEBA?AV?$_List_unchecked_iterator@V?$_List_val@U?$_List_simple_types@U?$pair@$$CBV?$basic_string@DU?$char_traits@D@std@@V?$allocator@D@2@@std@@I@std@@@std@@@std@@@2@XZ 000000014000ba70 f i preprocess.obj
 0001:0000aa70       ?_Unwrapped@?$_List_iterator@V?$_List_val@U?$_List_simple_types@U?$pair@$$CBIPEAUfile_edge@@@std@@@std@@@std@@@std@@QEBA?AV?$_List_unchecked_iterator@V?$_List_val@U?$_List_simple_types@U?$pair@$$CBIPEAUfile_edge@@@std@@@std@@@std@@@2@XZ 000000014000ba70 f i preprocess.obj
 0001:0000aab0       ?_Vec_hi@?$_Hash@V?$_Umap_traits@IPEAUedge@@V?$_Uhash_compare@IU?$hash@I@std@@U?$equal_to@I@2@@std@@V?$allocator@U?$pair@$$CBIPEAUedge@@@std@@@3@$0A@@std@@@std@@IEAAAEAV?$_List_unchecked_iterator@V?$_List_val@U?$_List_simple_types@U?$pair@$$CBIPEAUedge@@@std@@@std@@@std@@@2@_K@Z 000000014000bab0 f i preprocess.obj
 0001:0000aae0       ?_Vec_hi@?$_Hash@V?$_Umap_traits@IPEAUfile_edge@@V?$_Uhash_compare@IU?$hash@I@std@@U?$equal_to@I@2@@std@@V?$allocator@U?$pair@$$CBIPEAUfile_edge@@@std@@@3@$0A@@std@@@std@@IEAAAEAV?$_List_unchecked_iterator@V?$_List_val@U?$_List_simple_types@U?$pair@$$CBIPEAUfile_edge@@@std@@@std@@@std@@@2@_K@Z 000000014000bae0 f i preprocess.obj
 0001:0000ab10       ?_Vec_hi@?$_Hash@V?$_Umap_traits@V?$basic_string@DU?$char_traits@D@std@@V?$allocator@D@2@@std@@IV?$_Uhash_compare@V?$basic_string@DU?$char_traits@D@std@@V?$allocator@D@2@@std@@U?$hash@V?$basic_string@DU?$char_traits@D@std@@V?$allocator@D@2@@std@@@2@U?$equal_to@V?$basic_string@DU?$char_traits@D@std@@V?$allocator@D@2@@std@@@2@@2@V?$allocator@U?$pair@$$CBV?$basic_string@DU?$char_traits@D@std@@V?$allocator@D@2@@std@@I@std@@@2@$0A@@std@@@std@@IEAAAEAV?$_List_unchecked_iterator@V?$_List_val@U?$_List_simple_types@U?$pair@$$CBV?$basic_string@DU?$char_traits@D@std@@V?$allocator@D@2@@std@@I@std@@@std@@@std@@@2@_K@Z 000000014000bb10 f i preprocess.obj
 0001:0000ab40       ?_Vec_lo@?$_Hash@V?$_Umap_traits@IPEAUedge@@V?$_Uhash_compare@IU?$hash@I@std@@U?$equal_to@I@2@@std@@V?$allocator@U?$pair@$$CBIPEAUedge@@@std@@@3@$0A@@std@@@std@@IEAAAEAV?$_List_unchecked_iterator@V?$_List_val@U?$_List_simple_types@U?$pair@$$CBIPEAUedge@@@std@@@std@@@std@@@2@_K@Z 000000014000bb40 f i preprocess.obj
 0001:0000ab70       ?_Vec_lo@?$_Hash@V?$_Umap_traits@IPEAUfile_edge@@V?$_Uhash_compare@IU?$hash@I@std@@U?$equal_to@I@2@@std@@V?$allocator@U?$pair@$$CBIPEAUfile_edge@@@std@@@3@$0A@@std@@@std@@IEAAAEAV?$_List_unchecked_iterator@V?$_List_val@U?$_List_simple_types@U?$pair@$$CBIPEAUfile_edge@@@std@@@std@@@std@@@2@_K@Z 000000014000bb70 f i preprocess.obj
 0001:0000aba0       ?_Vec_lo@?$_Hash@V?$_Umap_traits@V?$basic_string@DU?$char_traits@D@std@@V?$allocator@D@2@@std@@IV?$_Uhash_compare@V?$basic_string@DU?$char_traits@D@std@@V?$allocator@D@2@@std@@U?$hash@V?$basic_string@DU?$char_traits@D@std@@V?$allocator@D@2@@std@@@2@U?$equal_to@V?$basic_string@DU?$char_traits@D@std@@V?$allocator@D@2@@std@@@2@@2@V?$allocator@U?$pair@$$CBV?$basic_string@DU?$char_traits@D@std@@V?$allocator@D@2@@std@@I@std@@@2@$0A@@std@@@std@@IEAAAEAV?$_List_unchecked_iterator@V?$_List_val@U?$_List_simple_types@U?$pair@$$CBV?$basic_string@DU?$char_traits@D@std@@V?$allocator@D@2@@std@@I@std@@@std@@@std@@@2@_K@Z 000000014000bba0 f i preprocess.obj
 0001:0000abd0       ?_Xlen@?$basic_string@DU?$char_traits@D@std@@V?$allocator@D@2@@std@@SAXXZ 000000014000bbd0 f i preprocess.obj
 0001:0000abf0       ?_Xlength@?$vector@V?$_List_unchecked_iterator@V?$_List_val@U?$_List_simple_types@U?$pair@$$CBIPEAUfile_edge@@@std@@@std@@@std@@@std@@V?$allocator@V?$_List_unchecked_iterator@V?$_List_val@U?$_List_simple_types@U?$pair@$$CBIPEAUfile_edge@@@std@@@std@@@std@@@std@@@2@@std@@CAXXZ 000000014000bbf0 f i preprocess.obj
 0001:0000abf0       ?_Xlength@?$vector@V?$_List_unchecked_iterator@V?$_List_val@U?$_List_simple_types@U?$pair@$$CBIPEAUedge@@@std@@@std@@@std@@@std@@V?$allocator@V?$_List_unchecked_iterator@V?$_List_val@U?$_List_simple_types@U?$pair@$$CBIPEAUedge@@@std@@@std@@@std@@@std@@@2@@std@@CAXXZ 000000014000bbf0 f i preprocess.obj
 0001:0000abf0       ?_Xlength@?$vector@V?$_List_unchecked_iterator@V?$_List_val@U?$_List_simple_types@U?$pair@$$CBV?$basic_string@DU?$char_traits@D@std@@V?$allocator@D@2@@std@@I@std@@@std@@@std@@@std@@V?$allocator@V?$_List_unchecked_iterator@V?$_List_val@U?$_List_simple_types@U?$pair@$$CBV?$basic_string@DU?$char_traits@D@std@@V?$allocator@D@2@@std@@I@std@@@std@@@std@@@std@@@2@@std@@CAXXZ 000000014000bbf0 f i preprocess.obj
 0001:0000ac10       ?allocate@?$allocator@D@std@@QEAAPEAD_K@Z 000000014000bc10 f i preprocess.obj
 0001:0000ac40       ?allocate@?$allocator@U?$_List_node@U?$pair@$$CBIPEAUfile_edge@@@std@@PEAX@std@@@std@@QEAAPEAU?$_List_node@U?$pair@$$CBIPEAUfile_edge@@@std@@PEAX@2@_K@Z 000000014000bc40 f i preprocess.obj
 0001:0000ac40       ?allocate@?$allocator@U?$_List_node@U?$pair@$$CBIPEAUedge@@@std@@PEAX@std@@@std@@QEAAPEAU?$_List_node@U?$pair@$$CBIPEAUedge@@@std@@PEAX@2@_K@Z 000000014000bc40 f i preprocess.obj
 0001:0000ac70       ?allocate@?$allocator@U?$_List_node@U?$pair@$$CBV?$basic_string@DU?$char_traits@D@std@@V?$allocator@D@2@@std@@I@std@@PEAX@std@@@std@@QEAAPEAU?$_List_node@U?$pair@$$CBV?$basic_string@DU?$char_traits@D@std@@V?$allocator@D@2@@std@@I@std@@PEAX@2@_K@Z 000000014000bc70 f i preprocess.obj
 0001:0000aca0       ?allocate@?$allocator@U_Container_proxy@std@@@std@@QEAAPEAU_Container_proxy@2@_K@Z 000000014000bca0 f i preprocess.obj
 0001:0000acd0       ?allocate@?$allocator@V?$_List_unchecked_iterator@V?$_List_val@U?$_List_simple_types@U?$pair@$$CBIPEAUedge@@@std@@@std@@@std@@@std@@@std@@QEAAPEAV?$_List_unchecked_iterator@V?$_List_val@U?$_List_simple_types@U?$pair@$$CBIPEAUedge@@@std@@@std@@@std@@@2@_K@Z 000000014000bcd0 f i preprocess.obj
 0001:0000acd0       ?allocate@?$allocator@V?$_List_unchecked_iterator@V?$_List_val@U?$_List_simple_types@U?$pair@$$CBIPEAUfile_edge@@@std@@@std@@@std@@@std@@@std@@QEAAPEAV?$_List_unchecked_iterator@V?$_List_val@U?$_List_simple_types@U?$pair@$$CBIPEAUfile_edge@@@std@@@std@@@std@@@2@_K@Z 000000014000bcd0 f i preprocess.obj
 0001:0000acd0       ?allocate@?$allocator@V?$_List_unchecked_iterator@V?$_List_val@U?$_List_simple_types@U?$pair@$$CBV?$basic_string@DU?$char_traits@D@std@@V?$allocator@D@2@@std@@I@std@@@std@@@std@@@std@@@std@@QEAAPEAV?$_List_unchecked_iterator@V?$_List_val@U?$_List_simple_types@U?$pair@$$CBV?$basic_string@DU?$char_traits@D@std@@V?$allocator@D@2@@std@@I@std@@@std@@@std@@@2@_K@Z 000000014000bcd0 f i preprocess.obj
 0001:0000ad00       ?assign@?$basic_string@DU?$char_traits@D@std@@V?$allocator@D@2@@std@@QEAAAEAV12@QEBD_K@Z 000000014000bd00 f i preprocess.obj
 0001:0000adc0       ?assign@?$char_traits@D@std@@SAXAEADAEBD@Z 000000014000bdc0 f i preprocess.obj
 0001:0000ade0       ?assign@?$vector@V?$_List_unchecked_iterator@V?$_List_val@U?$_List_simple_types@U?$pair@$$CBIPEAUfile_edge@@@std@@@std@@@std@@@std@@V?$allocator@V?$_List_unchecked_iterator@V?$_List_val@U?$_List_simple_types@U?$pair@$$CBIPEAUfile_edge@@@std@@@std@@@std@@@std@@@2@@std@@QEAAX_KAEBV?$_List_unchecked_iterator@V?$_List_val@U?$_List_simple_types@U?$pair@$$CBIPEAUfile_edge@@@std@@@std@@@std@@@2@@Z 000000014000bde0 f i preprocess.obj
 0001:0000ade0       ?assign@?$vector@V?$_List_unchecked_iterator@V?$_List_val@U?$_List_simple_types@U?$pair@$$CBV?$basic_string@DU?$char_traits@D@std@@V?$allocator@D@2@@std@@I@std@@@std@@@std@@@std@@V?$allocator@V?$_List_unchecked_iterator@V?$_List_val@U?$_List_simple_types@U?$pair@$$CBV?$basic_string@DU?$char_traits@D@std@@V?$allocator@D@2@@std@@I@std@@@std@@@std@@@std@@@2@@std@@QEAAX_KAEBV?$_List_unchecked_iterator@V?$_List_val@U?$_List_simple_types@U?$pair@$$CBV?$basic_string@DU?$char_traits@D@std@@V?$allocator@D@2@@std@@I@std@@@std@@@std@@@2@@Z 000000014000bde0 f i preprocess.obj
 0001:0000ade0       ?assign@?$vector@V?$_List_unchecked_iterator@V?$_List_val@U?$_List_simple_types@U?$pair@$$CBIPEAUedge@@@std@@@std@@@std@@@std@@V?$allocator@V?$_List_unchecked_iterator@V?$_List_val@U?$_List_simple_types@U?$pair@$$CBIPEAUedge@@@std@@@std@@@std@@@std@@@2@@std@@QEAAX_KAEBV?$_List_unchecked_iterator@V?$_List_val@U?$_List_simple_types@U?$pair@$$CBIPEAUedge@@@std@@@std@@@std@@@2@@Z 000000014000bde0 f i preprocess.obj
 0001:0000b080       ?begin@?$list@U?$pair@$$CBIPEAUedge@@@std@@V?$allocator@U?$pair@$$CBIPEAUedge@@@std@@@2@@std@@QEAA?AV?$_List_iterator@V?$_List_val@U?$_List_simple_types@U?$pair@$$CBIPEAUedge@@@std@@@std@@@std@@@2@XZ 000000014000c080 f i preprocess.obj
 0001:0000b080       ?begin@?$list@U?$pair@$$CBIPEAUfile_edge@@@std@@V?$allocator@U?$pair@$$CBIPEAUfile_edge@@@std@@@2@@std@@QEAA?AV?$_List_iterator@V?$_List_val@U?$_List_simple_types@U?$pair@$$CBIPEAUfile_edge@@@std@@@std@@@std@@@2@XZ 000000014000c080 f i preprocess.obj
 0001:0000b080       ?begin@?$list@U?$pair@$$CBV?$basic_string@DU?$char_traits@D@std@@V?$allocator@D@2@@std@@I@std@@V?$allocator@U?$pair@$$CBV?$basic_string@DU?$char_traits@D@std@@V?$allocator@D@2@@std@@I@std@@@2@@std@@QEAA?AV?$_List_iterator@V?$_List_val@U?$_List_simple_types@U?$pair@$$CBV?$basic_string@DU?$char_traits@D@std@@V?$allocator@D@2@@std@@I@std@@@std@@@std@@@2@XZ 000000014000c080 f i preprocess.obj
 0001:0000b0e0       ?bucket_count@?$_Hash@V?$_Umap_traits@IPEAUfile_edge@@V?$_Uhash_compare@IU?$hash@I@std@@U?$equal_to@I@2@@std@@V?$allocator@U?$pair@$$CBIPEAUfile_edge@@@std@@@3@$0A@@std@@@std@@QEBA_KXZ 000000014000c0e0 f i preprocess.obj
 0001:0000b0e0       ?bucket_count@?$_Hash@V?$_Umap_traits@V?$basic_string@DU?$char_traits@D@std@@V?$allocator@D@2@@std@@IV?$_Uhash_compare@V?$basic_string@DU?$char_traits@D@std@@V?$allocator@D@2@@std@@U?$hash@V?$basic_string@DU?$char_traits@D@std@@V?$allocator@D@2@@std@@@2@U?$equal_to@V?$basic_string@DU?$char_traits@D@std@@V?$allocator@D@2@@std@@@2@@2@V?$allocator@U?$pair@$$CBV?$basic_string@DU?$char_traits@D@std@@V?$allocator@D@2@@std@@I@std@@@2@$0A@@std@@@std@@QEBA_KXZ 000000014000c0e0 f i preprocess.obj
 0001:0000b0e0       ?bucket_count@?$_Hash@V?$_Umap_traits@IPEAUedge@@V?$_Uhash_compare@IU?$hash@I@std@@U?$equal_to@I@2@@std@@V?$allocator@U?$pair@$$CBIPEAUedge@@@std@@@3@$0A@@std@@@std@@QEBA_KXZ 000000014000c0e0 f i preprocess.obj
 0001:0000b0f0       ?c_str@?$basic_string@DU?$char_traits@D@std@@V?$allocator@D@2@@std@@QEBAPEBDXZ 000000014000c0f0 f i preprocess.obj
 0001:0000b120       ?capacity@?$vector@V?$_List_unchecked_iterator@V?$_List_val@U?$_List_simple_types@U?$pair@$$CBIPEAUfile_edge@@@std@@@std@@@std@@@std@@V?$allocator@V?$_List_unchecked_iterator@V?$_List_val@U?$_List_simple_types@U?$pair@$$CBIPEAUfile_edge@@@std@@@std@@@std@@@std@@@2@@std@@QEBA_KXZ 000000014000c120 f i preprocess.obj
 0001:0000b120       ?capacity@?$vector@V?$_List_unchecked_iterator@V?$_List_val@U?$_List_simple_types@U?$pair@$$CBV?$basic_string@DU?$char_traits@D@std@@V?$allocator@D@2@@std@@I@std@@@std@@@std@@@std@@V?$allocator@V?$_List_unchecked_iterator@V?$_List_val@U?$_List_simple_types@U?$pair@$$CBV?$basic_string@DU?$char_traits@D@std@@V?$allocator@D@2@@std@@I@std@@@std@@@std@@@std@@@2@@std@@QEBA_KXZ 000000014000c120 f i preprocess.obj
 0001:0000b120       ?capacity@?$vector@V?$_List_unchecked_iterator@V?$_List_val@U?$_List_simple_types@U?$pair@$$CBIPEAUedge@@@std@@@std@@@std@@@std@@V?$allocator@V?$_List_unchecked_iterator@V?$_List_val@U?$_List_simple_types@U?$pair@$$CBIPEAUedge@@@std@@@std@@@std@@@std@@@2@@std@@QEBA_KXZ 000000014000c120 f i preprocess.obj
 0001:0000b160       ?clear@?$_Hash@V?$_Umap_traits@V?$basic_string@DU?$char_traits@D@std@@V?$allocator@D@2@@std@@IV?$_Uhash_compare@V?$basic_string@DU?$char_traits@D@std@@V?$allocator@D@2@@std@@U?$hash@V?$basic_string@DU?$char_traits@D@std@@V?$allocator@D@2@@std@@@2@U?$equal_to@V?$basic_string@DU?$char_traits@D@std@@V?$allocator@D@2@@std@@@2@@2@V?$allocator@U?$pair@$$CBV?$basic_string@DU?$char_traits@D@std@@V?$allocator@D@2@@std@@I@std@@@2@$0A@@std@@@std@@QEAAXXZ 000000014000c160 f i preprocess.obj
 0001:0000b1a0       ?clear@?$list@U?$pair@$$CBIPEAUfile_edge@@@std@@V?$allocator@U?$pair@$$CBIPEAUfile_edge@@@std@@@2@@std@@QEAAXXZ 000000014000c1a0 f i preprocess.obj
 0001:0000b1a0       ?clear@?$list@U?$pair@$$CBIPEAUedge@@@std@@V?$allocator@U?$pair@$$CBIPEAUedge@@@std@@@2@@std@@QEAAXXZ 000000014000c1a0 f i preprocess.obj
 0001:0000b280       ?clear@?$list@U?$pair@$$CBV?$basic_string@DU?$char_traits@D@std@@V?$allocator@D@2@@std@@I@std@@V?$allocator@U?$pair@$$CBV?$basic_string@DU?$char_traits@D@std@@V?$allocator@D@2@@std@@I@std@@@2@@std@@QEAAXXZ 000000014000c280 f i preprocess.obj
 0001:0000b360       ?compare@?$char_traits@D@std@@SAHQEBD0_K@Z 000000014000c360 f i preprocess.obj
 0001:0000b390       ?copy@?$char_traits@D@std@@SAPEADQEADQEBD_K@Z 000000014000c390 f i preprocess.obj
 0001:0000b3c0       ?deallocate@?$_Default_allocator_traits@V?$allocator@U?$_List_node@U?$pair@$$CBIPEAUfile_edge@@@std@@PEAX@std@@@std@@@std@@SAXAEAV?$allocator@U?$_List_node@U?$pair@$$CBIPEAUfile_edge@@@std@@PEAX@std@@@2@QEAU?$_List_node@U?$pair@$$CBIPEAUfile_edge@@@std@@PEAX@2@_K@Z 000000014000c3c0 f i preprocess.obj
 0001:0000b3c0       ?deallocate@?$_Default_allocator_traits@V?$allocator@U?$_List_node@U?$pair@$$CBIPEAUedge@@@std@@PEAX@std@@@std@@@std@@SAXAEAV?$allocator@U?$_List_node@U?$pair@$$CBIPEAUedge@@@std@@PEAX@std@@@2@QEAU?$_List_node@U?$pair@$$CBIPEAUedge@@@std@@PEAX@2@_K@Z 000000014000c3c0 f i preprocess.obj
 0001:0000b3c0       ?deallocate@?$allocator@U?$_List_node@U?$pair@$$CBIPEAUedge@@@std@@PEAX@std@@@std@@QEAAXQEAU?$_List_node@U?$pair@$$CBIPEAUedge@@@std@@PEAX@2@_K@Z 000000014000c3c0 f i preprocess.obj
 0001:0000b3c0       ?deallocate@?$allocator@U?$_List_node@U?$pair@$$CBIPEAUfile_edge@@@std@@PEAX@std@@@std@@QEAAXQEAU?$_List_node@U?$pair@$$CBIPEAUfile_edge@@@std@@PEAX@2@_K@Z 000000014000c3c0 f i preprocess.obj
 0001:0000b3f0       ?deallocate@?$allocator@U?$_List_node@U?$pair@$$CBV?$basic_string@DU?$char_traits@D@std@@V?$allocator@D@2@@std@@I@std@@PEAX@std@@@std@@QEAAXQEAU?$_List_node@U?$pair@$$CBV?$basic_string@DU?$char_traits@D@std@@V?$allocator@D@2@@std@@I@std@@PEAX@2@_K@Z 000000014000c3f0 f i preprocess.obj
 0001:0000b3f0       ?deallocate@?$_Default_allocator_traits@V?$allocator@U?$_List_node@U?$pair@$$CBV?$basic_string@DU?$char_traits@D@std@@V?$allocator@D@2@@std@@I@std@@PEAX@std@@@std@@@std@@SAXAEAV?$allocator@U?$_List_node@U?$pair@$$CBV?$basic_string@DU?$char_traits@D@std@@V?$allocator@D@2@@std@@I@std@@PEAX@std@@@2@QEAU?$_List_node@U?$pair@$$CBV?$basic_string@DU?$char_traits@D@std@@V?$allocator@D@2@@std@@I@std@@PEAX@2@_K@Z 000000014000c3f0 f i preprocess.obj
 0001:0000b420       ?deallocate@?$_Default_allocator_traits@V?$allocator@U_Container_proxy@std@@@std@@@std@@SAXAEAV?$allocator@U_Container_proxy@std@@@2@QEAU_Container_proxy@2@_K@Z 000000014000c420 f i preprocess.obj
 0001:0000b450       ?deallocate@?$allocator@D@std@@QEAAXQEAD_K@Z 000000014000c450 f i preprocess.obj
 0001:0000b480       ?deallocate@?$allocator@V?$_List_unchecked_iterator@V?$_List_val@U?$_List_simple_types@U?$pair@$$CBIPEAUfile_edge@@@std@@@std@@@std@@@std@@@std@@QEAAXQEAV?$_List_unchecked_iterator@V?$_List_val@U?$_List_simple_types@U?$pair@$$CBIPEAUfile_edge@@@std@@@std@@@std@@@2@_K@Z 000000014000c480 f i preprocess.obj
 0001:0000b480       ?deallocate@?$allocator@V?$_List_unchecked_iterator@V?$_List_val@U?$_List_simple_types@U?$pair@$$CBIPEAUedge@@@std@@@std@@@std@@@std@@@std@@QEAAXQEAV?$_List_unchecked_iterator@V?$_List_val@U?$_List_simple_types@U?$pair@$$CBIPEAUedge@@@std@@@std@@@std@@@2@_K@Z 000000014000c480 f i preprocess.obj
 0001:0000b480       ?deallocate@?$allocator@V?$_List_unchecked_iterator@V?$_List_val@U?$_List_simple_types@U?$pair@$$CBV?$basic_string@DU?$char_traits@D@std@@V?$allocator@D@2@@std@@I@std@@@std@@@std@@@std@@@std@@QEAAXQEAV?$_List_unchecked_iterator@V?$_List_val@U?$_List_simple_types@U?$pair@$$CBV?$basic_string@DU?$char_traits@D@std@@V?$allocator@D@2@@std@@I@std@@@std@@@std@@@2@_K@Z 000000014000c480 f i preprocess.obj
 0001:0000b4b0       ?end@?$_Hash@V?$_Umap_traits@IPEAUedge@@V?$_Uhash_compare@IU?$hash@I@std@@U?$equal_to@I@2@@std@@V?$allocator@U?$pair@$$CBIPEAUedge@@@std@@@3@$0A@@std@@@std@@QEAA?AV?$_List_iterator@V?$_List_val@U?$_List_simple_types@U?$pair@$$CBIPEAUedge@@@std@@@std@@@std@@@2@XZ 000000014000c4b0 f i preprocess.obj
 0001:0000b4b0       ?end@?$_Hash@V?$_Umap_traits@V?$basic_string@DU?$char_traits@D@std@@V?$allocator@D@2@@std@@IV?$_Uhash_compare@V?$basic_string@DU?$char_traits@D@std@@V?$allocator@D@2@@std@@U?$hash@V?$basic_string@DU?$char_traits@D@std@@V?$allocator@D@2@@std@@@2@U?$equal_to@V?$basic_string@DU?$char_traits@D@std@@V?$allocator@D@2@@std@@@2@@2@V?$allocator@U?$pair@$$CBV?$basic_string@DU?$char_traits@D@std@@V?$allocator@D@2@@std@@I@std@@@2@$0A@@std@@@std@@QEAA?AV?$_List_iterator@V?$_List_val@U?$_List_simple_types@U?$pair@$$CBV?$basic_string@DU?$char_traits@D@std@@V?$allocator@D@2@@std@@I@std@@@std@@@std@@@2@XZ 000000014000c4b0 f i preprocess.obj
 0001:0000b4b0       ?end@?$_Hash@V?$_Umap_traits@IPEAUfile_edge@@V?$_Uhash_compare@IU?$hash@I@std@@U?$equal_to@I@2@@std@@V?$allocator@U?$pair@$$CBIPEAUfile_edge@@@std@@@3@$0A@@std@@@std@@QEAA?AV?$_List_iterator@V?$_List_val@U?$_List_simple_types@U?$pair@$$CBIPEAUfile_edge@@@std@@@std@@@std@@@2@XZ 000000014000c4b0 f i preprocess.obj
 0001:0000b4e0       ?end@?$list@U?$pair@$$CBIPEAUfile_edge@@@std@@V?$allocator@U?$pair@$$CBIPEAUfile_edge@@@std@@@2@@std@@QEAA?AV?$_List_iterator@V?$_List_val@U?$_List_simple_types@U?$pair@$$CBIPEAUfile_edge@@@std@@@std@@@std@@@2@XZ 000000014000c4e0 f i preprocess.obj
 0001:0000b4e0       ?end@?$list@U?$pair@$$CBIPEAUedge@@@std@@V?$allocator@U?$pair@$$CBIPEAUedge@@@std@@@2@@std@@QEAA?AV?$_List_iterator@V?$_List_val@U?$_List_simple_types@U?$pair@$$CBIPEAUedge@@@std@@@std@@@std@@@2@XZ 000000014000c4e0 f i preprocess.obj
 0001:0000b4e0       ?end@?$list@U?$pair@$$CBV?$basic_string@DU?$char_traits@D@std@@V?$allocator@D@2@@std@@I@std@@V?$allocator@U?$pair@$$CBV?$basic_string@DU?$char_traits@D@std@@V?$allocator@D@2@@std@@I@std@@@2@@std@@QEAA?AV?$_List_iterator@V?$_List_val@U?$_List_simple_types@U?$pair@$$CBV?$basic_string@DU?$char_traits@D@std@@V?$allocator@D@2@@std@@I@std@@@std@@@std@@@2@XZ 000000014000c4e0 f i preprocess.obj
 0001:0000b540       ?erase@?$_Hash@V?$_Umap_traits@IPEAUedge@@V?$_Uhash_compare@IU?$hash@I@std@@U?$equal_to@I@2@@std@@V?$allocator@U?$pair@$$CBIPEAUedge@@@std@@@3@$0A@@std@@@std@@QEAA?AV?$_List_iterator@V?$_List_val@U?$_List_simple_types@U?$pair@$$CBIPEAUedge@@@std@@@std@@@std@@@2@V?$_List_const_iterator@V?$_List_val@U?$_List_simple_types@U?$pair@$$CBIPEAUedge@@@std@@@std@@@std@@@2@@Z 000000014000c540 f i preprocess.obj
 0001:0000b670       ?erase@?$_Hash@V?$_Umap_traits@IPEAUfile_edge@@V?$_Uhash_compare@IU?$hash@I@std@@U?$equal_to@I@2@@std@@V?$allocator@U?$pair@$$CBIPEAUfile_edge@@@std@@@3@$0A@@std@@@std@@QEAA?AV?$_List_iterator@V?$_List_val@U?$_List_simple_types@U?$pair@$$CBIPEAUfile_edge@@@std@@@std@@@std@@@2@V?$_List_const_iterator@V?$_List_val@U?$_List_simple_types@U?$pair@$$CBIPEAUfile_edge@@@std@@@std@@@std@@@2@@Z 000000014000c670 f i preprocess.obj
 0001:0000b7a0       ?erase@?$_Hash@V?$_Umap_traits@V?$basic_string@DU?$char_traits@D@std@@V?$allocator@D@2@@std@@IV?$_Uhash_compare@V?$basic_string@DU?$char_traits@D@std@@V?$allocator@D@2@@std@@U?$hash@V?$basic_string@DU?$char_traits@D@std@@V?$allocator@D@2@@std@@@2@U?$equal_to@V?$basic_string@DU?$char_traits@D@std@@V?$allocator@D@2@@std@@@2@@2@V?$allocator@U?$pair@$$CBV?$basic_string@DU?$char_traits@D@std@@V?$allocator@D@2@@std@@I@std@@@2@$0A@@std@@@std@@QEAA?AV?$_List_iterator@V?$_List_val@U?$_List_simple_types@U?$pair@$$CBV?$basic_string@DU?$char_traits@D@std@@V?$allocator@D@2@@std@@I@std@@@std@@@std@@@2@V?$_List_const_iterator@V?$_List_val@U?$_List_simple_types@U?$pair@$$CBV?$basic_string@DU?$char_traits@D@std@@V?$allocator@D@2@@std@@I@std@@@std@@@std@@@2@@Z 000000014000c7a0 f i preprocess.obj
 0001:0000b8d0       ?erase@?$list@U?$pair@$$CBIPEAUedge@@@std@@V?$allocator@U?$pair@$$CBIPEAUedge@@@std@@@2@@std@@QEAA?AV?$_List_iterator@V?$_List_val@U?$_List_simple_types@U?$pair@$$CBIPEAUedge@@@std@@@std@@@std@@@2@V?$_List_const_iterator@V?$_List_val@U?$_List_simple_types@U?$pair@$$CBIPEAUedge@@@std@@@std@@@std@@@2@@Z 000000014000c8d0 f i preprocess.obj
 0001:0000b9b0       ?erase@?$list@U?$pair@$$CBIPEAUfile_edge@@@std@@V?$allocator@U?$pair@$$CBIPEAUfile_edge@@@std@@@2@@std@@QEAA?AV?$_List_iterator@V?$_List_val@U?$_List_simple_types@U?$pair@$$CBIPEAUfile_edge@@@std@@@std@@@std@@@2@V?$_List_const_iterator@V?$_List_val@U?$_List_simple_types@U?$pair@$$CBIPEAUfile_edge@@@std@@@std@@@std@@@2@@Z 000000014000c9b0 f i preprocess.obj
 0001:0000ba90       ?erase@?$list@U?$pair@$$CBV?$basic_string@DU?$char_traits@D@std@@V?$allocator@D@2@@std@@I@std@@V?$allocator@U?$pair@$$CBV?$basic_string@DU?$char_traits@D@std@@V?$allocator@D@2@@std@@I@std@@@2@@std@@QEAA?AV?$_List_iterator@V?$_List_val@U?$_List_simple_types@U?$pair@$$CBV?$basic_string@DU?$char_traits@D@std@@V?$allocator@D@2@@std@@I@std@@@std@@@std@@@2@V?$_List_const_iterator@V?$_List_val@U?$_List_simple_types@U?$pair@$$CBV?$basic_string@DU?$char_traits@D@std@@V?$allocator@D@2@@std@@I@std@@@std@@@std@@@2@@Z 000000014000ca90 f i preprocess.obj
 0001:0000bb70       ?find@?$_Hash@V?$_Umap_traits@IPEAUedge@@V?$_Uhash_compare@IU?$hash@I@std@@U?$equal_to@I@2@@std@@V?$allocator@U?$pair@$$CBIPEAUedge@@@std@@@3@$0A@@std@@@std@@QEAA?AV?$_List_iterator@V?$_List_val@U?$_List_simple_types@U?$pair@$$CBIPEAUedge@@@std@@@std@@@std@@@2@AEBI@Z 000000014000cb70 f i preprocess.obj
 0001:0000bbc0       ?find@?$_Hash@V?$_Umap_traits@IPEAUfile_edge@@V?$_Uhash_compare@IU?$hash@I@std@@U?$equal_to@I@2@@std@@V?$allocator@U?$pair@$$CBIPEAUfile_edge@@@std@@@3@$0A@@std@@@std@@QEAA?AV?$_List_iterator@V?$_List_val@U?$_List_simple_types@U?$pair@$$CBIPEAUfile_edge@@@std@@@std@@@std@@@2@AEBI@Z 000000014000cbc0 f i preprocess.obj
 0001:0000bc10       ?find@?$_Hash@V?$_Umap_traits@V?$basic_string@DU?$char_traits@D@std@@V?$allocator@D@2@@std@@IV?$_Uhash_compare@V?$basic_string@DU?$char_traits@D@std@@V?$allocator@D@2@@std@@U?$hash@V?$basic_string@DU?$char_traits@D@std@@V?$allocator@D@2@@std@@@2@U?$equal_to@V?$basic_string@DU?$char_traits@D@std@@V?$allocator@D@2@@std@@@2@@2@V?$allocator@U?$pair@$$CBV?$basic_string@DU?$char_traits@D@std@@V?$allocator@D@2@@std@@I@std@@@2@$0A@@std@@@std@@QEAA?AV?$_List_iterator@V?$_List_val@U?$_List_simple_types@U?$pair@$$CBV?$basic_string@DU?$char_traits@D@std@@V?$allocator@D@2@@std@@I@std@@@std@@@std@@@2@AEBV?$basic_string@DU?$char_traits@D@std@@V?$allocator@D@2@@2@@Z 000000014000cc10 f i preprocess.obj
 0001:0000bc60       ?front@?$list@U?$pair@$$CBIPEAUedge@@@std@@V?$allocator@U?$pair@$$CBIPEAUedge@@@std@@@2@@std@@QEAAAEAU?$pair@$$CBIPEAUedge@@@2@XZ 000000014000cc60 f i preprocess.obj
 0001:0000bcc0       ?front@?$list@U?$pair@$$CBIPEAUfile_edge@@@std@@V?$allocator@U?$pair@$$CBIPEAUfile_edge@@@std@@@2@@std@@QEAAAEAU?$pair@$$CBIPEAUfile_edge@@@2@XZ 000000014000ccc0 f i preprocess.obj
 0001:0000bd20       ?front@?$list@U?$pair@$$CBV?$basic_string@DU?$char_traits@D@std@@V?$allocator@D@2@@std@@I@std@@V?$allocator@U?$pair@$$CBV?$basic_string@DU?$char_traits@D@std@@V?$allocator@D@2@@std@@I@std@@@2@@std@@QEAAAEAU?$pair@$$CBV?$basic_string@DU?$char_traits@D@std@@V?$allocator@D@2@@std@@I@2@XZ 000000014000cd20 f i preprocess.obj
 0001:0000bd80       ?load_factor@?$_Hash@V?$_Umap_traits@IPEAUfile_edge@@V?$_Uhash_compare@IU?$hash@I@std@@U?$equal_to@I@2@@std@@V?$allocator@U?$pair@$$CBIPEAUfile_edge@@@std@@@3@$0A@@std@@@std@@QEBAMXZ 000000014000cd80 f i preprocess.obj
 0001:0000bd80       ?load_factor@?$_Hash@V?$_Umap_traits@IPEAUedge@@V?$_Uhash_compare@IU?$hash@I@std@@U?$equal_to@I@2@@std@@V?$allocator@U?$pair@$$CBIPEAUedge@@@std@@@3@$0A@@std@@@std@@QEBAMXZ 000000014000cd80 f i preprocess.obj
 0001:0000bd80       ?load_factor@?$_Hash@V?$_Umap_traits@V?$basic_string@DU?$char_traits@D@std@@V?$allocator@D@2@@std@@IV?$_Uhash_compare@V?$basic_string@DU?$char_traits@D@std@@V?$allocator@D@2@@std@@U?$hash@V?$basic_string@DU?$char_traits@D@std@@V?$allocator@D@2@@std@@@2@U?$equal_to@V?$basic_string@DU?$char_traits@D@std@@V?$allocator@D@2@@std@@@2@@2@V?$allocator@U?$pair@$$CBV?$basic_string@DU?$char_traits@D@std@@V?$allocator@D@2@@std@@I@std@@@2@$0A@@std@@@std@@QEBAMXZ 000000014000cd80 f i preprocess.obj
 0001:0000bdf0       ?lower_bound@?$_Hash@V?$_Umap_traits@IPEAUedge@@V?$_Uhash_compare@IU?$hash@I@std@@U?$equal_to@I@2@@std@@V?$allocator@U?$pair@$$CBIPEAUedge@@@std@@@3@$0A@@std@@@std@@QEAA?AV?$_List_iterator@V?$_List_val@U?$_List_simple_types@U?$pair@$$CBIPEAUedge@@@std@@@std@@@std@@@2@AEBI@Z 000000014000cdf0 f i preprocess.obj
 0001:0000c000       ?lower_bound@?$_Hash@V?$_Umap_traits@IPEAUfile_edge@@V?$_Uhash_compare@IU?$hash@I@std@@U?$equal_to@I@2@@std@@V?$allocator@U?$pair@$$CBIPEAUfile_edge@@@std@@@3@$0A@@std@@@std@@QEAA?AV?$_List_iterator@V?$_List_val@U?$_List_simple_types@U?$pair@$$CBIPEAUfile_edge@@@std@@@std@@@std@@@2@AEBI@Z 000000014000d000 f i preprocess.obj
 0001:0000c210       ?lower_bound@?$_Hash@V?$_Umap_traits@V?$basic_string@DU?$char_traits@D@std@@V?$allocator@D@2@@std@@IV?$_Uhash_compare@V?$basic_string@DU?$char_traits@D@std@@V?$allocator@D@2@@std@@U?$hash@V?$basic_string@DU?$char_traits@D@std@@V?$allocator@D@2@@std@@@2@U?$equal_to@V?$basic_string@DU?$char_traits@D@std@@V?$allocator@D@2@@std@@@2@@2@V?$allocator@U?$pair@$$CBV?$basic_string@DU?$char_traits@D@std@@V?$allocator@D@2@@std@@I@std@@@2@$0A@@std@@@std@@QEAA?AV?$_List_iterator@V?$_List_val@U?$_List_simple_types@U?$pair@$$CBV?$basic_string@DU?$char_traits@D@std@@V?$allocator@D@2@@std@@I@std@@@std@@@std@@@2@AEBV?$basic_string@DU?$char_traits@D@std@@V?$allocator@D@2@@2@@Z 000000014000d210 f i preprocess.obj
 0001:0000c420       ?max@?$numeric_limits@_J@std@@SA_JXZ 000000014000d420 f i preprocess.obj
 0001:0000c430       ?max_load_factor@?$_Hash@V?$_Umap_traits@IPEAUfile_edge@@V?$_Uhash_compare@IU?$hash@I@std@@U?$equal_to@I@2@@std@@V?$allocator@U?$pair@$$CBIPEAUfile_edge@@@std@@@3@$0A@@std@@@std@@QEBAMXZ 000000014000d430 f i preprocess.obj
 0001:0000c430       ?max_load_factor@?$_Hash@V?$_Umap_traits@IPEAUedge@@V?$_Uhash_compare@IU?$hash@I@std@@U?$equal_to@I@2@@std@@V?$allocator@U?$pair@$$CBIPEAUedge@@@std@@@3@$0A@@std@@@std@@QEBAMXZ 000000014000d430 f i preprocess.obj
 0001:0000c430       ?max_load_factor@?$_Hash@V?$_Umap_traits@V?$basic_string@DU?$char_traits@D@std@@V?$allocator@D@2@@std@@IV?$_Uhash_compare@V?$basic_string@DU?$char_traits@D@std@@V?$allocator@D@2@@std@@U?$hash@V?$basic_string@DU?$char_traits@D@std@@V?$allocator@D@2@@std@@@2@U?$equal_to@V?$basic_string@DU?$char_traits@D@std@@V?$allocator@D@2@@std@@@2@@2@V?$allocator@U?$pair@$$CBV?$basic_string@DU?$char_traits@D@std@@V?$allocator@D@2@@std@@I@std@@@2@$0A@@std@@@std@@QEBAMXZ 000000014000d430 f i preprocess.obj
 0001:0000c450       ?max_size@?$_Default_allocator_traits@V?$allocator@D@std@@@std@@SA_KAEBV?$allocator@D@2@@Z 000000014000d450 f i preprocess.obj
 0001:0000c460       ?max_size@?$_Default_allocator_traits@V?$allocator@U?$_List_node@U?$pair@$$CBIPEAUedge@@@std@@PEAX@std@@@std@@@std@@SA_KAEBV?$allocator@U?$_List_node@U?$pair@$$CBIPEAUedge@@@std@@PEAX@std@@@2@@Z 000000014000d460 f i preprocess.obj
 0001:0000c460       ?max_size@?$_Default_allocator_traits@V?$allocator@U?$_List_node@U?$pair@$$CBIPEAUfile_edge@@@std@@PEAX@std@@@std@@@std@@SA_KAEBV?$allocator@U?$_List_node@U?$pair@$$CBIPEAUfile_edge@@@std@@PEAX@std@@@2@@Z 000000014000d460 f i preprocess.obj
 0001:0000c470       ?max_size@?$_Default_allocator_traits@V?$allocator@U?$_List_node@U?$pair@$$CBV?$basic_string@DU?$char_traits@D@std@@V?$allocator@D@2@@std@@I@std@@PEAX@std@@@std@@@std@@SA_KAEBV?$allocator@U?$_List_node@U?$pair@$$CBV?$basic_string@DU?$char_traits@D@std@@V?$allocator@D@2@@std@@I@std@@PEAX@std@@@2@@Z 000000014000d470 f i preprocess.obj
 0001:0000c480       ?max_size@?$_Default_allocator_traits@V?$allocator@V?$_List_unchecked_iterator@V?$_List_val@U?$_List_simple_types@U?$pair@$$CBIPEAUfile_edge@@@std@@@std@@@std@@@std@@@std@@@std@@SA_KAEBV?$allocator@V?$_List_unchecked_iterator@V?$_List_val@U?$_List_simple_types@U?$pair@$$CBIPEAUfile_edge@@@std@@@std@@@std@@@std@@@2@@Z 000000014000d480 f i preprocess.obj
 0001:0000c480       ?max_size@?$_Default_allocator_traits@V?$allocator@V?$_List_unchecked_iterator@V?$_List_val@U?$_List_simple_types@U?$pair@$$CBIPEAUedge@@@std@@@std@@@std@@@std@@@std@@@std@@SA_KAEBV?$allocator@V?$_List_unchecked_iterator@V?$_List_val@U?$_List_simple_types@U?$pair@$$CBIPEAUedge@@@std@@@std@@@std@@@std@@@2@@Z 000000014000d480 f i preprocess.obj
 0001:0000c480       ?max_size@?$_Default_allocator_traits@V?$allocator@V?$_List_unchecked_iterator@V?$_List_val@U?$_List_simple_types@U?$pair@$$CBV?$basic_string@DU?$char_traits@D@std@@V?$allocator@D@2@@std@@I@std@@@std@@@std@@@std@@@std@@@std@@SA_KAEBV?$allocator@V?$_List_unchecked_iterator@V?$_List_val@U?$_List_simple_types@U?$pair@$$CBV?$basic_string@DU?$char_traits@D@std@@V?$allocator@D@2@@std@@I@std@@@std@@@std@@@std@@@2@@Z 000000014000d480 f i preprocess.obj
 0001:0000c490       ?max_size@?$basic_string@DU?$char_traits@D@std@@V?$allocator@D@2@@std@@QEBA_KXZ 000000014000d490 f i preprocess.obj
 0001:0000c500       ?max_size@?$list@U?$pair@$$CBIPEAUedge@@@std@@V?$allocator@U?$pair@$$CBIPEAUedge@@@std@@@2@@std@@QEBA_KXZ 000000014000d500 f i preprocess.obj
 0001:0000c500       ?max_size@?$list@U?$pair@$$CBIPEAUfile_edge@@@std@@V?$allocator@U?$pair@$$CBIPEAUfile_edge@@@std@@@2@@std@@QEBA_KXZ 000000014000d500 f i preprocess.obj
 0001:0000c520       ?max_size@?$list@U?$pair@$$CBV?$basic_string@DU?$char_traits@D@std@@V?$allocator@D@2@@std@@I@std@@V?$allocator@U?$pair@$$CBV?$basic_string@DU?$char_traits@D@std@@V?$allocator@D@2@@std@@I@std@@@2@@std@@QEBA_KXZ 000000014000d520 f i preprocess.obj
 0001:0000c540       ?max_size@?$vector@V?$_List_unchecked_iterator@V?$_List_val@U?$_List_simple_types@U?$pair@$$CBIPEAUfile_edge@@@std@@@std@@@std@@@std@@V?$allocator@V?$_List_unchecked_iterator@V?$_List_val@U?$_List_simple_types@U?$pair@$$CBIPEAUfile_edge@@@std@@@std@@@std@@@std@@@2@@std@@QEBA_KXZ 000000014000d540 f i preprocess.obj
 0001:0000c540       ?max_size@?$vector@V?$_List_unchecked_iterator@V?$_List_val@U?$_List_simple_types@U?$pair@$$CBV?$basic_string@DU?$char_traits@D@std@@V?$allocator@D@2@@std@@I@std@@@std@@@std@@@std@@V?$allocator@V?$_List_unchecked_iterator@V?$_List_val@U?$_List_simple_types@U?$pair@$$CBV?$basic_string@DU?$char_traits@D@std@@V?$allocator@D@2@@std@@I@std@@@std@@@std@@@std@@@2@@std@@QEBA_KXZ 000000014000d540 f i preprocess.obj
 0001:0000c540       ?max_size@?$vector@V?$_List_unchecked_iterator@V?$_List_val@U?$_List_simple_types@U?$pair@$$CBIPEAUedge@@@std@@@std@@@std@@@std@@V?$allocator@V?$_List_unchecked_iterator@V?$_List_val@U?$_List_simple_types@U?$pair@$$CBIPEAUedge@@@std@@@std@@@std@@@std@@@2@@std@@QEBA_KXZ 000000014000d540 f i preprocess.obj
 0001:0000c590       ?move@?$char_traits@D@std@@SAPEADQEADQEBD_K@Z 000000014000d590 f i preprocess.obj
 0001:0000c5c0       ?pointer_to@?$pointer_traits@PEAU?$pair@$$CBV?$basic_string@DU?$char_traits@D@std@@V?$allocator@D@2@@std@@I@std@@@std@@SAPEAU?$pair@$$CBV?$basic_string@DU?$char_traits@D@std@@V?$allocator@D@2@@std@@I@2@AEAU32@@Z 000000014000d5c0 f i preprocess.obj
 0001:0000c5c0       ?pointer_to@?$pointer_traits@PEAU?$pair@$$CBIPEAUfile_edge@@@std@@@std@@SAPEAU?$pair@$$CBIPEAUfile_edge@@@2@AEAU32@@Z 000000014000d5c0 f i preprocess.obj
 0001:0000c5c0       ?pointer_to@?$pointer_traits@PEAU?$pair@$$CBIPEAUedge@@@std@@@std@@SAPEAU?$pair@$$CBIPEAUedge@@@2@AEAU32@@Z 000000014000d5c0 f i preprocess.obj
 0001:0000c5e0       ?rehash@?$_Hash@V?$_Umap_traits@V?$basic_string@DU?$char_traits@D@std@@V?$allocator@D@2@@std@@IV?$_Uhash_compare@V?$basic_string@DU?$char_traits@D@std@@V?$allocator@D@2@@std@@U?$hash@V?$basic_string@DU?$char_traits@D@std@@V?$allocator@D@2@@std@@@2@U?$equal_to@V?$basic_string@DU?$char_traits@D@std@@V?$allocator@D@2@@std@@@2@@2@V?$allocator@U?$pair@$$CBV?$basic_string@DU?$char_traits@D@std@@V?$allocator@D@2@@std@@I@std@@@2@$0A@@std@@@std@@QEAAX_K@Z 000000014000d5e0 f i preprocess.obj
 0001:0000c6f0       ?reserve@?$_Hash@V?$_Umap_traits@V?$basic_string@DU?$char_traits@D@std@@V?$allocator@D@2@@std@@IV?$_Uhash_compare@V?$basic_string@DU?$char_traits@D@std@@V?$allocator@D@2@@std@@U?$hash@V?$basic_string@DU?$char_traits@D@std@@V?$allocator@D@2@@std@@@2@U?$equal_to@V?$basic_string@DU?$char_traits@D@std@@V?$allocator@D@2@@std@@@2@@2@V?$allocator@U?$pair@$$CBV?$basic_string@DU?$char_traits@D@std@@V?$allocator@D@2@@std@@I@std@@@2@$0A@@std@@@std@@QEAAX_K@Z 000000014000d6f0 f i preprocess.obj
 0001:0000c790       ?reserve@?$vector@V?$_List_unchecked_iterator@V?$_List_val@U?$_List_simple_types@U?$pair@$$CBIPEAUfile_edge@@@std@@@std@@@std@@@std@@V?$allocator@V?$_List_unchecked_iterator@V?$_List_val@U?$_List_simple_types@U?$pair@$$CBIPEAUfile_edge@@@std@@@std@@@std@@@std@@@2@@std@@QEAAX_K@Z 000000014000d790 f i preprocess.obj
 0001:0000c790       ?reserve@?$vector@V?$_List_unchecked_iterator@V?$_List_val@U?$_List_simple_types@U?$pair@$$CBIPEAUedge@@@std@@@std@@@std@@@std@@V?$allocator@V?$_List_unchecked_iterator@V?$_List_val@U?$_List_simple_types@U?$pair@$$CBIPEAUedge@@@std@@@std@@@std@@@std@@@2@@std@@QEAAX_K@Z 000000014000d790 f i preprocess.obj
 0001:0000c790       ?reserve@?$vector@V?$_List_unchecked_iterator@V?$_List_val@U?$_List_simple_types@U?$pair@$$CBV?$basic_string@DU?$char_traits@D@std@@V?$allocator@D@2@@std@@I@std@@@std@@@std@@@std@@V?$allocator@V?$_List_unchecked_iterator@V?$_List_val@U?$_List_simple_types@U?$pair@$$CBV?$basic_string@DU?$char_traits@D@std@@V?$allocator@D@2@@std@@I@std@@@std@@@std@@@std@@@2@@std@@QEAAX_K@Z 000000014000d790 f i preprocess.obj
 0001:0000c7e0       ?size@?$_Hash@V?$_Umap_traits@IPEAUfile_edge@@V?$_Uhash_compare@IU?$hash@I@std@@U?$equal_to@I@2@@std@@V?$allocator@U?$pair@$$CBIPEAUfile_edge@@@std@@@3@$0A@@std@@@std@@QEBA_KXZ 000000014000d7e0 f i preprocess.obj
 0001:0000c7e0       ?size@?$_Hash@V?$_Umap_traits@V?$basic_string@DU?$char_traits@D@std@@V?$allocator@D@2@@std@@IV?$_Uhash_compare@V?$basic_string@DU?$char_traits@D@std@@V?$allocator@D@2@@std@@U?$hash@V?$basic_string@DU?$char_traits@D@std@@V?$allocator@D@2@@std@@@2@U?$equal_to@V?$basic_string@DU?$char_traits@D@std@@V?$allocator@D@2@@std@@@2@@2@V?$allocator@U?$pair@$$CBV?$basic_string@DU?$char_traits@D@std@@V?$allocator@D@2@@std@@I@std@@@2@$0A@@std@@@std@@QEBA_KXZ 000000014000d7e0 f i preprocess.obj
 0001:0000c7e0       ?size@?$_Hash@V?$_Umap_traits@IPEAUedge@@V?$_Uhash_compare@IU?$hash@I@std@@U?$equal_to@I@2@@std@@V?$allocator@U?$pair@$$CBIPEAUedge@@@std@@@3@$0A@@std@@@std@@QEBA_KXZ 000000014000d7e0 f i preprocess.obj
 0001:0000c800       ?size@?$basic_string@DU?$char_traits@D@std@@V?$allocator@D@2@@std@@QEBA_KXZ 000000014000d800 f i preprocess.obj
 0001:0000c820       ?size@?$list@U?$pair@$$CBIPEAUedge@@@std@@V?$allocator@U?$pair@$$CBIPEAUedge@@@std@@@2@@std@@QEBA_KXZ 000000014000d820 f i preprocess.obj
 0001:0000c820       ?size@?$list@U?$pair@$$CBV?$basic_string@DU?$char_traits@D@std@@V?$allocator@D@2@@std@@I@std@@V?$allocator@U?$pair@$$CBV?$basic_string@DU?$char_traits@D@std@@V?$allocator@D@2@@std@@I@std@@@2@@std@@QEBA_KXZ 000000014000d820 f i preprocess.obj
 0001:0000c820       ?size@?$list@U?$pair@$$CBIPEAUfile_edge@@@std@@V?$allocator@U?$pair@$$CBIPEAUfile_edge@@@std@@@2@@std@@QEBA_KXZ 000000014000d820 f i preprocess.obj
 0001:0000c840       ?size@?$vector@V?$_List_unchecked_iterator@V?$_List_val@U?$_List_simple_types@U?$pair@$$CBV?$basic_string@DU?$char_traits@D@std@@V?$allocator@D@2@@std@@I@std@@@std@@@std@@@std@@V?$allocator@V?$_List_unchecked_iterator@V?$_List_val@U?$_List_simple_types@U?$pair@$$CBV?$basic_string@DU?$char_traits@D@std@@V?$allocator@D@2@@std@@I@std@@@std@@@std@@@std@@@2@@std@@QEBA_KXZ 000000014000d840 f i preprocess.obj
 0001:0000c840       ?size@?$vector@V?$_List_unchecked_iterator@V?$_List_val@U?$_List_simple_types@U?$pair@$$CBIPEAUedge@@@std@@@std@@@std@@@std@@V?$allocator@V?$_List_unchecked_iterator@V?$_List_val@U?$_List_simple_types@U?$pair@$$CBIPEAUedge@@@std@@@std@@@std@@@std@@@2@@std@@QEBA_KXZ 000000014000d840 f i preprocess.obj
 0001:0000c840       ?size@?$vector@V?$_List_unchecked_iterator@V?$_List_val@U?$_List_simple_types@U?$pair@$$CBIPEAUfile_edge@@@std@@@std@@@std@@@std@@V?$allocator@V?$_List_unchecked_iterator@V?$_List_val@U?$_List_simple_types@U?$pair@$$CBIPEAUfile_edge@@@std@@@std@@@std@@@std@@@2@@std@@QEBA_KXZ 000000014000d840 f i preprocess.obj
 0001:0000c880       ??0_Init_locks@std@@QEAA@XZ 000000014000d880 f   libcpmtd:xlock.obj
 0001:0000c8f0       ??0_Lockit@std@@QEAA@H@Z   000000014000d8f0 f   libcpmtd:xlock.obj
 0001:0000c950       ??1_Init_locks@std@@QEAA@XZ 000000014000d950 f   libcpmtd:xlock.obj
 0001:0000c9c0       ??1_Lockit@std@@QEAA@XZ    000000014000d9c0 f   libcpmtd:xlock.obj
 0001:0000ca10       ??0bad_alloc@std@@QEAA@AEBV01@@Z 000000014000da10 f i libcpmtd:xthrow.obj
 0001:0000ca50       ??0bad_alloc@std@@QEAA@XZ  000000014000da50 f i libcpmtd:xthrow.obj
 0001:0000ca90       ??0exception@std@@QEAA@AEBV01@@Z 000000014000da90 f i libcpmtd:xthrow.obj
 0001:0000caf0       ??0exception@std@@QEAA@QEBD@Z 000000014000daf0 f i libcpmtd:xthrow.obj
 0001:0000cb60       ??0exception@std@@QEAA@QEBDH@Z 000000014000db60 f i libcpmtd:xthrow.obj
 0001:0000cbb0       ??0length_error@std@@QEAA@AEBV01@@Z 000000014000dbb0 f i libcpmtd:xthrow.obj
 0001:0000cbf0       ??0length_error@std@@QEAA@PEBD@Z 000000014000dbf0 f i libcpmtd:xthrow.obj
 0001:0000cc30       ??0logic_error@std@@QEAA@AEBV01@@Z 000000014000dc30 f i libcpmtd:xthrow.obj
 0001:0000cc70       ??0logic_error@std@@QEAA@PEBD@Z 000000014000dc70 f i libcpmtd:xthrow.obj
 0001:0000ccb0       ??0out_of_range@std@@QEAA@AEBV01@@Z 000000014000dcb0 f i libcpmtd:xthrow.obj
 0001:0000ccf0       ??0out_of_range@std@@QEAA@PEBD@Z 000000014000dcf0 f i libcpmtd:xthrow.obj
 0001:0000cd30       ??1logic_error@std@@UEAA@XZ 000000014000dd30 f i libcpmtd:xthrow.obj
 0001:0000cd30       ??1bad_alloc@std@@UEAA@XZ  000000014000dd30 f i libcpmtd:xthrow.obj
 0001:0000cd30       ??1bad_exception@std@@UEAA@XZ 000000014000dd30 f i libvcruntimed:frame.obj
 0001:0000cd50       ??1exception@std@@UEAA@XZ  000000014000dd50 f i libcpmtd:xthrow.obj
 0001:0000cd80       ??1length_error@std@@UEAA@XZ 000000014000dd80 f i libcpmtd:xthrow.obj
 0001:0000cd80       ??1out_of_range@std@@UEAA@XZ 000000014000dd80 f i libcpmtd:xthrow.obj
 0001:0000cd80       ??1bad_array_new_length@std@@UEAA@XZ 000000014000dd80 f i LIBCMTD:throw_bad_alloc.obj
 0001:0000cda0       ??_Glogic_error@std@@UEAAPEAXI@Z 000000014000dda0 f i libcpmtd:xthrow.obj
 0001:0000cda0       ??_Ebad_exception@std@@UEAAPEAXI@Z 000000014000dda0 f i libvcruntimed:frame.obj
 0001:0000cda0       ??_Gbad_exception@std@@UEAAPEAXI@Z 000000014000dda0 f i libvcruntimed:frame.obj
 0001:0000cda0       ??_Gbad_alloc@std@@UEAAPEAXI@Z 000000014000dda0 f i libcpmtd:xthrow.obj
 0001:0000cda0       ??_Elogic_error@std@@UEAAPEAXI@Z 000000014000dda0 f i libcpmtd:xthrow.obj
 0001:0000cda0       ??_Ebad_alloc@std@@UEAAPEAXI@Z 000000014000dda0 f i libcpmtd:xthrow.obj
 0001:0000cde0       ??_Eexception@std@@UEAAPEAXI@Z 000000014000dde0 f i libcpmtd:xthrow.obj
 0001:0000cde0       ??_Gexception@std@@UEAAPEAXI@Z 000000014000dde0 f i libcpmtd:xthrow.obj
 0001:0000ce20       ??_Gout_of_range@std@@UEAAPEAXI@Z 000000014000de20 f i libcpmtd:xthrow.obj
 0001:0000ce20       ??_Gbad_array_new_length@std@@UEAAPEAXI@Z 000000014000de20 f i LIBCMTD:throw_bad_alloc.obj
 0001:0000ce20       ??_Glength_error@std@@UEAAPEAXI@Z 000000014000de20 f i libcpmtd:xthrow.obj
 0001:0000ce20       ??_Eout_of_range@std@@UEAAPEAXI@Z 000000014000de20 f i libcpmtd:xthrow.obj
 0001:0000ce20       ??_Elength_error@std@@UEAAPEAXI@Z 000000014000de20 f i libcpmtd:xthrow.obj
 0001:0000ce20       ??_Ebad_array_new_length@std@@UEAAPEAXI@Z 000000014000de20 f i LIBCMTD:throw_bad_alloc.obj
 0001:0000ce60       ?_Xlength_error@std@@YAXPEBD@Z 000000014000de60 f   libcpmtd:xthrow.obj
 0001:0000ce90       ?_Xout_of_range@std@@YAXPEBD@Z 000000014000de90 f   libcpmtd:xthrow.obj
 0001:0000cec0       ?what@exception@std@@UEBAPEBDXZ 000000014000dec0 f i libcpmtd:xthrow.obj
 0001:0000cf00       _Mtxdst                    000000014000df00 f   libcpmtd:xmtx.obj
 0001:0000cf20       _Mtxinit                   000000014000df20 f   libcpmtd:xmtx.obj
 0001:0000cf40       _Mtxlock                   000000014000df40 f   libcpmtd:xmtx.obj
 0001:0000cf60       _Mtxunlock                 000000014000df60 f   libcpmtd:xmtx.obj
 0001:0000d6b0       __crtInitializeCriticalSectionEx 000000014000e6b0 f   libcpmtd:winapisupp.obj
 0001:0000d730       ??2@YAPEAX_K@Z             000000014000e730 f   LIBCMTD:new_scalar.obj
 0001:0000d780       ??3@YAXPEAX_K@Z            000000014000e780 f   LIBCMTD:delete_scalar_size.obj
 0001:0000d7a0       ??$__crt_fast_decode_pointer@P6AXXZ@@YAP6AXXZQ6AXXZ@Z 000000014000e7a0 f i libvcruntimed:purevirt.obj
 0001:0000d7a0       ??$__crt_fast_decode_pointer@PEAP6AXXZ@@YAPEAP6AXXZQEAP6AXXZ@Z 000000014000e7a0 f i LIBCMTD:utility.obj
 0001:0000d7a0       ??$__crt_fast_decode_pointer@P6AHPEAU_exception@@@Z@@YAP6AHPEAU_exception@@@ZQ6AH0@Z@Z 000000014000e7a0 f i libucrtd:matherr.obj
 0001:0000d7a0       ??$__crt_fast_decode_pointer@P6AXPEB_W00I_K@Z@@YAP6AXPEB_W00I_K@ZQ6AX000I1@Z@Z 000000014000e7a0 f i libucrtd:invalid_parameter.obj
 0001:0000d7a0       ??$__crt_fast_decode_pointer@P6AXPEAXK0@Z@@YAP6AXPEAXK0@ZQ6AX0K0@Z@Z 000000014000e7a0 f i libucrtd:exit.obj
 0001:0000d7a0       ??$__crt_fast_decode_pointer@PEAX@@YAPEAXQEAX@Z 000000014000e7a0 f i libvcruntimed:winapi_downlevel.obj
 0001:0000d7a0       ??$__crt_fast_decode_pointer@P6AH_K@Z@@YAP6AH_K@ZQ6AH0@Z@Z 000000014000e7a0 f i libucrtd:new_handler.obj
 0001:0000d7a0       ??$__crt_fast_decode_pointer@P6AXH@Z@@YAP6AXH@ZQ6AXH@Z@Z 000000014000e7a0 f i libucrtd:signal.obj
 0001:0000d7e0       ??$__crt_fast_encode_pointer@P6AXPEAXK0@Z@@YAP6AXPEAXK0@ZQ6AX0K0@Z@Z 000000014000e7e0 f i libucrtd:exit.obj
 0001:0000d7e0       ??$__crt_fast_encode_pointer@P6AXXZ@@YAP6AXXZQ6AXXZ@Z 000000014000e7e0 f i libvcruntimed:purevirt_data.obj
 0001:0000d7e0       ??$__crt_fast_encode_pointer@P6AHXZ@@YAP6AHXZQ6AHXZ@Z 000000014000e7e0 f i libucrtd:onexit.obj
 0001:0000d7e0       ??$__crt_fast_encode_pointer@PEAX@@YAPEAXQEAX@Z 000000014000e7e0 f i libvcruntimed:winapi_downlevel.obj
 0001:0000d7e0       ??$__crt_fast_encode_pointer@P6AXH@Z@@YAP6AXH@ZQ6AXH@Z@Z 000000014000e7e0 f i libucrtd:signal.obj
 0001:0000d7e0       ??$__crt_fast_encode_pointer@PEAP6AXXZ@@YAPEAP6AXXZQEAP6AXXZ@Z 000000014000e7e0 f i LIBCMTD:utility.obj
 0001:0000d7e0       ??$__crt_fast_encode_pointer@P6AHPEAU_exception@@@Z@@YAP6AHPEAU_exception@@@ZQ6AH0@Z@Z 000000014000e7e0 f i libucrtd:matherr.obj
 0001:0000d820       ?__crt_rotate_pointer_value@@YA_K_KH@Z 000000014000e820 f i LIBCMTD:utility.obj
 0001:0000d840       ?configure_argv@__scrt_narrow_argv_policy@@SAHXZ 000000014000e840 f i LIBCMTD:utility.obj
 0001:0000d930       ?initialize_environment@__scrt_narrow_environment_policy@@SAHXZ 000000014000e930 f i LIBCMTD:utility.obj
 0001:0000d9d0       NtCurrentTeb               000000014000e9d0 f i LIBCMTD:utility.obj
 0001:0000d9e0       __scrt_acquire_startup_lock 000000014000e9e0 f   LIBCMTD:utility.obj
 0001:0000da50       __scrt_initialize_crt      000000014000ea50 f   LIBCMTD:utility.obj
 0001:0000daa0       __scrt_initialize_onexit_tables 000000014000eaa0 f   LIBCMTD:utility.obj
 0001:0000dbb0       __scrt_is_nonwritable_in_current_image 000000014000ebb0 f   LIBCMTD:utility.obj
 0001:0000dc40       __scrt_release_startup_lock 000000014000ec40 f   LIBCMTD:utility.obj
 0001:0000dc70       __scrt_uninitialize_crt    000000014000ec70 f   LIBCMTD:utility.obj
 0001:0000dcb0       _onexit                    000000014000ecb0 f   LIBCMTD:utility.obj
 0001:0000dd40       atexit                     000000014000ed40 f   LIBCMTD:utility.obj
 0001:0000dd80       __GSHandlerCheck           000000014000ed80 f   LIBCMTD:gshandler.obj
 0001:0000ddc0       __GSHandlerCheckCommon     000000014000edc0 f   LIBCMTD:gshandler.obj
 0001:0000dec0       __GSHandlerCheck_EH        000000014000eec0 f   LIBCMTD:gshandlereh.obj
 0001:0000df80       __security_check_cookie    000000014000ef80 f   LIBCMTD:amdsecgs.obj
 0001:0000e2a0       ?set_app_type@__scrt_main_policy@@SAXXZ 000000014000f2a0 f i LIBCMTD:exe_main.obj
 0001:0000e2c0       ?set_commode@__scrt_file_policy@@SAXXZ 000000014000f2c0 f i LIBCMTD:exe_main.obj
 0001:0000e2e0       ?set_fmode@__scrt_file_policy@@SAXXZ 000000014000f2e0 f i LIBCMTD:exe_main.obj
 0001:0000e300       mainCRTStartup             000000014000f300 f   LIBCMTD:exe_main.obj
 0001:0000e310       ??1type_info@@UEAA@XZ      000000014000f310 f   LIBCMTD:std_type_info_static.obj
 0001:0000e330       ??_Etype_info@@UEAAPEAXI@Z 000000014000f330 f i LIBCMTD:std_type_info_static.obj
 0001:0000e330       ??_Gtype_info@@UEAAPEAXI@Z 000000014000f330 f i LIBCMTD:std_type_info_static.obj
 0001:0000e370       ?__crt_interlocked_read_64@@YA_JPED_J@Z 000000014000f370 f i libvcruntimed:std_type_info.obj
 0001:0000e370       ReadNoFence64              000000014000f370 f i LIBCMTD:guard_support.obj
 0001:0000e390       ??$__crt_interlocked_read_pointer@X@@YAPEAXPEDSEAX@Z 000000014000f390 f i libvcruntimed:winapi_downlevel.obj
 0001:0000e390       ReadPointerNoFence         000000014000f390 f i LIBCMTD:guard_support.obj
 0001:0000e390       ??$__crt_interlocked_read_pointer@UHINSTANCE__@@@@YAPEAUHINSTANCE__@@PEDSEAU0@@Z 000000014000f390 f i libvcruntimed:winapi_downlevel.obj
 0001:0000e3b0       _guard_icall_checks_enforced 000000014000f3b0 f i LIBCMTD:guard_support.obj
 0001:0000e3f0       ??0bad_alloc@std@@AEAA@QEBD@Z 000000014000f3f0 f i LIBCMTD:throw_bad_alloc.obj
 0001:0000e430       ??0bad_array_new_length@std@@QEAA@AEBV01@@Z 000000014000f430 f i LIBCMTD:throw_bad_alloc.obj
 0001:0000e470       ??0bad_array_new_length@std@@QEAA@XZ 000000014000f470 f i LIBCMTD:throw_bad_alloc.obj
 0001:0000e4b0       ?__scrt_throw_std_bad_alloc@@YAXXZ 000000014000f4b0 f   LIBCMTD:throw_bad_alloc.obj
 0001:0000e4e0       ?__scrt_throw_std_bad_array_new_length@@YAXXZ 000000014000f4e0 f   LIBCMTD:throw_bad_alloc.obj
 0001:0000e510       ??3@YAXPEAX@Z              000000014000f510 f   LIBCMTD:delete_scalar.obj
 0001:0000e530       __isa_available_init       000000014000f530 f   LIBCMTD:cpu_disp.obj
 0001:0000e8a0       _get_startup_argv_mode     000000014000f8a0 f   LIBCMTD:argv_mode.obj
 0001:0000e8b0       __scrt_is_ucrt_dll_in_use  000000014000f8b0 f   LIBCMTD:ucrt_detection.obj
 0001:0000e8e0       __crt_debugger_hook        000000014000f8e0 f   LIBCMTD:utility_desktop.obj
 0001:0000e8f0       __scrt_fastfail            000000014000f8f0 f   LIBCMTD:utility_desktop.obj
 0001:0000ea90       __scrt_initialize_mta      000000014000fa90 f   LIBCMTD:utility_desktop.obj
 0001:0000eaa0       __scrt_stub_for_initialize_mta 000000014000faa0 f   LIBCMTD:utility_desktop.obj
 0001:0000eaa0       _get_startup_commit_mode   000000014000faa0 f   LIBCMTD:commit_mode.obj
 0001:0000eaa0       _get_startup_thread_locale_mode 000000014000faa0 f   LIBCMTD:thread_locale.obj
 0001:0000eaa0       __scrt_exe_initialize_mta  000000014000faa0 f   LIBCMTD:utility_desktop.obj
 0001:0000eaa0       ?get_invalid_value@__crt_hmodule_traits@@SAPEAUHINSTANCE__@@XZ 000000014000faa0 f   libucrtd:exit.obj
 0001:0000eaa0       __scrt_initialize_winrt    000000014000faa0 f   LIBCMTD:utility_desktop.obj
 0001:0000eaa0       ?get_current_state_index@__crt_state_management@@YA_KXZ 000000014000faa0 f   libucrtd:invalid_parameter.obj
 0001:0000eaa0       _get_startup_new_mode      000000014000faa0 f   LIBCMTD:new_mode.obj
 0001:0000eab0       __scrt_is_managed_app      000000014000fab0 f   LIBCMTD:utility_desktop.obj
 0001:0000eb60       __scrt_set_unhandled_exception_filter 000000014000fb60 f   LIBCMTD:utility_desktop.obj
 0001:0000eb80       __scrt_unhandled_exception_filter 000000014000fb80 f   LIBCMTD:utility_desktop.obj
 0001:0000ec00       __raise_securityfailure    000000014000fc00 f   LIBCMTD:gs_report.obj
 0001:0000ec40       __report_gsfailure         000000014000fc40 f   LIBCMTD:gs_report.obj
 0001:0000ed20       __report_rangecheckfailure 000000014000fd20 f   LIBCMTD:gs_report.obj
 0001:0000ed40       __report_securityfailure   000000014000fd40 f   LIBCMTD:gs_report.obj
 0001:0000f000       __security_init_cookie     0000000140010000 f   LIBCMTD:gs_support.obj
 0001:0000f080       ?get_current_state_index@__crt_state_management@@YA_KAEBV__crt_scoped_get_last_error_reset@@@Z 0000000140010080 f   libucrtd:per_thread_data.obj
 0001:0000f080       _matherr                   0000000140010080 f   LIBCMTD:matherr.obj
 0001:0000f090       _get_startup_file_mode     0000000140010090 f   LIBCMTD:file_mode.obj
 0001:0000f0a0       ?__scrt_initialize_type_info@@YAXXZ 00000001400100a0 f   LIBCMTD:tncleanup.obj
 0001:0000f0c0       _should_initialize_environment 00000001400100c0 f   LIBCMTD:env_mode.obj
 0001:0000f0d0       _initialize_invalid_parameter_handler 00000001400100d0 f   LIBCMTD:invalid_parameter_handler.obj
 0001:0000f0d0       _initialize_denormal_control 00000001400100d0 f   LIBCMTD:denormal_control.obj
 0001:0000f0e0       __local_stdio_printf_options 00000001400100e0 f i LIBCMTD:default_local_stdio_options.obj
 0001:0000f0f0       __local_stdio_scanf_options 00000001400100f0 f i LIBCMTD:default_local_stdio_options.obj
 0001:0000f100       __scrt_initialize_default_local_stdio_options 0000000140010100 f   LIBCMTD:default_local_stdio_options.obj
 0001:0000f150       __scrt_is_user_matherr_present 0000000140010150 f   LIBCMTD:matherr_detection.obj
 0001:0000f180       __scrt_get_dyn_tls_init_callback 0000000140010180 f   LIBCMTD:dyn_tls_init.obj
 0001:0000f190       __scrt_get_dyn_tls_dtor_callback 0000000140010190 f   LIBCMTD:dyn_tls_dtor.obj
 0001:0000f1a0       _RTC_Initialize            00000001400101a0 f   LIBCMTD:initsect.obj
 0001:0000f1f0       _RTC_Terminate             00000001400101f0 f   LIBCMTD:initsect.obj
 0001:0000f240       IsProcessorFeaturePresent  0000000140010240 f   kernel32:KERNEL32.dll
 0001:0000f250       _CxxThrowException         0000000140010250 f   libvcruntimed:throw.obj
 0001:0000f3a0       ??$?0AEAViterator@TryBlockMap@__FrameHandler3@@AEAV012@$0A@@?$pair@Viterator@TryBlockMap@__FrameHandler3@@V123@@std@@QEAA@AEAViterator@TryBlockMap@__FrameHandler3@@0@Z 00000001400103a0 f i libvcruntimed:risctrnsctrl.obj
 0001:0000f4b0       ??$_CallSETranslator@V__FrameHandler3@@@@YAHPEAUEHExceptionRecord@@PEA_KPEAU_CONTEXT@@PEAU_xDISPATCHER_CONTEXT@@PEBU_s_FuncInfo@@K1@Z 00000001400104b0 f i libvcruntimed:risctrnsctrl.obj
 0001:0000f530       ??0iterator@HandlerMap@__FrameHandler3@@QEAA@AEAV12@I@Z 0000000140010530 f i libvcruntimed:frame.obj
 0001:0000f530       ??0iterator@TryBlockMap@__FrameHandler3@@QEAA@AEAV12@I@Z 0000000140010530 f i libvcruntimed:risctrnsctrl.obj
 0001:0000f560       ?CatchTryBlock@__FrameHandler3@@SAPEBU_s_TryBlockMapEntry@@PEBU_s_FuncInfo@@H@Z 0000000140010560 f   libvcruntimed:risctrnsctrl.obj
 0001:0000f600       ?ExecutionInCatch@__FrameHandler3@@SA_NPEAU_xDISPATCHER_CONTEXT@@PEBU_s_FuncInfo@@@Z 0000000140010600 f   libvcruntimed:risctrnsctrl.obj
 0001:0000f650       ?FrameUnwindToEmptyState@__FrameHandler3@@SAXPEA_KPEAU_xDISPATCHER_CONTEXT@@PEBU_s_FuncInfo@@@Z 0000000140010650 f   libvcruntimed:risctrnsctrl.obj
 0001:0000f6f0       ?GetEstablisherFrame@__FrameHandler3@@SAPEA_KPEA_KPEAU_xDISPATCHER_CONTEXT@@PEBU_s_FuncInfo@@0@Z 00000001400106f0 f   libvcruntimed:risctrnsctrl.obj
 0001:0000f860       ?GetRangeOfTrysToCheck@__FrameHandler3@@SA?AU?$pair@Viterator@TryBlockMap@__FrameHandler3@@V123@@std@@AEAVTryBlockMap@1@HH@Z 0000000140010860 f   libvcruntimed:risctrnsctrl.obj
 0001:0000fab0       ?UnwindNestedFrames@__FrameHandler3@@SAXPEA_KPEAUEHExceptionRecord@@PEAU_CONTEXT@@0PEAXPEBU_s_FuncInfo@@HHPEBU_s_HandlerType@@PEAU_xDISPATCHER_CONTEXT@@E@Z 0000000140010ab0 f   libvcruntimed:risctrnsctrl.obj
 0001:0000fc20       ?get@?$__crt_unique_heap_ptr@U__acrt_ptd@@U__crt_internal_free_policy@@@@QEBAPEAU__acrt_ptd@@XZ 0000000140010c20 f i libucrtd:per_thread_data.obj
 0001:0000fc20       ?save_state@?$c_string_character_source@D@__crt_strtox@@QEBAPEBDXZ 0000000140010c20 f i libucrtd:atox.obj
 0001:0000fc20       ?get@?$__crt_scoped_stack_ptr@_W@@QEBAPEA_WXZ 0000000140010c20 f i libucrtd:getstringtypea.obj
 0001:0000fc20       ?public_stream@__crt_stdio_stream@@QEBAPEAU_iobuf@@XZ 0000000140010c20 f i libucrtd:fclose.obj
 0001:0000fc20       ?get@?$__crt_unique_heap_ptr@U__crt_lowio_handle_data@@U__crt_internal_free_policy@@@@QEBAPEAU__crt_lowio_handle_data@@XZ 0000000140010c20 f i libucrtd:osfinfo.obj
 0001:0000fc20       ?getFuncInfo@TryBlockMap@__FrameHandler3@@QEAAPEBU_s_FuncInfo@@XZ 0000000140010c20 f i libvcruntimed:risctrnsctrl.obj
 0001:0000fc20       ?get@?$__crt_unique_handle_t@U__crt_findfile_traits@@@@QEBAPEAXXZ 0000000140010c20 f i libucrtd:argv_wildcards.obj
 0001:0000fc20       ?get@?$__crt_unique_heap_ptr@DU__crt_internal_free_policy@@@@QEBAPEADXZ 0000000140010c20 f i libvcruntimed:std_type_info.obj
 0001:0000fc20       ?save_state@?$c_string_character_source@_W@__crt_strtox@@QEBAPEB_WXZ 0000000140010c20 f i libucrtd:atox.obj
 0001:0000fc20       ?get@?$__crt_unique_handle_t@U__crt_hmodule_traits@@@@QEBAPEAUHINSTANCE__@@XZ 0000000140010c20 f i libucrtd:exit.obj
 0001:0000fc20       ?get@?$__crt_unique_heap_ptr@PEADU__crt_internal_free_policy@@@@QEBAPEAPEADXZ 0000000140010c20 f i libucrtd:argv_parsing.obj
 0001:0000fc20       ??C__crt_stdio_stream@@QEBAPEAU__crt_stdio_stream_data@@XZ 0000000140010c20 f i libucrtd:fclose.obj
 0001:0000fc20       ?get@?$__crt_unique_heap_ptr@U__crt_multibyte_data@@U__crt_internal_free_policy@@@@QEBAPEAU__crt_multibyte_data@@XZ 0000000140010c20 f i libucrtd:wsetlocale.obj
 0001:0000fc20       ?get@?$__crt_unique_heap_ptr@EU__crt_internal_free_policy@@@@QEBAPEAEXZ 0000000140010c20 f i libucrtd:argv_parsing.obj
 0001:0000fc20       ?get@?$__crt_unique_heap_ptr@DU__crt_public_free_policy@@@@QEBAPEADXZ 0000000140010c20 f i libvcruntimed:std_exception.obj
 0001:0000fc20       ?get@?$__crt_unique_heap_ptr@U__vcrt_ptd@@U__crt_internal_free_policy@@@@QEBAPEAU__vcrt_ptd@@XZ 0000000140010c20 f i libvcruntimed:per_thread_data.obj
 0001:0000fc30       ?getpDC@TryBlockMap@__FrameHandler3@@QEAAPEAU_xDISPATCHER_CONTEXT@@XZ 0000000140010c30 f i libvcruntimed:risctrnsctrl.obj
 0001:0000fc40       _CreateFrameInfo           0000000140010c40 f   libvcruntimed:risctrnsctrl.obj
 0001:0000fcb0       _FindAndUnlinkFrame        0000000140010cb0 f   libvcruntimed:risctrnsctrl.obj
 0001:0000fd30       _GetImageBase              0000000140010d30 f   libvcruntimed:risctrnsctrl.obj
 0001:0000fd50       _GetThrowImageBase         0000000140010d50 f   libvcruntimed:risctrnsctrl.obj
 0001:0000fd70       _SetImageBase              0000000140010d70 f   libvcruntimed:risctrnsctrl.obj
 0001:0000fd90       _SetThrowImageBase         0000000140010d90 f   libvcruntimed:risctrnsctrl.obj
 0001:0000fdb0       __CxxFrameHandler3         0000000140010db0 f   libvcruntimed:risctrnsctrl.obj
 0001:0000fe80       memcmp                     0000000140010e80 f   libvcruntimed:memcmp.obj
 0001:0000ff60       memcpy_repmovs             0000000140010f60 f   libvcruntimed:memcpy.obj
 0001:0000ff80       memmove                    0000000140010f80 f   libvcruntimed:memcpy.obj
 0001:0000ff80       memcpy                     0000000140010f80 f   libvcruntimed:memcpy.obj
 0001:000103c0       ??$?RD@__crt_public_free_policy@@QEBAXQEBD@Z 00000001400113c0 f i libvcruntimed:std_exception.obj
 0001:000103e0       ??0__crt_stdio_stream@@QEAA@QEAU_iobuf@@@Z 00000001400113e0 f i libucrtd:fclose.obj
 0001:000103e0       ??0__crt_stdio_stream@@QEAA@QEAU__crt_stdio_stream_data@@@Z 00000001400113e0 f i libucrtd:stream.obj
 0001:000103e0       ??0?$__crt_unique_heap_ptr@EU__crt_internal_free_policy@@@@QEAA@QEAE@Z 00000001400113e0 f i libucrtd:argv_parsing.obj
 0001:000103e0       ??0?$__crt_unique_handle_t@U__crt_hmodule_traits@@@@QEAA@QEAUHINSTANCE__@@@Z 00000001400113e0 f i libucrtd:exit.obj
 0001:000103e0       ??0?$__crt_unique_heap_ptr@U__crt_multibyte_data@@U__crt_internal_free_policy@@@@QEAA@QEAU__crt_multibyte_data@@@Z 00000001400113e0 f i libucrtd:wsetlocale.obj
 0001:000103e0       ??0?$__crt_unique_heap_ptr@U__acrt_ptd@@U__crt_internal_free_policy@@@@QEAA@QEAU__acrt_ptd@@@Z 00000001400113e0 f i libucrtd:per_thread_data.obj
 0001:000103e0       ??0?$__crt_unique_heap_ptr@P6AXXZU__crt_internal_free_policy@@@@QEAA@QEAP6AXXZ@Z 00000001400113e0 f i libucrtd:onexit.obj
 0001:000103e0       ??0?$__crt_scoped_stack_ptr_tag@_W@@QEAA@QEA_W@Z 00000001400113e0 f i libucrtd:getstringtypea.obj
 0001:000103e0       ??0?$__crt_unique_heap_ptr@DU__crt_public_free_policy@@@@QEAA@QEAD@Z 00000001400113e0 f i libvcruntimed:std_exception.obj
 0001:000103e0       ??0?$__crt_unique_heap_ptr@U__crt_lowio_handle_data@@U__crt_internal_free_policy@@@@QEAA@QEAU__crt_lowio_handle_data@@@Z 00000001400113e0 f i libucrtd:osfinfo.obj
 0001:000103e0       ??0?$string_output_adapter@D@__crt_stdio_output@@QEAA@QEAU?$string_output_adapter_context@D@1@@Z 00000001400113e0 f i libucrtd:output.obj
 0001:000103e0       ??0?$__crt_unique_heap_ptr@U__vcrt_ptd@@U__crt_internal_free_policy@@@@QEAA@QEAU__vcrt_ptd@@@Z 00000001400113e0 f i libvcruntimed:per_thread_data.obj
 0001:000103e0       ??0?$__crt_unique_handle_t@U__crt_findfile_traits@@@@QEAA@QEAX@Z 00000001400113e0 f i libucrtd:argv_wildcards.obj
 0001:000103e0       ??0?$__crt_unique_heap_ptr@PEADU__crt_internal_free_policy@@@@QEAA@QEAPEAD@Z 00000001400113e0 f i libucrtd:argv_parsing.obj
 0001:000103e0       ??0?$__crt_unique_heap_ptr@PEAU__crt_stdio_stream_data@@U__crt_internal_free_policy@@@@QEAA@QEAPEAU__crt_stdio_stream_data@@@Z 00000001400113e0 f i libucrtd:_file.obj
 0001:000103e0       ??0?$__crt_unique_heap_ptr@U__crt_stdio_stream_data@@U__crt_internal_free_policy@@@@QEAA@QEAU__crt_stdio_stream_data@@@Z 00000001400113e0 f i libucrtd:stream.obj
 0001:000103e0       ??0?$__crt_unique_heap_ptr@DU__crt_internal_free_policy@@@@QEAA@QEAD@Z 00000001400113e0 f i libvcruntimed:std_type_info.obj
 0001:000103e0       ??0?$string_output_adapter@_W@__crt_stdio_output@@QEAA@QEAU?$string_output_adapter_context@_W@1@@Z 00000001400113e0 f i libucrtd:output.obj
 0001:000103e0       ??0?$__crt_scoped_stack_ptr@_W@@QEAA@U?$__crt_scoped_stack_ptr_tag@_W@@@Z 00000001400113e0 f i libucrtd:getstringtypea.obj
 0001:00010400       ??1?$__crt_unique_heap_ptr@DU__crt_public_free_policy@@@@QEAA@XZ 0000000140011400 f i libvcruntimed:std_exception.obj
 0001:00010420       ??B?$__crt_unique_heap_ptr@U__crt_multibyte_data@@U__crt_internal_free_policy@@@@QEBA_NXZ 0000000140011420 f i libucrtd:wsetlocale.obj
 0001:00010420       ??B?$__crt_unique_heap_ptr@EU__crt_internal_free_policy@@@@QEBA_NXZ 0000000140011420 f i libucrtd:argv_parsing.obj
 0001:00010420       ??B?$__crt_unique_heap_ptr@U__crt_lowio_handle_data@@U__crt_internal_free_policy@@@@QEBA_NXZ 0000000140011420 f i libucrtd:osfinfo.obj
 0001:00010420       ??B?$__crt_unique_heap_ptr@U__vcrt_ptd@@U__crt_internal_free_policy@@@@QEBA_NXZ 0000000140011420 f i libvcruntimed:per_thread_data.obj
 0001:00010420       ??B?$__crt_unique_heap_ptr@DU__crt_internal_free_policy@@@@QEBA_NXZ 0000000140011420 f i libvcruntimed:std_type_info.obj
 0001:00010420       ??B?$__crt_unique_heap_ptr@U__acrt_ptd@@U__crt_internal_free_policy@@@@QEBA_NXZ 0000000140011420 f i libucrtd:per_thread_data.obj
 0001:00010420       ??B?$__crt_unique_heap_ptr@DU__crt_public_free_policy@@@@QEBA_NXZ 0000000140011420 f i libvcruntimed:std_exception.obj
 0001:00010440       ?detach@?$__crt_unique_heap_ptr@U__acrt_ptd@@U__crt_internal_free_policy@@@@QEAAPEAU__acrt_ptd@@XZ 0000000140011440 f i libucrtd:per_thread_data.obj
 0001:00010440       ?detach@?$__crt_unique_heap_ptr@U__crt_stdio_stream_data@@U__crt_internal_free_policy@@@@QEAAPEAU__crt_stdio_stream_data@@XZ 0000000140011440 f i libucrtd:stream.obj
 0001:00010440       ?detach@?$__crt_unique_heap_ptr@DU__crt_public_free_policy@@@@QEAAPEADXZ 0000000140011440 f i libvcruntimed:std_exception.obj
 0001:00010440       ?detach@?$__crt_unique_heap_ptr@PEAU__crt_stdio_stream_data@@U__crt_internal_free_policy@@@@QEAAPEAPEAU__crt_stdio_stream_data@@XZ 0000000140011440 f i libucrtd:_file.obj
 0001:00010440       ?detach@?$__crt_unique_heap_ptr@EU__crt_internal_free_policy@@@@QEAAPEAEXZ 0000000140011440 f i libucrtd:argv_parsing.obj
 0001:00010440       ?detach@?$__crt_unique_heap_ptr@U__crt_lowio_handle_data@@U__crt_internal_free_policy@@@@QEAAPEAU__crt_lowio_handle_data@@XZ 0000000140011440 f i libucrtd:osfinfo.obj
 0001:00010440       ?detach@?$__crt_unique_heap_ptr@P6AXXZU__crt_internal_free_policy@@@@QEAAPEAP6AXXZXZ 0000000140011440 f i libucrtd:onexit.obj
 0001:00010440       ?detach@?$__crt_unique_heap_ptr@U__vcrt_ptd@@U__crt_internal_free_policy@@@@QEAAPEAU__vcrt_ptd@@XZ 0000000140011440 f i libvcruntimed:per_thread_data.obj
 0001:00010440       ?detach@?$__crt_unique_heap_ptr@U__crt_multibyte_data@@U__crt_internal_free_policy@@@@QEAAPEAU__crt_multibyte_data@@XZ 0000000140011440 f i libucrtd:wsetlocale.obj
 0001:00010440       ?detach@?$__crt_unique_heap_ptr@PEADU__crt_internal_free_policy@@@@QEAAPEAPEADXZ 0000000140011440 f i libucrtd:argv_parsing.obj
 0001:00010470       ?is_valid@?$__crt_unique_heap_ptr@U__vcrt_ptd@@U__crt_internal_free_policy@@@@QEBA_NXZ 0000000140011470 f i libvcruntimed:per_thread_data.obj
 0001:00010470       ?is_valid@?$__crt_unique_heap_ptr@U__crt_lowio_handle_data@@U__crt_internal_free_policy@@@@QEBA_NXZ 0000000140011470 f i libucrtd:osfinfo.obj
 0001:00010470       ?is_valid@?$__crt_unique_heap_ptr@DU__crt_internal_free_policy@@@@QEBA_NXZ 0000000140011470 f i libvcruntimed:std_type_info.obj
 0001:00010470       ??B?$__crt_scoped_stack_ptr@_W@@QEBA_NXZ 0000000140011470 f i libucrtd:lcmapstringa.obj
 0001:00010470       ?is_valid@?$__crt_unique_heap_ptr@U__crt_multibyte_data@@U__crt_internal_free_policy@@@@QEBA_NXZ 0000000140011470 f i libucrtd:wsetlocale.obj
 0001:00010470       ?is_valid@?$__crt_unique_heap_ptr@EU__crt_internal_free_policy@@@@QEBA_NXZ 0000000140011470 f i libucrtd:argv_parsing.obj
 0001:00010470       ?is_valid@?$__crt_unique_heap_ptr@U__acrt_ptd@@U__crt_internal_free_policy@@@@QEBA_NXZ 0000000140011470 f i libucrtd:per_thread_data.obj
 0001:00010470       ?valid@__crt_stdio_stream@@QEBA_NXZ 0000000140011470 f i libucrtd:fclose.obj
 0001:00010470       ?is_valid@?$__crt_unique_heap_ptr@DU__crt_public_free_policy@@@@QEBA_NXZ 0000000140011470 f i libvcruntimed:std_exception.obj
 0001:000104a0       ?release@?$__crt_unique_heap_ptr@DU__crt_public_free_policy@@@@QEAAXXZ 00000001400114a0 f i libvcruntimed:std_exception.obj
 0001:000104d0       __std_exception_copy       00000001400114d0 f   libvcruntimed:std_exception.obj
 0001:00010600       __std_exception_destroy    0000000140011600 f   libvcruntimed:std_exception.obj
 0001:00010640       __vcrt_initialize          0000000140011640 f   libvcruntimed:initialization.obj
 0001:00010680       __vcrt_uninitialize        0000000140011680 f   libvcruntimed:initialization.obj
 0001:000106b0       __C_specific_handler       00000001400116b0 f   libvcruntimed:riscchandler.obj
 0001:00010af0       ??$?RPEAD@__crt_internal_free_policy@@QEBAXQEBQEAD@Z 0000000140011af0 f i libucrtd:argv_parsing.obj
 0001:00010af0       ??$?RU__vcrt_ptd@@@__crt_internal_free_policy@@QEBAXQEBU__vcrt_ptd@@@Z 0000000140011af0 f i libvcruntimed:per_thread_data.obj
 0001:00010af0       ??$?RP6AXXZ@__crt_internal_free_policy@@QEBAXQEBQ6AXXZ@Z 0000000140011af0 f i libucrtd:onexit.obj
 0001:00010af0       ??$?RU__crt_lowio_handle_data@@@__crt_internal_free_policy@@QEBAXQEBU__crt_lowio_handle_data@@@Z 0000000140011af0 f i libucrtd:osfinfo.obj
 0001:00010af0       ??$?RPEAU__crt_stdio_stream_data@@@__crt_internal_free_policy@@QEBAXQEBQEAU__crt_stdio_stream_data@@@Z 0000000140011af0 f i libucrtd:_file.obj
 0001:00010af0       ??$?RD@__crt_internal_free_policy@@QEBAXQEBD@Z 0000000140011af0 f i libvcruntimed:std_type_info.obj
 0001:00010af0       ??$?RU__acrt_ptd@@@__crt_internal_free_policy@@QEBAXQEBU__acrt_ptd@@@Z 0000000140011af0 f i libucrtd:per_thread_data.obj
 0001:00010af0       ??$?RU__crt_multibyte_data@@@__crt_internal_free_policy@@QEBAXQEBU__crt_multibyte_data@@@Z 0000000140011af0 f i libucrtd:wsetlocale.obj
 0001:00010af0       ??$?RE@__crt_internal_free_policy@@QEBAXQEBE@Z 0000000140011af0 f i libucrtd:argv_parsing.obj
 0001:00010af0       ??$?RU__crt_stdio_stream_data@@@__crt_internal_free_policy@@QEBAXQEBU__crt_stdio_stream_data@@@Z 0000000140011af0 f i libucrtd:stream.obj
 0001:00010b20       ??1?$__crt_unique_heap_ptr@U__crt_lowio_handle_data@@U__crt_internal_free_policy@@@@QEAA@XZ 0000000140011b20 f i libucrtd:osfinfo.obj
 0001:00010b20       ??1?$__crt_unique_heap_ptr@PEAU__crt_stdio_stream_data@@U__crt_internal_free_policy@@@@QEAA@XZ 0000000140011b20 f i libucrtd:_file.obj
 0001:00010b20       ??1?$__crt_unique_heap_ptr@U__vcrt_ptd@@U__crt_internal_free_policy@@@@QEAA@XZ 0000000140011b20 f i libvcruntimed:per_thread_data.obj
 0001:00010b20       ??1?$__crt_unique_heap_ptr@U__crt_stdio_stream_data@@U__crt_internal_free_policy@@@@QEAA@XZ 0000000140011b20 f i libucrtd:stream.obj
 0001:00010b20       ??1?$__crt_unique_heap_ptr@EU__crt_internal_free_policy@@@@QEAA@XZ 0000000140011b20 f i libucrtd:argv_parsing.obj
 0001:00010b20       ??1?$__crt_unique_heap_ptr@U__crt_multibyte_data@@U__crt_internal_free_policy@@@@QEAA@XZ 0000000140011b20 f i libucrtd:wsetlocale.obj
 0001:00010b20       ??1?$__crt_unique_heap_ptr@P6AXXZU__crt_internal_free_policy@@@@QEAA@XZ 0000000140011b20 f i libucrtd:onexit.obj
 0001:00010b20       ??1?$__crt_unique_heap_ptr@DU__crt_internal_free_policy@@@@QEAA@XZ 0000000140011b20 f i libvcruntimed:std_type_info.obj
 0001:00010b20       ??1?$__crt_unique_heap_ptr@U__acrt_ptd@@U__crt_internal_free_policy@@@@QEAA@XZ 0000000140011b20 f i libucrtd:per_thread_data.obj
 0001:00010b20       ??1?$__crt_unique_heap_ptr@PEADU__crt_internal_free_policy@@@@QEAA@XZ 0000000140011b20 f i libucrtd:argv_parsing.obj
 0001:00010b40       ?release@?$__crt_unique_heap_ptr@U__crt_lowio_handle_data@@U__crt_internal_free_policy@@@@QEAAXXZ 0000000140011b40 f i libucrtd:osfinfo.obj
 0001:00010b40       ?release@?$__crt_unique_heap_ptr@PEADU__crt_internal_free_policy@@@@QEAAXXZ 0000000140011b40 f i libucrtd:argv_parsing.obj
 0001:00010b40       ?release@?$__crt_unique_heap_ptr@DU__crt_internal_free_policy@@@@QEAAXXZ 0000000140011b40 f i libvcruntimed:std_type_info.obj
 0001:00010b40       ?release@?$__crt_unique_heap_ptr@P6AXXZU__crt_internal_free_policy@@@@QEAAXXZ 0000000140011b40 f i libucrtd:onexit.obj
 0001:00010b40       ?release@?$__crt_unique_heap_ptr@PEAU__crt_stdio_stream_data@@U__crt_internal_free_policy@@@@QEAAXXZ 0000000140011b40 f i libucrtd:_file.obj
 0001:00010b40       ?release@?$__crt_unique_heap_ptr@U__acrt_ptd@@U__crt_internal_free_policy@@@@QEAAXXZ 0000000140011b40 f i libucrtd:per_thread_data.obj
 0001:00010b40       ?release@?$__crt_unique_heap_ptr@EU__crt_internal_free_policy@@@@QEAAXXZ 0000000140011b40 f i libucrtd:argv_parsing.obj
 0001:00010b40       ?release@?$__crt_unique_heap_ptr@U__crt_multibyte_data@@U__crt_internal_free_policy@@@@QEAAXXZ 0000000140011b40 f i libucrtd:wsetlocale.obj
 0001:00010b40       ?release@?$__crt_unique_heap_ptr@U__crt_stdio_stream_data@@U__crt_internal_free_policy@@@@QEAAXXZ 0000000140011b40 f i libucrtd:stream.obj
 0001:00010b40       ?release@?$__crt_unique_heap_ptr@U__vcrt_ptd@@U__crt_internal_free_policy@@@@QEAAXXZ 0000000140011b40 f i libvcruntimed:per_thread_data.obj
 0001:00010b70       __std_type_info_compare    0000000140011b70 f   libvcruntimed:std_type_info.obj
 0001:00010c40       __vcrt_freefls             0000000140011c40 f   libvcruntimed:per_thread_data.obj
 0001:00010c80       __vcrt_getptd              0000000140011c80 f   libvcruntimed:per_thread_data.obj
 0001:00010cb0       __vcrt_getptd_noexit       0000000140011cb0 f   libvcruntimed:per_thread_data.obj
 0001:00010e50       __vcrt_initialize_ptd      0000000140011e50 f   libvcruntimed:per_thread_data.obj
 0001:00010ea0       __vcrt_uninitialize_ptd    0000000140011ea0 f   libvcruntimed:per_thread_data.obj
 0001:00010ed0       ?GetCurrentState@__FrameHandler3@@SAHPEA_KPEAU_xDISPATCHER_CONTEXT@@PEBU_s_FuncInfo@@@Z 0000000140011ed0 f   libvcruntimed:ehstate.obj
 0001:00010f30       ?GetUnwindTryBlock@__FrameHandler3@@SAHPEA_KPEAU_xDISPATCHER_CONTEXT@@PEBU_s_FuncInfo@@@Z 0000000140011f30 f   libvcruntimed:ehstate.obj
 0001:00010f80       ?SetState@__FrameHandler3@@SAXPEA_KPEBU_s_FuncInfo@@H@Z 0000000140011f80 f   libvcruntimed:ehstate.obj
 0001:00010fb0       ?SetUnwindTryBlock@__FrameHandler3@@SAXPEA_KPEAU_xDISPATCHER_CONTEXT@@PEBU_s_FuncInfo@@H@Z 0000000140011fb0 f   libvcruntimed:ehstate.obj
 0001:00011020       ?StateFromControlPc@__FrameHandler3@@SAHPEBU_s_FuncInfo@@PEAU_xDISPATCHER_CONTEXT@@@Z 0000000140012020 f   libvcruntimed:ehstate.obj
 0001:00011060       ?StateFromIp@__FrameHandler3@@SAHPEBU_s_FuncInfo@@PEAU_xDISPATCHER_CONTEXT@@_K@Z 0000000140012060 f   libvcruntimed:ehstate.obj
 0001:000122a0       ??$TypeMatchHelper@V__FrameHandler3@@@@YAHPEBU_s_HandlerType@@PEBU_s_CatchableType@@PEBU_s_ThrowInfo@@@Z 00000001400132a0 f i libvcruntimed:frame.obj
 0001:00012490       ??$__InternalCxxFrameHandler@V__FrameHandler3@@@@YA?AW4_EXCEPTION_DISPOSITION@@PEAUEHExceptionRecord@@PEA_KPEAU_CONTEXT@@PEAU_xDISPATCHER_CONTEXT@@PEBU_s_FuncInfo@@H1E@Z 0000000140013490 f i libvcruntimed:frame.obj
 0001:00012910       ??0HandlerMap@__FrameHandler3@@QEAA@PEBU_s_TryBlockMapEntry@@PEAU_xDISPATCHER_CONTEXT@@@Z 0000000140013910 f i libvcruntimed:frame.obj
 0001:00012950       ??0TryBlockMap@__FrameHandler3@@QEAA@PEBU_s_FuncInfo@@PEAU_xDISPATCHER_CONTEXT@@@Z 0000000140013950 f i libvcruntimed:frame.obj
 0001:00012980       ??0bad_exception@std@@QEAA@AEBV01@@Z 0000000140013980 f i libvcruntimed:frame.obj
 0001:000129c0       ??0bad_exception@std@@QEAA@XZ 00000001400139c0 f i libvcruntimed:frame.obj
 0001:00012a00       ??8iterator@HandlerMap@__FrameHandler3@@QEBA_NAEBV012@@Z 0000000140013a00 f i libvcruntimed:frame.obj
 0001:00012a40       ??8type_info@@QEBA_NAEBV0@@Z 0000000140013a40 f i libvcruntimed:frame.obj
 0001:00012a90       ??9iterator@HandlerMap@__FrameHandler3@@QEBA_NAEBV012@@Z 0000000140013a90 f i libvcruntimed:frame.obj
 0001:00012ad0       ??Diterator@HandlerMap@__FrameHandler3@@QEAAPEBU_s_HandlerType@@XZ 0000000140013ad0 f i libvcruntimed:frame.obj
 0001:00012b00       ??Diterator@TryBlockMap@__FrameHandler3@@QEAAPEBU_s_TryBlockMapEntry@@XZ 0000000140013b00 f i libvcruntimed:frame.obj
 0001:00012b40       ??Eiterator@HandlerMap@__FrameHandler3@@QEAAAEAV012@XZ 0000000140013b40 f i libvcruntimed:frame.obj
 0001:00012b40       ??Eiterator@TryBlockMap@__FrameHandler3@@QEAAAEAV012@XZ 0000000140013b40 f i libvcruntimed:frame.obj
 0001:00012b60       ??Miterator@TryBlockMap@__FrameHandler3@@QEBA_NAEBV012@@Z 0000000140013b60 f i libvcruntimed:frame.obj
 0001:00012ba0       ?BuildCatchObject@__FrameHandler3@@SAXPEAUEHExceptionRecord@@PEAXPEBU_s_HandlerType@@PEBU_s_CatchableType@@@Z 0000000140013ba0 f   libvcruntimed:frame.obj
 0001:00012be0       ?CxxCallCatchBlock@__FrameHandler3@@SAPEAXPEAU_EXCEPTION_RECORD@@@Z 0000000140013be0 f   libvcruntimed:frame.obj
 0001:00012f40       ?FrameUnwindToState@__FrameHandler3@@SAXPEA_KPEAU_xDISPATCHER_CONTEXT@@PEBU_s_FuncInfo@@H@Z 0000000140013f40 f   libvcruntimed:frame.obj
 0001:000131d0       ?GetHandlerSearchState@__FrameHandler3@@SAHPEA_KPEAU_xDISPATCHER_CONTEXT@@PEBU_s_FuncInfo@@@Z 00000001400141d0 f i libvcruntimed:frame.obj
 0001:00013280       ?GetMaxState@__FrameHandler3@@SAHPEAU_xDISPATCHER_CONTEXT@@PEBU_s_FuncInfo@@@Z 0000000140014280 f i libvcruntimed:frame.obj
 0001:000134b0       __TypeMatch                00000001400144b0 f   libvcruntimed:frame.obj
 0001:000134b0       ?TypeMatch@__FrameHandler3@@SAHPEBU_s_HandlerType@@PEBU_s_CatchableType@@PEBU_s_ThrowInfo@@@Z 00000001400144b0 f   libvcruntimed:frame.obj
 0001:000134e0       ?_CallMemberFunction1@@YAXQEAX00@Z 00000001400144e0 f i libvcruntimed:frame.obj
 0001:00013510       ?_CallMemberFunction2@@YAXQEAX00H@Z 0000000140014510 f i libvcruntimed:frame.obj
 0001:00013550       ?_ValidateExecute@@YA_NP6A_JXZ@Z 0000000140014550 f i libvcruntimed:frame.obj
 0001:00013570       ?_ValidateRead@@YA_NPEBXI@Z 0000000140014570 f i libvcruntimed:frame.obj
 0001:00013570       ?_ValidateWrite@@YA_NPEAXI@Z 0000000140014570 f i libvcruntimed:frame.obj
 0001:000135d0       ?begin@HandlerMap@__FrameHandler3@@QEAA?AViterator@12@XZ 00000001400145d0 f i libvcruntimed:frame.obj
 0001:00013600       ?end@HandlerMap@__FrameHandler3@@QEAA?AViterator@12@XZ 0000000140014600 f i libvcruntimed:frame.obj
 0001:00013630       ?getESTypes@__FrameHandler3@@SAPEBU_s_ESTypeList@@PEBU_s_FuncInfo@@@Z 0000000140014630 f i libvcruntimed:frame.obj
 0001:00013670       ?getLastEntry@HandlerMap@__FrameHandler3@@QEAAPEBU_s_HandlerType@@XZ 0000000140014670 f i libvcruntimed:frame.obj
 0001:00013690       ?getMagicNum@__FrameHandler3@@SAIPEBU_s_FuncInfo@@@Z 0000000140014690 f i libvcruntimed:frame.obj
 0001:000136b0       ?getNumTryBlocks@TryBlockMap@__FrameHandler3@@QEAAIXZ 00000001400146b0 f i libvcruntimed:frame.obj
 0001:000136d0       ?isEHs@__FrameHandler3@@SA_NPEBU_s_FuncInfo@@@Z 00000001400146d0 f i libvcruntimed:frame.obj
 0001:00013710       ?isNoExcept@__FrameHandler3@@SA_NPEBU_s_FuncInfo@@@Z 0000000140014710 f i libvcruntimed:frame.obj
 0001:00013750       __vcrt_EncodePointer       0000000140014750 f i libvcruntimed:frame.obj
 0001:00013770       __vcrt_initialize_locks    0000000140014770 f   libvcruntimed:locks.obj
 0001:000137e0       __vcrt_uninitialize_locks  00000001400147e0 f   libvcruntimed:locks.obj
 0001:00013840       ??$?B$$A6AXXZ@__crt_fast_encoded_nullptr_t@@QEBAP6AXXZXZ 0000000140014840 f i libvcruntimed:purevirt_data.obj
 0001:00013840       ??$?BX@__crt_fast_encoded_nullptr_t@@QEBAPEAXXZ 0000000140014840 f i libvcruntimed:winapi_downlevel.obj
 0001:00013840       ??$?B$$A6AXPEAXK0@Z@__crt_fast_encoded_nullptr_t@@QEBAP6AXPEAXK0@ZXZ 0000000140014840 f i libucrtd:exit.obj
 0001:00013840       ??$?B$$A6AXH@Z@__crt_fast_encoded_nullptr_t@@QEBAP6AXH@ZXZ 0000000140014840 f i libucrtd:signal.obj
 0001:00013840       ??$?BP6AXXZ@__crt_fast_encoded_nullptr_t@@QEBAPEAP6AXXZXZ 0000000140014840 f i libucrtd:onexit.obj
 0001:00013860       ??$__crt_interlocked_exchange_pointer@XPEAX@@YAPEAXPEDSEAXQEAX@Z 0000000140014860 f i libvcruntimed:winapi_downlevel.obj
 0001:00013860       ??$__crt_interlocked_exchange_pointer@UHINSTANCE__@@PEAU1@@@YAPEAUHINSTANCE__@@PEDSEAU0@QEAU0@@Z 0000000140014860 f i libvcruntimed:winapi_downlevel.obj
 0001:00013860       ??$__crt_interlocked_exchange_pointer@UHINSTANCE__@@PEAX@@YAPEAUHINSTANCE__@@PEDSEAU0@QEAX@Z 0000000140014860 f i libvcruntimed:winapi_downlevel.obj
 0001:00013880       ?__crt_fast_encode_pointer@@YA?AU__crt_fast_encoded_nullptr_t@@$$T@Z 0000000140014880 f i libvcruntimed:winapi_downlevel.obj
 0001:000138a0       ?get_invalid_value@__crt_findfile_traits@@SAPEAXXZ 00000001400148a0 f   libucrtd:argv_wildcards.obj
 0001:00013de0       __vcrt_FlsAlloc            0000000140014de0 f   libvcruntimed:winapi_downlevel.obj
 0001:00013e30       __vcrt_FlsFree             0000000140014e30 f   libvcruntimed:winapi_downlevel.obj
 0001:00013e80       __vcrt_FlsGetValue         0000000140014e80 f   libvcruntimed:winapi_downlevel.obj
 0001:00013ed0       __vcrt_FlsSetValue         0000000140014ed0 f   libvcruntimed:winapi_downlevel.obj
 0001:00013f30       __vcrt_InitializeCriticalSectionEx 0000000140014f30 f   libvcruntimed:winapi_downlevel.obj
 0001:00013f90       __vcrt_initialize_winapi_thunks 0000000140014f90 f   libvcruntimed:winapi_downlevel.obj
 0001:00014010       __vcrt_uninitialize_winapi_thunks 0000000140015010 f   libvcruntimed:winapi_downlevel.obj
 0001:000140b0       __vcrt_initialize_pure_virtual_call_handler 00000001400150b0 f   libvcruntimed:purevirt_data.obj
 0001:000140f0       _NLG_Notify                00000001400150f0 f   libvcruntimed:notify.obj
 0001:00014110       __NLG_Dispatch2            0000000140015110 f   libvcruntimed:notify.obj
 0001:00014120       __NLG_Return2              0000000140015120 f   libvcruntimed:notify.obj
 0001:00014130       __except_validate_context_record 0000000140015130 f   libvcruntimed:jbcxrval.obj
 0001:00014190       __DestructExceptionObject  0000000140015190 f   libvcruntimed:ehhelpers.obj
 0001:00014290       ?_CallMemberFunction0@@YAXQEAX0@Z 0000000140015290 f i libvcruntimed:ehhelpers.obj
 0001:000142c0       _IsExceptionObjectToBeDestroyed 00000001400152c0 f   libvcruntimed:ehhelpers.obj
 0001:00014310       __AdjustPointer            0000000140015310 f   libvcruntimed:ehhelpers.obj
 0001:00014390       __FrameUnwindFilter        0000000140015390 f   libvcruntimed:ehhelpers.obj
 0001:00014420       _vsprintf_s_l              0000000140015420 f i libvcruntimed:undname.obj
 0001:00014490       sprintf_s                  0000000140015490 f i libvcruntimed:undname.obj
 0001:00014500       memset_repmovs             0000000140015500 f   libvcruntimed:memset.obj
 0001:00014520       memset                     0000000140015520 f   libvcruntimed:memset.obj
 0001:000146c0       _CallSettingFrame          00000001400156c0 f   libvcruntimed:handlers.obj
 0001:00014710       _CallSettingFrameEncoded   0000000140015710 f   libvcruntimed:handlers.obj
 0001:00014760       ??$initialize_from_array@$$BY00Q6AXPEB_W00I_K@Z@?$dual_state_global@P6AXPEB_W00I_K@Z@__crt_state_management@@QEAAXAEAY00Q6AXPEB_W00I_K@Z@Z 0000000140015760 f i libucrtd:invalid_parameter.obj
 0001:000147c0       ?value@?$dual_state_global@P6AHPEAU_exception@@@Z@__crt_state_management@@QEAAAEAP6AHPEAU_exception@@@ZXZ 00000001400157c0 f i libucrtd:matherr.obj
 0001:000147c0       ?value@?$dual_state_global@PEAU__crt_multibyte_data@@@__crt_state_management@@QEAAAEAPEAU__crt_multibyte_data@@XZ 00000001400157c0 f i libucrtd:mbctype.obj
 0001:000147c0       ?value@?$dual_state_global@P6AXPEB_W00I_K@Z@__crt_state_management@@QEAAAEAP6AXPEB_W00I_K@ZXZ 00000001400157c0 f i libucrtd:invalid_parameter.obj
 0001:000147c0       ?value@?$dual_state_global@P6AH_K@Z@__crt_state_management@@QEAAAEAP6AH_K@ZXZ 00000001400157c0 f i libucrtd:new_handler.obj
 0001:000147c0       ?value@?$dual_state_global@PEAU__crt_locale_data@@@__crt_state_management@@QEAAAEAPEAU__crt_locale_data@@XZ 00000001400157c0 f i libucrtd:wsetlocale.obj
 0001:000147c0       ?value@?$dual_state_global@P6AXH@Z@__crt_state_management@@QEAAAEAP6AXH@ZXZ 00000001400157c0 f i libucrtd:signal.obj
 0001:000147c0       ?value@?$dual_state_global@PEAE@__crt_state_management@@QEAAAEAPEAEXZ 00000001400157c0 f i libucrtd:mbctype.obj
 0001:000147e0       __acrt_call_reportfault    00000001400157e0 f   libucrtd:invalid_parameter.obj
 0001:00014910       __acrt_initialize_invalid_parameter_handler 0000000140015910 f   libucrtd:invalid_parameter.obj
 0001:00014940       _invalid_parameter         0000000140015940 f   libucrtd:invalid_parameter.obj
 0001:00014a40       _invalid_parameter_noinfo  0000000140015a40 f   libucrtd:invalid_parameter.obj
 0001:00014a70       _invoke_watson             0000000140015a70 f   libucrtd:invalid_parameter.obj
 0001:00015880       ??$get_module_file_name@$$TAEAY0BAF@DH@?$__crt_char_traits@D@@SAK$$QEA$$TAEAY0BAF@D$$QEAH@Z 0000000140016880 f i libucrtd:argv_parsing.obj
 0001:00015880       ??$get_module_file_name@AEAPEAUHINSTANCE__@@AEAY0BAF@DK@?$__crt_char_traits@D@@SAKAEAPEAUHINSTANCE__@@AEAY0BAF@D$$QEAK@Z 0000000140016880 f i libucrtd:dbgrpt.obj
 0001:000158c0       ??$get_module_file_name@AEAPEAUHINSTANCE__@@AEAY0BAF@_WK@?$__crt_char_traits@_W@@SAKAEAPEAUHINSTANCE__@@AEAY0BAF@_W$$QEAK@Z 00000001400168c0 f i libucrtd:dbgrpt.obj
 0001:00015900       ??$tcscpy_s@AEAY0BAF@D_KPEBD@?$__crt_char_traits@D@@SAHAEAY0BAF@D$$QEA_K$$QEAPEBD@Z 0000000140016900 f i libucrtd:dbgrpt.obj
 0001:00015940       ??$tcscpy_s@AEAY0BAF@_W_KPEB_W@?$__crt_char_traits@_W@@SAHAEAY0BAF@_W$$QEA_K$$QEAPEB_W@Z 0000000140016940 f i libucrtd:dbgrpt.obj
 0001:00015980       ??$tcslen@AEAY0BAF@D@?$__crt_char_traits@D@@SA_KAEAY0BAF@D@Z 0000000140016980 f i libucrtd:dbgrpt.obj
 0001:000159a0       ??$tcslen@AEAY0BAF@_W@?$__crt_char_traits@_W@@SA_KAEAY0BAF@_W@Z 00000001400169a0 f i libucrtd:dbgrpt.obj
 0001:000159c0       ??$tcslen@AEBQEBD@?$__crt_char_traits@D@@SA_KAEBQEBD@Z 00000001400169c0 f i libucrtd:dbgrpt.obj
 0001:000159e0       ??$tcslen@AEBQEB_W@?$__crt_char_traits@_W@@SA_KAEBQEB_W@Z 00000001400169e0 f i libucrtd:dbgrpt.obj
 0001:00015a40       _CrtDbgReport              0000000140016a40 f   libucrtd:dbgrpt.obj
 0001:00015ac0       _CrtDbgReportW             0000000140016ac0 f   libucrtd:dbgrpt.obj
 0001:00015b40       __acrt_MessageWindowA      0000000140016b40 f   libucrtd:dbgrpt.obj
 0001:00015b90       __acrt_MessageWindowW      0000000140016b90 f   libucrtd:dbgrpt.obj
 0001:00015be0       _invoke_watson_if_error    0000000140016be0 f i libucrtd:dbgrpt.obj
 0001:00015c30       _invoke_watson_if_oneof    0000000140016c30 f i libucrtd:dbgrpt.obj
 0001:00015c90       _snwprintf_s               0000000140016c90 f i libucrtd:dbgrpt.obj
 0001:00015d00       _vsnwprintf_s_l            0000000140016d00 f i libucrtd:dbgrpt.obj
 0001:00015d80       ??$__crt_interlocked_read@H@@YAHPEDH@Z 0000000140016d80 f i libucrtd:setmode.obj
 0001:00015d80       ??$__crt_interlocked_read@J@@YAJPEDJ@Z 0000000140016d80 f i libucrtd:fclose.obj
 0001:00015da0       ?__crt_interlocked_read_32@@YAHPEDH@Z 0000000140016da0 f i libucrtd:fclose.obj
 0001:00015dc0       ?get_flags@__crt_stdio_stream@@QEBAJXZ 0000000140016dc0 f i libucrtd:fclose.obj
 0001:00015df0       ?is_in_use@__crt_stdio_stream@@QEBA_NXZ 0000000140016df0 f i libucrtd:fclose.obj
 0001:00015e30       ?is_string_backed@__crt_stdio_stream@@QEBA_NXZ 0000000140016e30 f i libucrtd:fclose.obj
 0001:00015e70       _fclose_nolock             0000000140016e70 f   libucrtd:fclose.obj
 0001:00016000       fclose                     0000000140017000 f   libucrtd:fclose.obj
 0001:000163f0       ??$open_file@AEBQEBDAEBQEBDAEBHPEAU_iobuf@@@?$__crt_char_traits@D@@SAPEAU_iobuf@@AEBQEBD0AEBH$$QEAPEAU1@@Z 00000001400173f0 f i libucrtd:fopen.obj
 0001:00016440       ?unlock@__crt_stdio_stream@@QEBAXXZ 0000000140017440 f i libucrtd:fopen.obj
 0001:00016460       fopen                      0000000140017460 f   libucrtd:fopen.obj
 0001:00016490       ?__acrt_stdio_reset_buffer@@YAXV__crt_stdio_stream@@@Z 0000000140017490 f i libucrtd:fread.obj
 0001:000164e0       ?has_any_buffer@__crt_stdio_stream@@QEBA_NXZ 00000001400174e0 f i libucrtd:fread.obj
 0001:00016500       ?has_any_of@__crt_stdio_stream@@QEBA_NJ@Z 0000000140017500 f i libucrtd:fread.obj
 0001:00016540       ?set_flags@__crt_stdio_stream@@QEBA_NJ@Z 0000000140017540 f i libucrtd:fread.obj
 0001:000165b0       _fread_nolock_s            00000001400175b0 f   libucrtd:fread.obj
 0001:00016f60       fread                      0000000140017f60 f   libucrtd:fread.obj
 0001:00016fb0       fread_s                    0000000140017fb0 f   libucrtd:fread.obj
 0001:00017240       ?LongLongSub@@YAJ_J0PEA_J@Z 0000000140018240 f i libucrtd:fseek.obj
 0001:00017870       ?has_all_of@__crt_stdio_stream@@QEBA_NJ@Z 0000000140018870 f i libucrtd:fseek.obj
 0001:000178b0       ?lowio_handle@__crt_stdio_stream@@QEBAHXZ 00000001400188b0 f i libucrtd:fseek.obj
 0001:000178e0       ?unset_flags@__crt_stdio_stream@@QEBA_NJ@Z 00000001400188e0 f i libucrtd:fseek.obj
 0001:00017940       fseek                      0000000140018940 f   libucrtd:fseek.obj
 0001:00018620       ?ctrl_z@__crt_stdio_stream@@QEBA_NXZ 0000000140019620 f i libucrtd:ftell.obj
 0001:00018640       ?has_big_buffer@__crt_stdio_stream@@QEBA_NXZ 0000000140019640 f i libucrtd:ftell.obj
 0001:00018660       ?has_crt_buffer@__crt_stdio_stream@@QEBA_NXZ 0000000140019660 f i libucrtd:ftell.obj
 0001:00018680       ?has_setvbuf_buffer@__crt_stdio_stream@@QEBA_NXZ 0000000140019680 f i libucrtd:ftell.obj
 0001:000186a0       _ftelli64_nolock           00000001400196a0 f   libucrtd:ftell.obj
 0001:000186d0       _utf8_no_of_trailbytes     00000001400196d0 f i libucrtd:ftell.obj
 0001:000186f0       ftell                      00000001400196f0 f   libucrtd:ftell.obj
 0001:00018840       ??0__acrt_stdio_temporary_buffering_guard@@QEAA@QEAU_iobuf@@@Z 0000000140019840 f i libucrtd:fwrite.obj
 0001:00018880       ??1__acrt_stdio_temporary_buffering_guard@@QEAA@XZ 0000000140019880 f i libucrtd:fwrite.obj
 0001:00018970       _fwrite_nolock             0000000140019970 f   libucrtd:fwrite.obj
 0001:000190f0       fwrite                     000000014001a0f0 f   libucrtd:fwrite.obj
 0001:00019210       __acrt_initialize_locks    000000014001a210 f   libucrtd:locks.obj
 0001:00019280       __acrt_lock                000000014001a280 f   libucrtd:locks.obj
 0001:000192b0       __acrt_uninitialize_locks  000000014001a2b0 f   libucrtd:locks.obj
 0001:00019310       __acrt_unlock              000000014001a310 f   libucrtd:locks.obj
 0001:00019340       _lock_locales              000000014001a340 f   libucrtd:locks.obj
 0001:00019360       _unlock_locales            000000014001a360 f   libucrtd:locks.obj
 0001:00019380       ?initialize@?$dual_state_global@PEAU__crt_multibyte_data@@@__crt_state_management@@QEAAXQEAU__crt_multibyte_data@@@Z 000000014001a380 f i libucrtd:mbctype.obj
 0001:00019380       ?initialize@?$dual_state_global@P6AH_K@Z@__crt_state_management@@QEAAXQ6AH_K@Z@Z 000000014001a380 f i libucrtd:new_handler.obj
 0001:00019380       ?initialize@?$dual_state_global@P6AHPEAU_exception@@@Z@__crt_state_management@@QEAAXQ6AHPEAU_exception@@@Z@Z 000000014001a380 f i libucrtd:matherr.obj
 0001:00019380       ?initialize@?$dual_state_global@P6AXH@Z@__crt_state_management@@QEAAXQ6AXH@Z@Z 000000014001a380 f i libucrtd:signal.obj
 0001:00019380       ?initialize@?$dual_state_global@PEAU__crt_locale_data@@@__crt_state_management@@QEAAXQEAU__crt_locale_data@@@Z 000000014001a380 f i libucrtd:initialization.obj
 0001:000193d0       __acrt_initialize_new_handler 000000014001a3d0 f   libucrtd:new_handler.obj
 0001:000193f0       _callnewh                  000000014001a3f0 f   libucrtd:new_handler.obj
 0001:00019440       _query_new_handler         000000014001a440 f   libucrtd:new_handler.obj
 0001:00019480       malloc                     000000014001a480 f   libucrtd:malloc.obj
 0001:00019520       _seh_filter_exe            000000014001a520 f   libucrtd:exception_filter.obj
 0001:00019850       ??$__crt_get_proc_address@P6AXI@Z@@YAP6AXI@ZQEAUHINSTANCE__@@QEBD@Z 000000014001a850 f i libucrtd:exit.obj
 0001:000198f0       ??1?$__crt_unique_handle_t@U__crt_hmodule_traits@@@@QEAA@XZ 000000014001a8f0 f i libucrtd:exit.obj
 0001:00019a50       ?__acrt_select_exit_lock@@YA?AW4__acrt_lock_id@@XZ 000000014001aa50 f i libucrtd:exit.obj
 0001:00019a80       ?close@?$__crt_unique_handle_t@U__crt_hmodule_traits@@@@QEAAXXZ 000000014001aa80 f i libucrtd:exit.obj
 0001:00019ac0       ?close@__crt_hmodule_traits@@SA_NPEAUHINSTANCE__@@@Z 000000014001aac0 f i libucrtd:exit.obj
 0001:00019d80       __acrt_initialize_thread_local_exit_callback 000000014001ad80 f   libucrtd:exit.obj
 0001:00019da0       _c_exit                    000000014001ada0 f   libucrtd:exit.obj
 0001:00019dc0       _cexit                     000000014001adc0 f   libucrtd:exit.obj
 0001:00019de0       _exit                      000000014001ade0 f   libucrtd:exit.obj
 0001:00019e00       _register_thread_local_exe_atexit_callback 000000014001ae00 f   libucrtd:exit.obj
 0001:00019e50       exit                       000000014001ae50 f   libucrtd:exit.obj
 0001:0001a690       ??$set_program_name@PEAD@?$__crt_char_traits@D@@SAX$$QEAPEAD@Z 000000014001b690 f i libucrtd:argv_parsing.obj
 0001:0001a7c0       __acrt_allocate_buffer_for_argv 000000014001b7c0 f   libucrtd:argv_parsing.obj
 0001:0001a8e0       _configure_narrow_argv     000000014001b8e0 f   libucrtd:argv_parsing.obj
 0001:0001a900       _set_pgmptr                000000014001b900 f i libucrtd:argv_parsing.obj
 0001:0001ac20       ??$tcslen@AEAPEAD@?$__crt_char_traits@D@@SA_KAEAPEAD@Z 000000014001bc20 f i libucrtd:environment_initialization.obj
 0001:0001ac6c       ??B?$__crt_unique_heap_ptr@PEADU__crt_internal_free_policy@@@@QEBA_NXZ 000000014001bc6c f i libucrtd:environment_initialization.obj
 0001:0001ac74       ?detach@?$__crt_unique_heap_ptr@DU__crt_internal_free_policy@@@@QEAAPEADXZ 000000014001bc74 f i libucrtd:environment_initialization.obj
 0001:0001ac7c       __dcrt_get_or_create_narrow_environment_nolock 000000014001bc7c f   libucrtd:environment_initialization.obj
 0001:0001acb8       __dcrt_uninitialize_environments_nolock 000000014001bcb8 f   libucrtd:environment_initialization.obj
 0001:0001acf0       _get_initial_narrow_environment 000000014001bcf0 f   libucrtd:environment_initialization.obj
 0001:0001ad40       _initialize_narrow_environment 000000014001bd40 f   libucrtd:environment_initialization.obj
 0001:0001b3d0       _crt_atexit                000000014001c3d0 f   libucrtd:onexit.obj
 0001:0001b3f0       _execute_onexit_table      000000014001c3f0 f   libucrtd:onexit.obj
 0001:0001b430       _initialize_onexit_table   000000014001c430 f   libucrtd:onexit.obj
 0001:0001b4b0       _register_onexit_function  000000014001c4b0 f   libucrtd:onexit.obj
 0001:0001b540       __acrt_uninitialize_command_line 000000014001c540 f   libucrtd:argv_data.obj
 0001:0001b7a0       __acrt_initialize          000000014001c7a0 f   libucrtd:initialization.obj
 0001:0001b7d0       __acrt_uninitialize        000000014001c7d0 f   libucrtd:initialization.obj
 0001:0001b9d0       __acrt_report_runtime_error 000000014001c9d0 f   libucrtd:report_runtime_error.obj
 0001:0001bc50       _query_app_type            000000014001cc50 f   libucrtd:report_runtime_error.obj
 0001:0001bc60       _set_app_type              000000014001cc60 f   libucrtd:report_runtime_error.obj
 0001:0001bc70       __acrt_has_user_matherr    000000014001cc70 f   libucrtd:matherr.obj
 0001:0001bcb0       __acrt_initialize_user_matherr 000000014001ccb0 f   libucrtd:matherr.obj
 0001:0001bcd0       __acrt_invoke_user_matherr 000000014001ccd0 f   libucrtd:matherr.obj
 0001:0001bd20       __setusermatherr           000000014001cd20 f   libucrtd:matherr.obj
 0001:0001bd60       _initterm                  000000014001cd60 f   libucrtd:initterm.obj
 0001:0001bdc0       _initterm_e                000000014001cdc0 f   libucrtd:initterm.obj
 0001:0001be40       ?value@?$dual_state_global@H@__crt_state_management@@QEAAAEAHXZ 000000014001ce40 f i libucrtd:setmode.obj
 0001:0001be40       ?value@?$dual_state_global@J@__crt_state_management@@QEAAAEAJXZ 000000014001ce40 f i libucrtd:new_mode.obj
 0001:0001be60       _get_fmode                 000000014001ce60 f   libucrtd:setmode.obj
 0001:0001bf30       _set_fmode                 000000014001cf30 f   libucrtd:setmode.obj
 0001:0001c010       _setmode_nolock            000000014001d010 f   libucrtd:setmode.obj
 0001:0001c2d0       __acrt_initialize_command_line 000000014001d2d0 f   libucrtd:argv_data.obj
 0001:0001c300       __p___argc                 000000014001d300 f   libucrtd:argv_data.obj
 0001:0001c310       __p___argv                 000000014001d310 f   libucrtd:argv_data.obj
 0001:0001c480       __acrt_disable_global_locale_sync 000000014001d480 f i libucrtd:wsetlocale.obj
 0001:0001c4b0       __acrt_enable_global_locale_sync 000000014001d4b0 f i libucrtd:wsetlocale.obj
 0001:0001c4e0       __acrt_set_locale_changed  000000014001d4e0 f   libucrtd:wsetlocale.obj
 0001:0001c4f0       __acrt_uninitialize_locale 000000014001d4f0 f   libucrtd:wsetlocale.obj
 0001:0001c520       __ascii_tolower            000000014001d520 f i libucrtd:wsetlocale.obj
 0001:0001c540       __ascii_towlower           000000014001d540 f i libucrtd:wsetlocale.obj
 0001:0001c560       _configthreadlocale        000000014001d560 f   libucrtd:wsetlocale.obj
 0001:0001c6c0       _query_new_mode            000000014001d6c0 f   libucrtd:new_mode.obj
 0001:0001c6e0       _set_new_mode              000000014001d6e0 f   libucrtd:new_mode.obj
 0001:0001c7b0       __p__commode               000000014001d7b0 f   libucrtd:ncommode.obj
 0001:0001c7c0       ??0_LocaleUpdate@@QEAA@QEAU__crt_locale_pointers@@@Z 000000014001d7c0 f i libucrtd:debug_heap.obj
 0001:0001c8e0       ??1_LocaleUpdate@@QEAA@XZ  000000014001d8e0 f i libucrtd:debug_heap.obj
 0001:0001e8e0       _CrtCheckMemory            000000014001f8e0 f   libucrtd:debug_heap.obj
 0001:0001ea70       _CrtDumpMemoryLeaks        000000014001fa70 f   libucrtd:debug_heap.obj
 0001:0001eb30       _CrtIsValidHeapPointer     000000014001fb30 f   libucrtd:debug_heap.obj
 0001:0001eb70       _CrtIsValidPointer         000000014001fb70 f   libucrtd:debug_heap.obj
 0001:0001ebb0       _CrtMemCheckpoint          000000014001fbb0 f   libucrtd:debug_heap.obj
 0001:0001ee30       _CrtMemDumpAllObjectsSince 000000014001fe30 f   libucrtd:debug_heap.obj
 0001:0001ee90       _CrtSetDbgFlag             000000014001fe90 f   libucrtd:debug_heap.obj
 0001:0001eff0       _CrtSetDumpClient          000000014001fff0 f   libucrtd:debug_heap.obj
 0001:0001f020       __acrt_get_locale_data_prefix 0000000140020020 f i libucrtd:debug_heap.obj
 0001:0001f040       __acrt_locale_changed      0000000140020040 f i libucrtd:debug_heap.obj
 0001:0001f070       _calloc_dbg                0000000140020070 f   libucrtd:debug_heap.obj
 0001:0001f110       _chvalidchk_l              0000000140020110 f i libucrtd:debug_heap.obj
 0001:0001f140       _free_dbg                  0000000140020140 f   libucrtd:debug_heap.obj
 0001:0001f1b0       _ischartype_l              00000001400201b0 f i libucrtd:debug_heap.obj
 0001:0001f240       _malloc_dbg                0000000140020240 f   libucrtd:debug_heap.obj
 0001:0001f280       _msize_dbg                 0000000140020280 f   libucrtd:debug_heap.obj
 0001:0001f420       _realloc_dbg               0000000140020420 f   libucrtd:debug_heap.obj
 0001:0001f490       _recalloc_dbg              0000000140020490 f   libucrtd:debug_heap.obj
 0001:0001f590       terminate                  0000000140020590 f   libucrtd:terminate.obj
 0001:0001f5d0       free                       00000001400205d0 f   libucrtd:free.obj
 0001:0001fad0       strcpy_s                   0000000140020ad0 f   libucrtd:strcpy_s.obj
 0001:0001fb10       strlen                     0000000140020b10 f   libucrtd:strlen.obj
 0001:0001fbd0       strcmp                     0000000140020bd0 f   libucrtd:strcmp.obj
 0001:0001fc40       abort                      0000000140020c40 f   libucrtd:abort.obj
 0001:0001fcc0       wcsncmp                    0000000140020cc0 f   libucrtd:wcsncmp.obj
 0001:0001fd50       ??$?0AEBV?$string_output_adapter@D@__crt_stdio_output@@AEB_KAEBQEBDAEBQEAU__crt_locale_pointers@@AEBQEAD@?$format_validation_base@DV?$string_output_adapter@D@__crt_stdio_output@@@__crt_stdio_output@@IEAA@AEBV?$string_output_adapter@D@1@AEB_KAEBQEBDAEBQEAU__crt_locale_pointers@@AEBQEAD@Z 0000000140020d50 f i libucrtd:output.obj
 0001:0001fda0       ??$?0AEBV?$string_output_adapter@D@__crt_stdio_output@@AEB_KAEBQEBDAEBQEAU__crt_locale_pointers@@AEBQEAD@?$standard_base@DV?$string_output_adapter@D@__crt_stdio_output@@@__crt_stdio_output@@IEAA@AEBV?$string_output_adapter@D@1@AEB_KAEBQEBDAEBQEAU__crt_locale_pointers@@AEBQEAD@Z 0000000140020da0 f i libucrtd:output.obj
 0001:0001fe10       ??$?0AEBV?$string_output_adapter@_W@__crt_stdio_output@@AEB_KAEBQEB_WAEBQEAU__crt_locale_pointers@@AEBQEAD@?$format_validation_base@_WV?$string_output_adapter@_W@__crt_stdio_output@@@__crt_stdio_output@@IEAA@AEBV?$string_output_adapter@_W@1@AEB_KAEBQEB_WAEBQEAU__crt_locale_pointers@@AEBQEAD@Z 0000000140020e10 f i libucrtd:output.obj
 0001:0001fe60       ??$?0AEBV?$string_output_adapter@_W@__crt_stdio_output@@AEB_KAEBQEB_WAEBQEAU__crt_locale_pointers@@AEBQEAD@?$standard_base@_WV?$string_output_adapter@_W@__crt_stdio_output@@@__crt_stdio_output@@IEAA@AEBV?$string_output_adapter@_W@1@AEB_KAEBQEB_WAEBQEAU__crt_locale_pointers@@AEBQEAD@Z 0000000140020e60 f i libucrtd:output.obj
 0001:000217e0       ??$count@D@formatting_buffer@__crt_stdio_output@@QEBA_KXZ 00000001400227e0 f i libucrtd:output.obj
 0001:00021830       ??$count@_W@formatting_buffer@__crt_stdio_output@@QEBA_KXZ 0000000140022830 f i libucrtd:output.obj
 0001:00021880       ??$data@D@formatting_buffer@__crt_stdio_output@@QEAAPEADXZ 0000000140022880 f i libucrtd:output.obj
 0001:00021880       ??$data@_W@formatting_buffer@__crt_stdio_output@@QEAAPEA_WXZ 0000000140022880 f i libucrtd:output.obj
 0001:000218d0       ??$ensure_buffer_is_big_enough@D@formatting_buffer@__crt_stdio_output@@QEAA_N_K@Z 00000001400228d0 f i libucrtd:output.obj
 0001:00021a00       ??$ensure_buffer_is_big_enough@_W@formatting_buffer@__crt_stdio_output@@QEAA_N_K@Z 0000000140022a00 f i libucrtd:output.obj
 0001:00021b30       ??$extract_argument_from_va_list@C_J@?$standard_base@_WV?$string_output_adapter@_W@__crt_stdio_output@@@__crt_stdio_output@@IEAA_NAEA_J@Z 0000000140022b30 f i libucrtd:output.obj
 0001:00021b30       ??$extract_argument_from_va_list@C_J@?$standard_base@DV?$string_output_adapter@D@__crt_stdio_output@@@__crt_stdio_output@@IEAA_NAEA_J@Z 0000000140022b30 f i libucrtd:output.obj
 0001:00021b70       ??$extract_argument_from_va_list@E_J@?$standard_base@DV?$string_output_adapter@D@__crt_stdio_output@@@__crt_stdio_output@@IEAA_NAEA_J@Z 0000000140022b70 f i libucrtd:output.obj
 0001:00021b70       ??$extract_argument_from_va_list@E_J@?$standard_base@_WV?$string_output_adapter@_W@__crt_stdio_output@@@__crt_stdio_output@@IEAA_NAEA_J@Z 0000000140022b70 f i libucrtd:output.obj
 0001:00021bb0       ??$extract_argument_from_va_list@F_J@?$standard_base@_WV?$string_output_adapter@_W@__crt_stdio_output@@@__crt_stdio_output@@IEAA_NAEA_J@Z 0000000140022bb0 f i libucrtd:output.obj
 0001:00021bb0       ??$extract_argument_from_va_list@F_J@?$standard_base@DV?$string_output_adapter@D@__crt_stdio_output@@@__crt_stdio_output@@IEAA_NAEA_J@Z 0000000140022bb0 f i libucrtd:output.obj
 0001:00021bf0       ??$extract_argument_from_va_list@GD@?$standard_base@DV?$string_output_adapter@D@__crt_stdio_output@@@__crt_stdio_output@@IEAA_NAEAD@Z 0000000140022bf0 f i libucrtd:output.obj
 0001:00021c20       ??$extract_argument_from_va_list@G_J@?$standard_base@DV?$string_output_adapter@D@__crt_stdio_output@@@__crt_stdio_output@@IEAA_NAEA_J@Z 0000000140022c20 f i libucrtd:output.obj
 0001:00021c20       ??$extract_argument_from_va_list@G_J@?$standard_base@_WV?$string_output_adapter@_W@__crt_stdio_output@@@__crt_stdio_output@@IEAA_NAEA_J@Z 0000000140022c20 f i libucrtd:output.obj
 0001:00021c60       ??$extract_argument_from_va_list@H_J@?$standard_base@DV?$string_output_adapter@D@__crt_stdio_output@@@__crt_stdio_output@@IEAA_NAEA_J@Z 0000000140022c60 f i libucrtd:output.obj
 0001:00021c60       ??$extract_argument_from_va_list@H_J@?$standard_base@_WV?$string_output_adapter@_W@__crt_stdio_output@@@__crt_stdio_output@@IEAA_NAEA_J@Z 0000000140022c60 f i libucrtd:output.obj
 0001:00021c90       ??$extract_argument_from_va_list@I_J@?$standard_base@_WV?$string_output_adapter@_W@__crt_stdio_output@@@__crt_stdio_output@@IEAA_NAEA_J@Z 0000000140022c90 f i libucrtd:output.obj
 0001:00021c90       ??$extract_argument_from_va_list@I_J@?$standard_base@DV?$string_output_adapter@D@__crt_stdio_output@@@__crt_stdio_output@@IEAA_NAEA_J@Z 0000000140022c90 f i libucrtd:output.obj
 0001:00021cc0       ??$extract_argument_from_va_list@_K_J@?$standard_base@DV?$string_output_adapter@D@__crt_stdio_output@@@__crt_stdio_output@@IEAA_NAEA_J@Z 0000000140022cc0 f i libucrtd:output.obj
 0001:00021cc0       ??$extract_argument_from_va_list@PEAUansi_string@?1??type_case_Z@?$output_processor@_WV?$string_output_adapter@_W@__crt_stdio_output@@V?$format_validation_base@_WV?$string_output_adapter@_W@__crt_stdio_output@@@2@@__crt_stdio_output@@AEAA_NXZ@PEAU1?1??234@AEAA_NXZ@@?$standard_base@_WV?$string_output_adapter@_W@__crt_stdio_output@@@__crt_stdio_output@@IEAA_NAEAPEAUansi_string@?1??type_case_Z@?$output_processor@_WV?$string_output_adapter@_W@__crt_stdio_output@@V?$format_validation_base@_WV?$string_output_adapter@_W@__crt_stdio_output@@@2@@1@AEAA_NXZ@@Z 0000000140022cc0 f i libucrtd:output.obj
 0001:00021cc0       ??$extract_argument_from_va_list@_K_J@?$standard_base@_WV?$string_output_adapter@_W@__crt_stdio_output@@@__crt_stdio_output@@IEAA_NAEA_J@Z 0000000140022cc0 f i libucrtd:output.obj
 0001:00021cc0       ??$extract_argument_from_va_list@PEAXPEAX@?$standard_base@_WV?$string_output_adapter@_W@__crt_stdio_output@@@__crt_stdio_output@@IEAA_NAEAPEAX@Z 0000000140022cc0 f i libucrtd:output.obj
 0001:00021cc0       ??$extract_argument_from_va_list@PEAXPEAX@?$standard_base@DV?$string_output_adapter@D@__crt_stdio_output@@@__crt_stdio_output@@IEAA_NAEAPEAX@Z 0000000140022cc0 f i libucrtd:output.obj
 0001:00021cc0       ??$extract_argument_from_va_list@PEADPEAD@?$standard_base@_WV?$string_output_adapter@_W@__crt_stdio_output@@@__crt_stdio_output@@IEAA_NAEAPEAD@Z 0000000140022cc0 f i libucrtd:output.obj
 0001:00021cc0       ??$extract_argument_from_va_list@PEAUansi_string@?1??type_case_Z@?$output_processor@DV?$string_output_adapter@D@__crt_stdio_output@@V?$format_validation_base@DV?$string_output_adapter@D@__crt_stdio_output@@@2@@__crt_stdio_output@@AEAA_NXZ@PEAU1?1??234@AEAA_NXZ@@?$standard_base@DV?$string_output_adapter@D@__crt_stdio_output@@@__crt_stdio_output@@IEAA_NAEAPEAUansi_string@?1??type_case_Z@?$output_processor@DV?$string_output_adapter@D@__crt_stdio_output@@V?$format_validation_base@DV?$string_output_adapter@D@__crt_stdio_output@@@2@@1@AEAA_NXZ@@Z 0000000140022cc0 f i libucrtd:output.obj
 0001:00021cc0       ??$extract_argument_from_va_list@_J_J@?$standard_base@_WV?$string_output_adapter@_W@__crt_stdio_output@@@__crt_stdio_output@@IEAA_NAEA_J@Z 0000000140022cc0 f i libucrtd:output.obj
 0001:00021cc0       ??$extract_argument_from_va_list@_J_J@?$standard_base@DV?$string_output_adapter@D@__crt_stdio_output@@@__crt_stdio_output@@IEAA_NAEA_J@Z 0000000140022cc0 f i libucrtd:output.obj
 0001:00021cc0       ??$extract_argument_from_va_list@PEADPEAD@?$standard_base@DV?$string_output_adapter@D@__crt_stdio_output@@@__crt_stdio_output@@IEAA_NAEAPEAD@Z 0000000140022cc0 f i libucrtd:output.obj
 0001:00021cf0       ??$extract_argument_from_va_list@U_CRT_DOUBLE@@U1@@?$standard_base@_WV?$string_output_adapter@_W@__crt_stdio_output@@@__crt_stdio_output@@IEAA_NAEAU_CRT_DOUBLE@@@Z 0000000140022cf0 f i libucrtd:output.obj
 0001:00021cf0       ??$extract_argument_from_va_list@U_CRT_DOUBLE@@U1@@?$standard_base@DV?$string_output_adapter@D@__crt_stdio_output@@@__crt_stdio_output@@IEAA_NAEAU_CRT_DOUBLE@@@Z 0000000140022cf0 f i libucrtd:output.obj
 0001:00021d40       ??$extract_argument_from_va_list@_W_W@?$standard_base@_WV?$string_output_adapter@_W@__crt_stdio_output@@@__crt_stdio_output@@IEAA_NAEA_W@Z 0000000140022d40 f i libucrtd:output.obj
 0001:00021d40       ??$extract_argument_from_va_list@_W_W@?$standard_base@DV?$string_output_adapter@D@__crt_stdio_output@@@__crt_stdio_output@@IEAA_NAEA_W@Z 0000000140022d40 f i libucrtd:output.obj
 0001:00021d70       ??$is_wide_character_specifier@D@__crt_stdio_output@@YA_N_KDW4length_modifier@0@@Z 0000000140022d70 f i libucrtd:output.obj
 0001:00021e10       ??$is_wide_character_specifier@_W@__crt_stdio_output@@YA_N_K_WW4length_modifier@0@@Z 0000000140022e10 f i libucrtd:output.obj
 0001:00021ee0       ??$read_va_arg@C@__crt_stdio_output@@YACAEAPEAD@Z 0000000140022ee0 f i libucrtd:output.obj
 0001:00021ee0       ??$read_va_arg@E@__crt_stdio_output@@YAEAEAPEAD@Z 0000000140022ee0 f i libucrtd:output.obj
 0001:00021f50       ??$read_va_arg@G@__crt_stdio_output@@YAGAEAPEAD@Z 0000000140022f50 f i libucrtd:output.obj
 0001:00021f50       ??$read_va_arg@_W@__crt_stdio_output@@YA_WAEAPEAD@Z 0000000140022f50 f i libucrtd:output.obj
 0001:00021f50       ??$read_va_arg@F@__crt_stdio_output@@YAFAEAPEAD@Z 0000000140022f50 f i libucrtd:output.obj
 0001:00021fc0       ??$read_va_arg@I@__crt_stdio_output@@YAIAEAPEAD@Z 0000000140022fc0 f i libucrtd:output.obj
 0001:00021fc0       ??$read_va_arg@H@__crt_stdio_output@@YAHAEAPEAD@Z 0000000140022fc0 f i libucrtd:output.obj
 0001:00022020       ??$read_va_arg@_K@__crt_stdio_output@@YA_KAEAPEAD@Z 0000000140023020 f i libucrtd:output.obj
 0001:00022020       ??$read_va_arg@PEAUansi_string@?1??type_case_Z@?$output_processor@DV?$string_output_adapter@D@__crt_stdio_output@@V?$format_validation_base@DV?$string_output_adapter@D@__crt_stdio_output@@@2@@__crt_stdio_output@@AEAA_NXZ@@__crt_stdio_output@@YAPEAUansi_string@?1??type_case_Z@?$output_processor@DV?$string_output_adapter@D@__crt_stdio_output@@V?$format_validation_base@DV?$string_output_adapter@D@__crt_stdio_output@@@2@@0@AEAA_NXZ@AEAPEAD@Z 0000000140023020 f i libucrtd:output.obj
 0001:00022020       ??$read_va_arg@PEAX@__crt_stdio_output@@YAPEAXAEAPEAD@Z 0000000140023020 f i libucrtd:output.obj
 0001:00022020       ??$read_va_arg@PEAUansi_string@?1??type_case_Z@?$output_processor@_WV?$string_output_adapter@_W@__crt_stdio_output@@V?$format_validation_base@_WV?$string_output_adapter@_W@__crt_stdio_output@@@2@@__crt_stdio_output@@AEAA_NXZ@@__crt_stdio_output@@YAPEAUansi_string@?1??type_case_Z@?$output_processor@_WV?$string_output_adapter@_W@__crt_stdio_output@@V?$format_validation_base@_WV?$string_output_adapter@_W@__crt_stdio_output@@@2@@0@AEAA_NXZ@AEAPEAD@Z 0000000140023020 f i libucrtd:output.obj
 0001:00022020       ??$read_va_arg@PEAD@__crt_stdio_output@@YAPEADAEAPEAD@Z 0000000140023020 f i libucrtd:output.obj
 0001:00022020       ??$read_va_arg@U_CRT_DOUBLE@@@__crt_stdio_output@@YA?AU_CRT_DOUBLE@@AEAPEAD@Z 0000000140023020 f i libucrtd:output.obj
 0001:00022020       ??$read_va_arg@_J@__crt_stdio_output@@YA_JAEAPEAD@Z 0000000140023020 f i libucrtd:output.obj
 0001:00022090       ??$scratch_count@D@formatting_buffer@__crt_stdio_output@@QEBA_KXZ 0000000140023090 f i libucrtd:output.obj
 0001:000220b0       ??$scratch_data@D@formatting_buffer@__crt_stdio_output@@QEAAPEADXZ 00000001400230b0 f i libucrtd:output.obj
 0001:00022120       ??$tcstol@PEBDPEAPEADH@?$__crt_char_traits@D@@SAJ$$QEAPEBD$$QEAPEAPEAD$$QEAH@Z 0000000140023120 f i libucrtd:output.obj
 0001:00022160       ??$tcstol@PEB_WPEAPEA_WH@?$__crt_char_traits@_W@@SAJ$$QEAPEB_W$$QEAPEAPEA_W$$QEAH@Z 0000000140023160 f i libucrtd:output.obj
 0001:000221a0       ??$type_case_integer_parse_into_buffer@I@?$output_processor@DV?$string_output_adapter@D@__crt_stdio_output@@V?$format_validation_base@DV?$string_output_adapter@D@__crt_stdio_output@@@2@@__crt_stdio_output@@AEAAXII_N@Z 00000001400231a0 f i libucrtd:output.obj
 0001:000222d0       ??$type_case_integer_parse_into_buffer@I@?$output_processor@_WV?$string_output_adapter@_W@__crt_stdio_output@@V?$format_validation_base@_WV?$string_output_adapter@_W@__crt_stdio_output@@@2@@__crt_stdio_output@@AEAAXII_N@Z 00000001400232d0 f i libucrtd:output.obj
 0001:00022410       ??$type_case_integer_parse_into_buffer@_K@?$output_processor@DV?$string_output_adapter@D@__crt_stdio_output@@V?$format_validation_base@DV?$string_output_adapter@D@__crt_stdio_output@@@2@@__crt_stdio_output@@AEAAX_KI_N@Z 0000000140023410 f i libucrtd:output.obj
 0001:00022560       ??$type_case_integer_parse_into_buffer@_K@?$output_processor@_WV?$string_output_adapter@_W@__crt_stdio_output@@V?$format_validation_base@_WV?$string_output_adapter@_W@__crt_stdio_output@@@2@@__crt_stdio_output@@AEAAX_KI_N@Z 0000000140023560 f i libucrtd:output.obj
 0001:000226c0       ??$write_multiple_characters@V?$string_output_adapter@D@__crt_stdio_output@@D@__crt_stdio_output@@YAXAEBV?$string_output_adapter@D@0@DHQEAH@Z 00000001400236c0 f i libucrtd:output.obj
 0001:00022720       ??$write_multiple_characters@V?$string_output_adapter@_W@__crt_stdio_output@@D@__crt_stdio_output@@YAXAEBV?$string_output_adapter@_W@0@DHQEAH@Z 0000000140023720 f i libucrtd:output.obj
 0001:00022780       ??0?$common_data@D@__crt_stdio_output@@IEAA@XZ 0000000140023780 f i libucrtd:output.obj
 0001:00022850       ??0?$common_data@_W@__crt_stdio_output@@IEAA@XZ 0000000140023850 f i libucrtd:output.obj
 0001:00022920       ??0?$output_adapter_data@DV?$string_output_adapter@D@__crt_stdio_output@@@__crt_stdio_output@@IEAA@AEBV?$string_output_adapter@D@1@_KQEBDQEAU__crt_locale_pointers@@QEAD@Z 0000000140023920 f i libucrtd:output.obj
 0001:000229a0       ??0?$output_adapter_data@_WV?$string_output_adapter@_W@__crt_stdio_output@@@__crt_stdio_output@@IEAA@AEBV?$string_output_adapter@_W@1@_KQEB_WQEAU__crt_locale_pointers@@QEAD@Z 00000001400239a0 f i libucrtd:output.obj
 0001:00022a20       ??0?$output_processor@DV?$string_output_adapter@D@__crt_stdio_output@@V?$format_validation_base@DV?$string_output_adapter@D@__crt_stdio_output@@@2@@__crt_stdio_output@@QEAA@AEBV?$string_output_adapter@D@1@_KQEBDQEAU__crt_locale_pointers@@QEAD@Z 0000000140023a20 f i libucrtd:output.obj
 0001:00022a70       ??0?$output_processor@_WV?$string_output_adapter@_W@__crt_stdio_output@@V?$format_validation_base@_WV?$string_output_adapter@_W@__crt_stdio_output@@@2@@__crt_stdio_output@@QEAA@AEBV?$string_output_adapter@_W@1@_KQEB_WQEAU__crt_locale_pointers@@QEAD@Z 0000000140023a70 f i libucrtd:output.obj
 0001:00022ac0       ??0__crt_errno_guard@@QEAA@QEAH@Z 0000000140023ac0 f i libucrtd:output.obj
 0001:00022b00       ??0formatting_buffer@__crt_stdio_output@@QEAA@XZ 0000000140023b00 f i libucrtd:output.obj
 0001:00022b40       ??1?$common_data@D@__crt_stdio_output@@QEAA@XZ 0000000140023b40 f i libucrtd:output.obj
 0001:00022b40       ??1?$common_data@_W@__crt_stdio_output@@QEAA@XZ 0000000140023b40 f i libucrtd:output.obj
 0001:00022b60       ??1?$format_validation_base@DV?$string_output_adapter@D@__crt_stdio_output@@@__crt_stdio_output@@QEAA@XZ 0000000140023b60 f i libucrtd:output.obj
 0001:00022b60       ??1?$format_validation_base@_WV?$string_output_adapter@_W@__crt_stdio_output@@@__crt_stdio_output@@QEAA@XZ 0000000140023b60 f i libucrtd:output.obj
 0001:00022b80       ??1?$output_adapter_data@DV?$string_output_adapter@D@__crt_stdio_output@@@__crt_stdio_output@@QEAA@XZ 0000000140023b80 f i libucrtd:output.obj
 0001:00022b80       ??1?$output_adapter_data@_WV?$string_output_adapter@_W@__crt_stdio_output@@@__crt_stdio_output@@QEAA@XZ 0000000140023b80 f i libucrtd:output.obj
 0001:00022ba0       ??1?$output_processor@DV?$string_output_adapter@D@__crt_stdio_output@@V?$format_validation_base@DV?$string_output_adapter@D@__crt_stdio_output@@@2@@__crt_stdio_output@@QEAA@XZ 0000000140023ba0 f i libucrtd:output.obj
 0001:00022ba0       ??1?$output_processor@_WV?$string_output_adapter@_W@__crt_stdio_output@@V?$format_validation_base@_WV?$string_output_adapter@_W@__crt_stdio_output@@@2@@__crt_stdio_output@@QEAA@XZ 0000000140023ba0 f i libucrtd:output.obj
 0001:00022bc0       ??1?$standard_base@_WV?$string_output_adapter@_W@__crt_stdio_output@@@__crt_stdio_output@@QEAA@XZ 0000000140023bc0 f i libucrtd:output.obj
 0001:00022bc0       ??1?$standard_base@DV?$string_output_adapter@D@__crt_stdio_output@@@__crt_stdio_output@@QEAA@XZ 0000000140023bc0 f i libucrtd:output.obj
 0001:00022be0       ??1__crt_errno_guard@@QEAA@XZ 0000000140023be0 f i libucrtd:output.obj
 0001:00022c10       ??1formatting_buffer@__crt_stdio_output@@QEAA@XZ 0000000140023c10 f i libucrtd:output.obj
 0001:00022c40       ??4?$__crt_unique_heap_ptr@DU__crt_internal_free_policy@@@@QEAAAEAV0@$$QEAV0@@Z 0000000140023c40 f i libucrtd:output.obj
 0001:00022c80       ??A?$spectre_mitigated_lookup_table@Ustate_transition_pair@__crt_stdio_output@@$0IA@@__crt_stdio_output@@QEBAAEBUstate_transition_pair@1@_K@Z 0000000140023c80 f i libucrtd:output.obj
 0001:00022ca0       ?adjust_hexit@?$output_processor@_WV?$string_output_adapter@_W@__crt_stdio_output@@V?$format_validation_base@_WV?$string_output_adapter@_W@__crt_stdio_output@@@2@@__crt_stdio_output@@CADH_N@Z 0000000140023ca0 f i libucrtd:output.obj
 0001:00022ca0       ?adjust_hexit@?$output_processor@DV?$string_output_adapter@D@__crt_stdio_output@@V?$format_validation_base@DV?$string_output_adapter@D@__crt_stdio_output@@@2@@__crt_stdio_output@@CADH_N@Z 0000000140023ca0 f i libucrtd:output.obj
 0001:00022cf0       ?advance_to_next_pass@?$standard_base@_WV?$string_output_adapter@_W@__crt_stdio_output@@@__crt_stdio_output@@IEAA_NXZ 0000000140023cf0 f i libucrtd:output.obj
 0001:00022cf0       ?advance_to_next_pass@?$standard_base@DV?$string_output_adapter@D@__crt_stdio_output@@@__crt_stdio_output@@IEAA_NXZ 0000000140023cf0 f i libucrtd:output.obj
 0001:00022d40       ?crop_zeroes@__crt_stdio_output@@YAXPEADQEAU__crt_locale_pointers@@@Z 0000000140023d40 f i libucrtd:output.obj
 0001:00022e80       ?find_next_state@?$output_processor@DV?$string_output_adapter@D@__crt_stdio_output@@V?$format_validation_base@DV?$string_output_adapter@D@__crt_stdio_output@@@2@@__crt_stdio_output@@AEBA?AW4state@2@DW432@@Z 0000000140023e80 f i libucrtd:output.obj
 0001:00022f10       ?find_next_state@?$output_processor@_WV?$string_output_adapter@_W@__crt_stdio_output@@V?$format_validation_base@_WV?$string_output_adapter@_W@__crt_stdio_output@@@2@@__crt_stdio_output@@AEBA?AW4state@2@_WW432@@Z 0000000140023f10 f i libucrtd:output.obj
 0001:00022fa0       ?force_decimal_point@__crt_stdio_output@@YAXPEADQEAU__crt_locale_pointers@@@Z 0000000140023fa0 f i libucrtd:output.obj
 0001:000230a0       ?get@__crt_deferred_errno_cache@@QEAAAEAHXZ 00000001400240a0 f i libucrtd:output.obj
 0001:000230d0       ?has_flag@?$output_processor@_WV?$string_output_adapter@_W@__crt_stdio_output@@V?$format_validation_base@_WV?$string_output_adapter@_W@__crt_stdio_output@@@2@@__crt_stdio_output@@AEBA_NI@Z 00000001400240d0 f i libucrtd:output.obj
 0001:000230d0       ?has_flag@?$output_processor@DV?$string_output_adapter@D@__crt_stdio_output@@V?$format_validation_base@DV?$string_output_adapter@D@__crt_stdio_output@@@2@@__crt_stdio_output@@AEBA_NI@Z 00000001400240d0 f i libucrtd:output.obj
 0001:00023110       ?narrow_null_string@?$output_processor@DV?$string_output_adapter@D@__crt_stdio_output@@V?$format_validation_base@DV?$string_output_adapter@D@__crt_stdio_output@@@2@@__crt_stdio_output@@CAPEADXZ 0000000140024110 f i libucrtd:output.obj
 0001:00023110       ?narrow_null_string@?$output_processor@_WV?$string_output_adapter@_W@__crt_stdio_output@@V?$format_validation_base@_WV?$string_output_adapter@_W@__crt_stdio_output@@@2@@__crt_stdio_output@@CAPEADXZ 0000000140024110 f i libucrtd:output.obj
 0001:00023120       ?parse_int_from_format_string@?$output_processor@DV?$string_output_adapter@D@__crt_stdio_output@@V?$format_validation_base@DV?$string_output_adapter@D@__crt_stdio_output@@@2@@__crt_stdio_output@@AEAA_NQEAH@Z 0000000140024120 f i libucrtd:output.obj
 0001:00023210       ?parse_int_from_format_string@?$output_processor@_WV?$string_output_adapter@_W@__crt_stdio_output@@V?$format_validation_base@_WV?$string_output_adapter@_W@__crt_stdio_output@@@2@@__crt_stdio_output@@AEAA_NQEAH@Z 0000000140024210 f i libucrtd:output.obj
 0001:00023300       ?process@?$output_processor@DV?$string_output_adapter@D@__crt_stdio_output@@V?$format_validation_base@DV?$string_output_adapter@D@__crt_stdio_output@@@2@@__crt_stdio_output@@QEAAHXZ 0000000140024300 f i libucrtd:output.obj
 0001:00023660       ?process@?$output_processor@_WV?$string_output_adapter@_W@__crt_stdio_output@@V?$format_validation_base@_WV?$string_output_adapter@_W@__crt_stdio_output@@@2@@__crt_stdio_output@@QEAAHXZ 0000000140024660 f i libucrtd:output.obj
 0001:000239c0       ?set_flag@?$output_processor@DV?$string_output_adapter@D@__crt_stdio_output@@V?$format_validation_base@DV?$string_output_adapter@D@__crt_stdio_output@@@2@@__crt_stdio_output@@AEAAXI@Z 00000001400249c0 f i libucrtd:output.obj
 0001:000239c0       ?set_flag@?$output_processor@_WV?$string_output_adapter@_W@__crt_stdio_output@@V?$format_validation_base@_WV?$string_output_adapter@_W@__crt_stdio_output@@@2@@__crt_stdio_output@@AEAAXI@Z 00000001400249c0 f i libucrtd:output.obj
 0001:000239e0       ?should_format@?$standard_base@_WV?$string_output_adapter@_W@__crt_stdio_output@@@__crt_stdio_output@@IEAA_NXZ 00000001400249e0 f i libucrtd:output.obj
 0001:000239e0       ?validate_and_update_state_at_beginning_of_format_character@?$standard_base@_WV?$string_output_adapter@_W@__crt_stdio_output@@@__crt_stdio_output@@IEAA_NXZ 00000001400249e0 f i libucrtd:output.obj
 0001:000239e0       ?validate_state_for_type_case_a@?$standard_base@DV?$string_output_adapter@D@__crt_stdio_output@@@__crt_stdio_output@@IEBA_NXZ 00000001400249e0 f i libucrtd:output.obj
 0001:000239e0       ?should_format@?$standard_base@DV?$string_output_adapter@D@__crt_stdio_output@@@__crt_stdio_output@@IEAA_NXZ 00000001400249e0 f i libucrtd:output.obj
 0001:000239e0       ?validate_and_update_state_at_beginning_of_format_character@?$standard_base@DV?$string_output_adapter@D@__crt_stdio_output@@@__crt_stdio_output@@IEAA_NXZ 00000001400249e0 f i libucrtd:output.obj
 0001:000239e0       ?validate_state_for_type_case_a@?$standard_base@_WV?$string_output_adapter@_W@__crt_stdio_output@@@__crt_stdio_output@@IEBA_NXZ 00000001400249e0 f i libucrtd:output.obj
 0001:000239f0       ?should_skip_normal_state_processing@?$standard_base@_WV?$string_output_adapter@_W@__crt_stdio_output@@@__crt_stdio_output@@IEAA_NXZ 00000001400249f0 f i libucrtd:output.obj
 0001:000239f0       ?should_skip_type_state_output@?$standard_base@_WV?$string_output_adapter@_W@__crt_stdio_output@@@__crt_stdio_output@@IEBA_NXZ 00000001400249f0 f i libucrtd:output.obj
 0001:000239f0       ?should_skip_type_state_output@?$standard_base@DV?$string_output_adapter@D@__crt_stdio_output@@@__crt_stdio_output@@IEBA_NXZ 00000001400249f0 f i libucrtd:output.obj
 0001:000239f0       ?should_skip_normal_state_processing@?$standard_base@DV?$string_output_adapter@D@__crt_stdio_output@@@__crt_stdio_output@@IEAA_NXZ 00000001400249f0 f i libucrtd:output.obj
 0001:00023a00       ?state_case_dot@?$output_processor@DV?$string_output_adapter@D@__crt_stdio_output@@V?$format_validation_base@DV?$string_output_adapter@D@__crt_stdio_output@@@2@@__crt_stdio_output@@AEAA_NXZ 0000000140024a00 f i libucrtd:output.obj
 0001:00023a00       ?state_case_dot@?$output_processor@_WV?$string_output_adapter@_W@__crt_stdio_output@@V?$format_validation_base@_WV?$string_output_adapter@_W@__crt_stdio_output@@@2@@__crt_stdio_output@@AEAA_NXZ 0000000140024a00 f i libucrtd:output.obj
 0001:00023a20       ?state_case_flag@?$output_processor@DV?$string_output_adapter@D@__crt_stdio_output@@V?$format_validation_base@DV?$string_output_adapter@D@__crt_stdio_output@@@2@@__crt_stdio_output@@AEAA_NXZ 0000000140024a20 f i libucrtd:output.obj
 0001:00023ac0       ?state_case_flag@?$output_processor@_WV?$string_output_adapter@_W@__crt_stdio_output@@V?$format_validation_base@_WV?$string_output_adapter@_W@__crt_stdio_output@@@2@@__crt_stdio_output@@AEAA_NXZ 0000000140024ac0 f i libucrtd:output.obj
 0001:00023b60       ?state_case_normal@?$output_processor@DV?$string_output_adapter@D@__crt_stdio_output@@V?$format_validation_base@DV?$string_output_adapter@D@__crt_stdio_output@@@2@@__crt_stdio_output@@AEAA_NXZ 0000000140024b60 f i libucrtd:output.obj
 0001:00023c40       ?state_case_normal@?$output_processor@_WV?$string_output_adapter@_W@__crt_stdio_output@@V?$format_validation_base@_WV?$string_output_adapter@_W@__crt_stdio_output@@@2@@__crt_stdio_output@@AEAA_NXZ 0000000140024c40 f i libucrtd:output.obj
 0001:00023d20       ?state_case_normal_common@?$output_processor@DV?$string_output_adapter@D@__crt_stdio_output@@V?$format_validation_base@DV?$string_output_adapter@D@__crt_stdio_output@@@2@@__crt_stdio_output@@AEAA_NXZ 0000000140024d20 f i libucrtd:output.obj
 0001:00023d70       ?state_case_normal_common@?$output_processor@_WV?$string_output_adapter@_W@__crt_stdio_output@@V?$format_validation_base@_WV?$string_output_adapter@_W@__crt_stdio_output@@@2@@__crt_stdio_output@@AEAA_NXZ 0000000140024d70 f i libucrtd:output.obj
 0001:00023dc0       ?state_case_normal_tchar@?$output_processor@DV?$string_output_adapter@D@__crt_stdio_output@@V?$format_validation_base@DV?$string_output_adapter@D@__crt_stdio_output@@@2@@__crt_stdio_output@@AEAA_ND@Z 0000000140024dc0 f i libucrtd:output.obj
 0001:00023f00       ?state_case_normal_tchar@?$output_processor@_WV?$string_output_adapter@_W@__crt_stdio_output@@V?$format_validation_base@_WV?$string_output_adapter@_W@__crt_stdio_output@@@2@@__crt_stdio_output@@AEAA_N_W@Z 0000000140024f00 f i libucrtd:output.obj
 0001:00023f20       ?state_case_percent@?$output_processor@_WV?$string_output_adapter@_W@__crt_stdio_output@@V?$format_validation_base@_WV?$string_output_adapter@_W@__crt_stdio_output@@@2@@__crt_stdio_output@@AEAA_NXZ 0000000140024f20 f i libucrtd:output.obj
 0001:00023f20       ?state_case_percent@?$output_processor@DV?$string_output_adapter@D@__crt_stdio_output@@V?$format_validation_base@DV?$string_output_adapter@D@__crt_stdio_output@@@2@@__crt_stdio_output@@AEAA_NXZ 0000000140024f20 f i libucrtd:output.obj
 0001:00023f70       ?state_case_precision@?$output_processor@DV?$string_output_adapter@D@__crt_stdio_output@@V?$format_validation_base@DV?$string_output_adapter@D@__crt_stdio_output@@@2@@__crt_stdio_output@@AEAA_NXZ 0000000140024f70 f i libucrtd:output.obj
 0001:00023ff0       ?state_case_precision@?$output_processor@_WV?$string_output_adapter@_W@__crt_stdio_output@@V?$format_validation_base@_WV?$string_output_adapter@_W@__crt_stdio_output@@@2@@__crt_stdio_output@@AEAA_NXZ 0000000140024ff0 f i libucrtd:output.obj
 0001:00024070       ?state_case_size@?$output_processor@DV?$string_output_adapter@D@__crt_stdio_output@@V?$format_validation_base@DV?$string_output_adapter@D@__crt_stdio_output@@@2@@__crt_stdio_output@@AEAA_NXZ 0000000140025070 f i libucrtd:output.obj
 0001:000244f0       ?state_case_size@?$output_processor@_WV?$string_output_adapter@_W@__crt_stdio_output@@V?$format_validation_base@_WV?$string_output_adapter@_W@__crt_stdio_output@@@2@@__crt_stdio_output@@AEAA_NXZ 00000001400254f0 f i libucrtd:output.obj
 0001:00024970       ?state_case_type@?$output_processor@DV?$string_output_adapter@D@__crt_stdio_output@@V?$format_validation_base@DV?$string_output_adapter@D@__crt_stdio_output@@@2@@__crt_stdio_output@@AEAA_NXZ 0000000140025970 f i libucrtd:output.obj
 0001:00024e10       ?state_case_type@?$output_processor@_WV?$string_output_adapter@_W@__crt_stdio_output@@V?$format_validation_base@_WV?$string_output_adapter@_W@__crt_stdio_output@@@2@@__crt_stdio_output@@AEAA_NXZ 0000000140025e10 f i libucrtd:output.obj
 0001:00025370       ?state_case_width@?$output_processor@DV?$string_output_adapter@D@__crt_stdio_output@@V?$format_validation_base@DV?$string_output_adapter@D@__crt_stdio_output@@@2@@__crt_stdio_output@@AEAA_NXZ 0000000140026370 f i libucrtd:output.obj
 0001:00025400       ?state_case_width@?$output_processor@_WV?$string_output_adapter@_W@__crt_stdio_output@@V?$format_validation_base@_WV?$string_output_adapter@_W@__crt_stdio_output@@@2@@__crt_stdio_output@@AEAA_NXZ 0000000140026400 f i libucrtd:output.obj
 0001:00025490       ?state_count@?$format_validation_base@_WV?$string_output_adapter@_W@__crt_stdio_output@@@__crt_stdio_output@@KAIXZ 0000000140026490 f i libucrtd:output.obj
 0001:00025490       ?state_count@?$format_validation_base@DV?$string_output_adapter@D@__crt_stdio_output@@@__crt_stdio_output@@KAIXZ 0000000140026490 f i libucrtd:output.obj
 0001:000254a0       ?state_transition_table@?$format_validation_base@DV?$string_output_adapter@D@__crt_stdio_output@@@__crt_stdio_output@@KAAEBV?$spectre_mitigated_lookup_table@Ustate_transition_pair@__crt_stdio_output@@$0IA@@2@XZ 00000001400264a0 f i libucrtd:output.obj
 0001:000254a0       ?state_transition_table@?$format_validation_base@_WV?$string_output_adapter@_W@__crt_stdio_output@@@__crt_stdio_output@@KAAEBV?$spectre_mitigated_lookup_table@Ustate_transition_pair@__crt_stdio_output@@$0IA@@2@XZ 00000001400264a0 f i libucrtd:output.obj
 0001:000254b0       ?tchar_string@?$common_data@D@__crt_stdio_output@@IEAAAEAPEADD@Z 00000001400264b0 f i libucrtd:output.obj
 0001:000254d0       ?tchar_string@?$common_data@D@__crt_stdio_output@@IEAAAEAPEADXZ 00000001400264d0 f i libucrtd:output.obj
 0001:000254f0       ?tchar_string@?$common_data@_W@__crt_stdio_output@@IEAAAEAPEA_WXZ 00000001400264f0 f i libucrtd:output.obj
 0001:00025510       ?tchar_string@?$common_data@_W@__crt_stdio_output@@IEAAAEAPEA_W_W@Z 0000000140026510 f i libucrtd:output.obj
 0001:00025530       ?to_integer_size@__crt_stdio_output@@YA_KW4length_modifier@1@@Z 0000000140026530 f i libucrtd:output.obj
 0001:000255e0       ?type_case_X@?$output_processor@DV?$string_output_adapter@D@__crt_stdio_output@@V?$format_validation_base@DV?$string_output_adapter@D@__crt_stdio_output@@@2@@__crt_stdio_output@@AEAA_NXZ 00000001400265e0 f i libucrtd:output.obj
 0001:00025600       ?type_case_X@?$output_processor@_WV?$string_output_adapter@_W@__crt_stdio_output@@V?$format_validation_base@_WV?$string_output_adapter@_W@__crt_stdio_output@@@2@@__crt_stdio_output@@AEAA_NXZ 0000000140026600 f i libucrtd:output.obj
 0001:00025620       ?type_case_Z@?$output_processor@DV?$string_output_adapter@D@__crt_stdio_output@@V?$format_validation_base@DV?$string_output_adapter@D@__crt_stdio_output@@@2@@__crt_stdio_output@@AEAA_NXZ 0000000140026620 f i libucrtd:output.obj
 0001:00025740       ?type_case_Z@?$output_processor@_WV?$string_output_adapter@_W@__crt_stdio_output@@V?$format_validation_base@_WV?$string_output_adapter@_W@__crt_stdio_output@@@2@@__crt_stdio_output@@AEAA_NXZ 0000000140026740 f i libucrtd:output.obj
 0001:00025860       ?type_case_a@?$output_processor@DV?$string_output_adapter@D@__crt_stdio_output@@V?$format_validation_base@DV?$string_output_adapter@D@__crt_stdio_output@@@2@@__crt_stdio_output@@AEAA_NXZ 0000000140026860 f i libucrtd:output.obj
 0001:00025c30       ?type_case_a@?$output_processor@_WV?$string_output_adapter@_W@__crt_stdio_output@@V?$format_validation_base@_WV?$string_output_adapter@_W@__crt_stdio_output@@@2@@__crt_stdio_output@@AEAA_NXZ 0000000140026c30 f i libucrtd:output.obj
 0001:00026000       ?type_case_c@?$output_processor@DV?$string_output_adapter@D@__crt_stdio_output@@V?$format_validation_base@DV?$string_output_adapter@D@__crt_stdio_output@@@2@@__crt_stdio_output@@AEAA_NXZ 0000000140027000 f i libucrtd:output.obj
 0001:00026020       ?type_case_c@?$output_processor@_WV?$string_output_adapter@_W@__crt_stdio_output@@V?$format_validation_base@_WV?$string_output_adapter@_W@__crt_stdio_output@@@2@@__crt_stdio_output@@AEAA_NXZ 0000000140027020 f i libucrtd:output.obj
 0001:00026040       ?type_case_c_tchar@?$output_processor@DV?$string_output_adapter@D@__crt_stdio_output@@V?$format_validation_base@DV?$string_output_adapter@D@__crt_stdio_output@@@2@@__crt_stdio_output@@AEAA_ND@Z 0000000140027040 f i libucrtd:output.obj
 0001:000261a0       ?type_case_c_tchar@?$output_processor@_WV?$string_output_adapter@_W@__crt_stdio_output@@V?$format_validation_base@_WV?$string_output_adapter@_W@__crt_stdio_output@@@2@@__crt_stdio_output@@AEAA_N_W@Z 00000001400271a0 f i libucrtd:output.obj
 0001:000262d0       ?type_case_d@?$output_processor@DV?$string_output_adapter@D@__crt_stdio_output@@V?$format_validation_base@DV?$string_output_adapter@D@__crt_stdio_output@@@2@@__crt_stdio_output@@AEAA_NXZ 00000001400272d0 f i libucrtd:output.obj
 0001:00026300       ?type_case_d@?$output_processor@_WV?$string_output_adapter@_W@__crt_stdio_output@@V?$format_validation_base@_WV?$string_output_adapter@_W@__crt_stdio_output@@@2@@__crt_stdio_output@@AEAA_NXZ 0000000140027300 f i libucrtd:output.obj
 0001:00026330       ?type_case_integer@?$output_processor@DV?$string_output_adapter@D@__crt_stdio_output@@V?$format_validation_base@DV?$string_output_adapter@D@__crt_stdio_output@@@2@@__crt_stdio_output@@AEAA_NI_N@Z 0000000140027330 f i libucrtd:output.obj
 0001:00026780       ?type_case_integer@?$output_processor@_WV?$string_output_adapter@_W@__crt_stdio_output@@V?$format_validation_base@_WV?$string_output_adapter@_W@__crt_stdio_output@@@2@@__crt_stdio_output@@AEAA_NI_N@Z 0000000140027780 f i libucrtd:output.obj
 0001:00026bd0       ?type_case_n@?$output_processor@DV?$string_output_adapter@D@__crt_stdio_output@@V?$format_validation_base@DV?$string_output_adapter@D@__crt_stdio_output@@@2@@__crt_stdio_output@@AEAA_NXZ 0000000140027bd0 f i libucrtd:output.obj
 0001:00026e10       ?type_case_n@?$output_processor@_WV?$string_output_adapter@_W@__crt_stdio_output@@V?$format_validation_base@_WV?$string_output_adapter@_W@__crt_stdio_output@@@2@@__crt_stdio_output@@AEAA_NXZ 0000000140027e10 f i libucrtd:output.obj
 0001:00027050       ?type_case_o@?$output_processor@DV?$string_output_adapter@D@__crt_stdio_output@@V?$format_validation_base@DV?$string_output_adapter@D@__crt_stdio_output@@@2@@__crt_stdio_output@@AEAA_NXZ 0000000140028050 f i libucrtd:output.obj
 0001:000270a0       ?type_case_o@?$output_processor@_WV?$string_output_adapter@_W@__crt_stdio_output@@V?$format_validation_base@_WV?$string_output_adapter@_W@__crt_stdio_output@@@2@@__crt_stdio_output@@AEAA_NXZ 00000001400280a0 f i libucrtd:output.obj
 0001:000270f0       ?type_case_p@?$output_processor@DV?$string_output_adapter@D@__crt_stdio_output@@V?$format_validation_base@DV?$string_output_adapter@D@__crt_stdio_output@@@2@@__crt_stdio_output@@AEAA_NXZ 00000001400280f0 f i libucrtd:output.obj
 0001:00027130       ?type_case_p@?$output_processor@_WV?$string_output_adapter@_W@__crt_stdio_output@@V?$format_validation_base@_WV?$string_output_adapter@_W@__crt_stdio_output@@@2@@__crt_stdio_output@@AEAA_NXZ 0000000140028130 f i libucrtd:output.obj
 0001:00027170       ?type_case_s@?$output_processor@DV?$string_output_adapter@D@__crt_stdio_output@@V?$format_validation_base@DV?$string_output_adapter@D@__crt_stdio_output@@@2@@__crt_stdio_output@@AEAA_NXZ 0000000140028170 f i libucrtd:output.obj
 0001:00027290       ?type_case_s@?$output_processor@_WV?$string_output_adapter@_W@__crt_stdio_output@@V?$format_validation_base@_WV?$string_output_adapter@_W@__crt_stdio_output@@@2@@__crt_stdio_output@@AEAA_NXZ 0000000140028290 f i libucrtd:output.obj
 0001:000273b0       ?type_case_s_compute_narrow_string_length@?$output_processor@DV?$string_output_adapter@D@__crt_stdio_output@@V?$format_validation_base@DV?$string_output_adapter@D@__crt_stdio_output@@@2@@__crt_stdio_output@@AEBAHHD@Z 00000001400283b0 f i libucrtd:output.obj
 0001:000273e0       ?type_case_s_compute_narrow_string_length@?$output_processor@_WV?$string_output_adapter@_W@__crt_stdio_output@@V?$format_validation_base@_WV?$string_output_adapter@_W@__crt_stdio_output@@@2@@__crt_stdio_output@@AEBAHH_W@Z 00000001400283e0 f i libucrtd:output.obj
 0001:00027470       ?type_case_u@?$output_processor@DV?$string_output_adapter@D@__crt_stdio_output@@V?$format_validation_base@DV?$string_output_adapter@D@__crt_stdio_output@@@2@@__crt_stdio_output@@AEAA_NXZ 0000000140028470 f i libucrtd:output.obj
 0001:00027490       ?type_case_u@?$output_processor@_WV?$string_output_adapter@_W@__crt_stdio_output@@V?$format_validation_base@_WV?$string_output_adapter@_W@__crt_stdio_output@@@2@@__crt_stdio_output@@AEAA_NXZ 0000000140028490 f i libucrtd:output.obj
 0001:000274b0       ?type_case_x@?$output_processor@DV?$string_output_adapter@D@__crt_stdio_output@@V?$format_validation_base@DV?$string_output_adapter@D@__crt_stdio_output@@@2@@__crt_stdio_output@@AEAA_NXZ 00000001400284b0 f i libucrtd:output.obj
 0001:000274d0       ?type_case_x@?$output_processor@_WV?$string_output_adapter@_W@__crt_stdio_output@@V?$format_validation_base@_WV?$string_output_adapter@_W@__crt_stdio_output@@@2@@__crt_stdio_output@@AEAA_NXZ 00000001400284d0 f i libucrtd:output.obj
 0001:000274f0       ?unset_flag@?$output_processor@_WV?$string_output_adapter@_W@__crt_stdio_output@@V?$format_validation_base@_WV?$string_output_adapter@_W@__crt_stdio_output@@@2@@__crt_stdio_output@@AEAAXI@Z 00000001400284f0 f i libucrtd:output.obj
 0001:000274f0       ?unset_flag@?$output_processor@DV?$string_output_adapter@D@__crt_stdio_output@@V?$format_validation_base@DV?$string_output_adapter@D@__crt_stdio_output@@@2@@__crt_stdio_output@@AEAAXI@Z 00000001400284f0 f i libucrtd:output.obj
 0001:00027520       ?update_field_width@?$standard_base@DV?$string_output_adapter@D@__crt_stdio_output@@@__crt_stdio_output@@IEAA_NXZ 0000000140028520 f i libucrtd:output.obj
 0001:00027520       ?update_field_width@?$standard_base@_WV?$string_output_adapter@_W@__crt_stdio_output@@@__crt_stdio_output@@IEAA_NXZ 0000000140028520 f i libucrtd:output.obj
 0001:00027550       ?update_precision@?$standard_base@_WV?$string_output_adapter@_W@__crt_stdio_output@@@__crt_stdio_output@@IEAA_NXZ 0000000140028550 f i libucrtd:output.obj
 0001:00027550       ?update_precision@?$standard_base@DV?$string_output_adapter@D@__crt_stdio_output@@@__crt_stdio_output@@IEAA_NXZ 0000000140028550 f i libucrtd:output.obj
 0001:00027580       ?validate@?$string_output_adapter@D@__crt_stdio_output@@QEBA_NXZ 0000000140028580 f i libucrtd:output.obj
 0001:00027640       ?validate@?$string_output_adapter@_W@__crt_stdio_output@@QEBA_NXZ 0000000140028640 f i libucrtd:output.obj
 0001:00027700       ?validate_and_update_state_at_end_of_format_string@?$format_validation_base@DV?$string_output_adapter@D@__crt_stdio_output@@@__crt_stdio_output@@IEBA_NXZ 0000000140028700 f i libucrtd:output.obj
 0001:000277c0       ?validate_and_update_state_at_end_of_format_string@?$format_validation_base@_WV?$string_output_adapter@_W@__crt_stdio_output@@@__crt_stdio_output@@IEBA_NXZ 00000001400287c0 f i libucrtd:output.obj
 0001:00027880       ?wide_null_string@?$output_processor@_WV?$string_output_adapter@_W@__crt_stdio_output@@V?$format_validation_base@_WV?$string_output_adapter@_W@__crt_stdio_output@@@2@@__crt_stdio_output@@CAPEA_WXZ 0000000140028880 f i libucrtd:output.obj
 0001:00027880       ?wide_null_string@?$output_processor@DV?$string_output_adapter@D@__crt_stdio_output@@V?$format_validation_base@DV?$string_output_adapter@D@__crt_stdio_output@@@2@@__crt_stdio_output@@CAPEA_WXZ 0000000140028880 f i libucrtd:output.obj
 0001:00027890       ?write_character@?$string_output_adapter@D@__crt_stdio_output@@QEBA_NDQEAH@Z 0000000140028890 f i libucrtd:output.obj
 0001:00027950       ?write_character@?$string_output_adapter@_W@__crt_stdio_output@@QEBA_N_WQEAH@Z 0000000140028950 f i libucrtd:output.obj
 0001:00027a10       ?write_stored_string_tchar@?$output_processor@DV?$string_output_adapter@D@__crt_stdio_output@@V?$format_validation_base@DV?$string_output_adapter@D@__crt_stdio_output@@@2@@__crt_stdio_output@@AEAA_ND@Z 0000000140028a10 f i libucrtd:output.obj
 0001:00027bd0       ?write_stored_string_tchar@?$output_processor@_WV?$string_output_adapter@_W@__crt_stdio_output@@V?$format_validation_base@_WV?$string_output_adapter@_W@__crt_stdio_output@@@2@@__crt_stdio_output@@AEAA_N_W@Z 0000000140028bd0 f i libucrtd:output.obj
 0001:00027d20       ?write_string@?$string_output_adapter@D@__crt_stdio_output@@QEBAXQEBDHQEAHAEAV__crt_deferred_errno_cache@@@Z 0000000140028d20 f i libucrtd:output.obj
 0001:00027e90       ?write_string@?$string_output_adapter@_W@__crt_stdio_output@@QEBAXQEB_WHQEAHAEAV__crt_deferred_errno_cache@@@Z 0000000140028e90 f i libucrtd:output.obj
 0001:00028000       __acrt_isleadbyte_l_noupdate 0000000140029000 f i libucrtd:output.obj
 0001:00028030       __acrt_locale_get_ctype_array_value 0000000140029030 f i libucrtd:output.obj
 0001:00028070       __stdio_common_vsnprintf_s 0000000140029070 f   libucrtd:output.obj
 0001:000280d0       __stdio_common_vsnwprintf_s 00000001400290d0 f   libucrtd:output.obj
 0001:00028130       __stdio_common_vsprintf_s  0000000140029130 f   libucrtd:output.obj
 0001:00028180       _ctype_fast_check_internal 0000000140029180 f i libucrtd:output.obj
 0001:000281b0       _isdigit_fast_internal     00000001400291b0 f i libucrtd:output.obj
 0001:000281e0       _tolower_fast_internal     00000001400291e0 f i libucrtd:output.obj
 0001:00028210       ??$is_overflow_condition@K@__crt_strtox@@YA_NIK@Z 0000000140029210 f i libucrtd:atox.obj
 0001:00028280       ??$parse_integer@KV?$c_string_character_source@D@__crt_strtox@@@__crt_strtox@@YAKQEAU__crt_locale_pointers@@V?$c_string_character_source@D@0@H_N@Z 0000000140029280 f i libucrtd:atox.obj
 0001:00028710       ??$parse_integer@KV?$c_string_character_source@_W@__crt_strtox@@@__crt_strtox@@YAKQEAU__crt_locale_pointers@@V?$c_string_character_source@_W@0@H_N@Z 0000000140029710 f i libucrtd:atox.obj
 0001:00028bc0       ??0?$c_string_character_source@D@__crt_strtox@@QEAA@QEBDQEAPEBD@Z 0000000140029bc0 f i libucrtd:atox.obj
 0001:00028bc0       ??0?$c_string_character_source@_W@__crt_strtox@@QEAA@QEB_WQEAPEB_W@Z 0000000140029bc0 f i libucrtd:atox.obj
 0001:00028c10       ??1?$c_string_character_source@_W@__crt_strtox@@QEAA@XZ 0000000140029c10 f i libucrtd:atox.obj
 0001:00028c10       ??1?$c_string_character_source@D@__crt_strtox@@QEAA@XZ 0000000140029c10 f i libucrtd:atox.obj
 0001:00028c40       ?get@?$c_string_character_source@D@__crt_strtox@@QEAADXZ 0000000140029c40 f i libucrtd:atox.obj
 0001:00028c80       ?get@?$c_string_character_source@_W@__crt_strtox@@QEAA_WXZ 0000000140029c80 f i libucrtd:atox.obj
 0001:00028cc0       ?is_space@__crt_strtox@@YA_NDQEAU__crt_locale_pointers@@@Z 0000000140029cc0 f i libucrtd:atox.obj
 0001:00028d10       ?is_space@__crt_strtox@@YA_N_WPEAU__crt_locale_pointers@@@Z 0000000140029d10 f i libucrtd:atox.obj
 0001:00028d50       ?maximum_signed_value@__crt_strtox@@YAJK@Z 0000000140029d50 f i libucrtd:atox.obj
 0001:00028d60       ?minimum_signed_value@__crt_strtox@@YAJK@Z 0000000140029d60 f i libucrtd:atox.obj
 0001:00028d70       ?parse_digit@__crt_strtox@@YAID@Z 0000000140029d70 f i libucrtd:atox.obj
 0001:00028de0       ?parse_digit@__crt_strtox@@YAI_W@Z 0000000140029de0 f i libucrtd:atox.obj
 0001:00028e30       ?restore_state@?$c_string_character_source@_W@__crt_strtox@@QEAA_NQEB_W@Z 0000000140029e30 f i libucrtd:atox.obj
 0001:00028e30       ?restore_state@?$c_string_character_source@D@__crt_strtox@@QEAA_NQEBD@Z 0000000140029e30 f i libucrtd:atox.obj
 0001:00028e50       ?unget@?$c_string_character_source@D@__crt_strtox@@QEAAXD@Z 0000000140029e50 f i libucrtd:atox.obj
 0001:00028f30       ?unget@?$c_string_character_source@_W@__crt_strtox@@QEAAX_W@Z 0000000140029f30 f i libucrtd:atox.obj
 0001:00029010       ?validate@?$c_string_character_source@D@__crt_strtox@@QEBA_NXZ 000000014002a010 f i libucrtd:atox.obj
 0001:000290d0       ?validate@?$c_string_character_source@_W@__crt_strtox@@QEBA_NXZ 000000014002a0d0 f i libucrtd:atox.obj
 0001:00029190       ?wide_character_to_digit@__crt_strtox@@YAH_W@Z 000000014002a190 f i libucrtd:atox.obj
 0001:00029500       __ascii_iswalpha           000000014002a500 f i libucrtd:atox.obj
 0001:00029540       __ascii_toupper            000000014002a540 f i libucrtd:atox.obj
 0001:00029560       __ascii_towupper           000000014002a560 f i libucrtd:atox.obj
 0001:00029590       strncmp                    000000014002a590 f   libucrtd:strncmp.obj
 0001:00029850       ??0__crt_scoped_get_last_error_reset@@QEAA@XZ 000000014002a850 f i libucrtd:per_thread_data.obj
 0001:00029870       ??1__crt_scoped_get_last_error_reset@@QEAA@XZ 000000014002a870 f i libucrtd:per_thread_data.obj
 0001:00029f10       __acrt_getptd              000000014002af10 f   libucrtd:per_thread_data.obj
 0001:00029f40       __acrt_getptd_head         000000014002af40 f   libucrtd:per_thread_data.obj
 0001:00029f70       __acrt_getptd_noexit       000000014002af70 f   libucrtd:per_thread_data.obj
 0001:00029f80       __acrt_initialize_ptd      000000014002af80 f   libucrtd:per_thread_data.obj
 0001:00029fc0       __acrt_uninitialize_ptd    000000014002afc0 f   libucrtd:per_thread_data.obj
 0001:00029ff0       _VCrtDbgReportA            000000014002aff0 f   libucrtd:dbgrptt.obj
 0001:0002a9d0       _VCrtDbgReportW            000000014002b9d0 f   libucrtd:dbgrptt.obj
 0001:0002b550       _snprintf_s                000000014002c550 f i libucrtd:dbgrptt.obj
 0001:0002b5c0       _vsnprintf_s               000000014002c5c0 f i libucrtd:dbgrptt.obj
 0001:0002b610       _vsnprintf_s_l             000000014002c610 f i libucrtd:dbgrptt.obj
 0001:0002b690       __acrt_errno_from_os_error 000000014002c690 f   libucrtd:errno.obj
 0001:0002b720       __acrt_errno_map_os_error  000000014002c720 f   libucrtd:errno.obj
 0001:0002b750       __doserrno                 000000014002c750 f   libucrtd:errno.obj
 0001:0002b780       _errno                     000000014002c780 f   libucrtd:errno.obj
 0001:0002bc90       wcscpy_s                   000000014002cc90 f   libucrtd:wcscpy_s.obj
 0001:0002d010       ??1?$__crt_simd_cleanup_guard@$00@@QEAA@XZ 000000014002e010 f i libucrtd:strnlen.obj
 0001:0002d020       ?compare_equals@?$__crt_simd_traits@$00E@@SA?AT__m256i@@T2@0@Z 000000014002e020 f i libucrtd:strnlen.obj
 0001:0002d060       ?compare_equals@?$__crt_simd_traits@$00G@@SA?AT__m256i@@T2@0@Z 000000014002e060 f i libucrtd:strnlen.obj
 0001:0002d0a0       ?compare_equals@?$__crt_simd_traits@$0A@E@@SA?AT__m128i@@T2@0@Z 000000014002e0a0 f i libucrtd:strnlen.obj
 0001:0002d0d0       ?compare_equals@?$__crt_simd_traits@$0A@G@@SA?AT__m128i@@T2@0@Z 000000014002e0d0 f i libucrtd:strnlen.obj
 0001:0002d100       ?compute_byte_mask@?$__crt_simd_pack_traits@$00@@SAHT__m256i@@@Z 000000014002e100 f i libucrtd:strnlen.obj
 0001:0002d120       ?compute_byte_mask@?$__crt_simd_pack_traits@$0A@@@SAHT__m128i@@@Z 000000014002e120 f i libucrtd:strnlen.obj
 0001:0002d140       ?get_zero_pack@?$__crt_simd_pack_traits@$00@@SA?AT__m256i@@XZ 000000014002e140 f i libucrtd:strnlen.obj
 0001:0002d170       ?get_zero_pack@?$__crt_simd_pack_traits@$0A@@@SA?AT__m128i@@XZ 000000014002e170 f i libucrtd:strnlen.obj
 0001:0002d190       strnlen                    000000014002e190 f   libucrtd:strnlen.obj
 0001:0002d1c0       wcslen                     000000014002e1c0 f   libucrtd:strnlen.obj
 0001:0002d1e0       wcsnlen                    000000014002e1e0 f   libucrtd:strnlen.obj
 0001:0002d3b0       ??$__acrt_wcs_to_mbs_cp@U__crt_win32_buffer_no_resizing@@@@YAHQEB_WAEAV?$__crt_win32_buffer@DU__crt_win32_buffer_no_resizing@@@@I@Z 000000014002e3b0 f i libucrtd:getmodulefilenamea.obj
 0001:0002d400       ??0?$__crt_win32_buffer@DU__crt_win32_buffer_no_resizing@@@@QEAA@QEAD_K@Z 000000014002e400 f i libucrtd:getmodulefilenamea.obj
 0001:0002d470       ??1?$__crt_win32_buffer@DU__crt_win32_buffer_no_resizing@@@@QEAA@XZ 000000014002e470 f i libucrtd:getmodulefilenamea.obj
 0001:0002d500       ?__acrt_get_utf8_acp_compatibility_codepage@@YAIXZ 000000014002e500 f i libucrtd:getmodulefilenamea.obj
 0001:0002d5a0       ?_deallocate@?$__crt_win32_buffer@DU__crt_win32_buffer_no_resizing@@@@AEAAXXZ 000000014002e5a0 f i libucrtd:getmodulefilenamea.obj
 0001:0002d5e0       ?allocate@?$__crt_win32_buffer@DU__crt_win32_buffer_no_resizing@@@@QEAAH_K@Z 000000014002e5e0 f i libucrtd:getmodulefilenamea.obj
 0001:0002d660       ?allocate@__crt_win32_buffer_no_resizing@@SAHQEAPEAX_KAEBV__crt_win32_buffer_empty_debug_info@@@Z 000000014002e660 f i libucrtd:getmodulefilenamea.obj
 0001:0002d690       ?capacity@?$__crt_win32_buffer@DU__crt_win32_buffer_internal_dynamic_resizing@@@@QEBA_KXZ 000000014002e690 f i libucrtd:argv_wildcards.obj
 0001:0002d690       ?capacity@?$__crt_win32_buffer@DU__crt_win32_buffer_no_resizing@@@@QEBA_KXZ 000000014002e690 f i libucrtd:getmodulefilenamea.obj
 0001:0002d690       ?capacity@?$__crt_win32_buffer@_WU__crt_win32_buffer_internal_dynamic_resizing@@@@QEBA_KXZ 000000014002e690 f i libucrtd:argv_wildcards.obj
 0001:0002d6a0       ?data@?$__crt_win32_buffer@_WU__crt_win32_buffer_internal_dynamic_resizing@@@@QEAAPEA_WXZ 000000014002e6a0 f i libucrtd:argv_wildcards.obj
 0001:0002d6a0       ?data@?$__crt_win32_buffer@DU__crt_win32_buffer_internal_dynamic_resizing@@@@QEAAPEADXZ 000000014002e6a0 f i libucrtd:argv_wildcards.obj
 0001:0002d6a0       ?data@?$__crt_win32_buffer@DU__crt_win32_buffer_no_resizing@@@@QEAAPEADXZ 000000014002e6a0 f i libucrtd:getmodulefilenamea.obj
 0001:0002d6b0       ?set_to_nullptr@?$__crt_win32_buffer@DU__crt_win32_buffer_no_resizing@@@@QEAAXXZ 000000014002e6b0 f i libucrtd:getmodulefilenamea.obj
 0001:0002d6f0       ?size@?$__crt_win32_buffer@_WU__crt_win32_buffer_internal_dynamic_resizing@@@@QEAAX_K@Z 000000014002e6f0 f i libucrtd:argv_wildcards.obj
 0001:0002d6f0       ?size@?$__crt_win32_buffer@DU__crt_win32_buffer_internal_dynamic_resizing@@@@QEAAX_K@Z 000000014002e6f0 f i libucrtd:argv_wildcards.obj
 0001:0002d6f0       ?size@?$__crt_win32_buffer@DU__crt_win32_buffer_no_resizing@@@@QEAAX_K@Z 000000014002e6f0 f i libucrtd:getmodulefilenamea.obj
 0001:0002d710       ?size@?$__crt_win32_buffer@DU__crt_win32_buffer_no_resizing@@@@QEBA_KXZ 000000014002e710 f i libucrtd:getmodulefilenamea.obj
 0001:0002d720       __acrt_GetModuleFileNameA  000000014002e720 f   libucrtd:getmodulefilenamea.obj
 0001:0002d940       ??$message_box@$$TAEBQEB_WAEBQEB_WK@?$__crt_char_traits@_W@@SAH$$QEA$$TAEBQEB_W1$$QEAK@Z 000000014002e940 f i libucrtd:crtmbox.obj
 0001:0002d940       ??$message_box@PEAUHWND__@@AEBQEB_WAEBQEB_WAEBI@?$__crt_char_traits@_W@@SAH$$QEAPEAUHWND__@@AEBQEB_W1AEBI@Z 000000014002e940 f i libucrtd:crtmbox.obj
 0001:0002d990       ??$output_debug_string@AEBQEB_W@?$__crt_char_traits@_W@@SAXAEBQEB_W@Z 000000014002e990 f i libucrtd:crtmbox.obj
 0001:0002d9b0       __acrt_show_wide_message_box 000000014002e9b0 f   libucrtd:crtmbox.obj
 0001:0002dba0       __acrt_get_sigabrt_handler 000000014002eba0 f   libucrtd:signal.obj
 0001:0002dbd0       __acrt_initialize_signal_handlers 000000014002ebd0 f   libucrtd:signal.obj
 0001:0002dc30       __fpecode                  000000014002ec30 f   libucrtd:signal.obj
 0001:0002dc50       raise                      000000014002ec50 f   libucrtd:signal.obj
 0001:0002e380       _close                     000000014002f380 f   libucrtd:close.obj
 0001:0002e570       _close_nolock              000000014002f570 f   libucrtd:close.obj
 0001:0002e5e0       _fileno                    000000014002f5e0 f   libucrtd:fileno.obj
 0001:0002e6c0       __acrt_initialize_stdio    000000014002f6c0 f   libucrtd:_file.obj
 0001:0002e8b0       __acrt_iob_func            000000014002f8b0 f   libucrtd:_file.obj
 0001:0002e8d0       __acrt_uninitialize_stdio  000000014002f8d0 f   libucrtd:_file.obj
 0001:0002e960       _lock_file                 000000014002f960 f   libucrtd:_file.obj
 0001:0002e9a0       _unlock_file               000000014002f9a0 f   libucrtd:_file.obj
 0001:0002e9e0       ?__acrt_stdio_allocate_stream@@YA?AV__crt_stdio_stream@@XZ 000000014002f9e0 f   libucrtd:stream.obj
 0001:0002eaa0       ?__acrt_stdio_free_stream@@YAXV__crt_stdio_stream@@@Z 000000014002faa0 f   libucrtd:stream.obj
 0001:0002eb40       ?deallocate@__crt_stdio_stream@@QEAAXXZ 000000014002fb40 f i libucrtd:stream.obj
 0001:0002ed10       ?lock@__crt_stdio_stream@@QEBAXXZ 000000014002fd10 f i libucrtd:stream.obj
 0001:0002ed30       ?try_allocate@__crt_stdio_stream@@QEAA_NXZ 000000014002fd30 f i libucrtd:stream.obj
 0001:0002eda0       __acrt_stdio_free_buffer_nolock 000000014002fda0 f   libucrtd:_freebuf.obj
 0001:0002f2b0       __acrt_stdio_flush_nolock  00000001400302b0 f   libucrtd:fflush.obj
 0001:0002f3c0       _fflush_nolock             00000001400303c0 f   libucrtd:fflush.obj
 0001:0002f450       _flushall                  0000000140030450 f   libucrtd:fflush.obj
 0001:0002f460       ??$__acrt_stdio_parse_mode@D@@YA?AU__acrt_stdio_stream_mode@@QEBD@Z 0000000140030460 f i libucrtd:openfile.obj
 0001:000301b0       ??$tcsncmp@AEAPEBDAEAY02$$CBD_K@?$__crt_char_traits@D@@SAHAEAPEBDAEAY02$$CBD$$QEA_K@Z 00000001400311b0 f i libucrtd:openfile.obj
 0001:000301f0       ??$tcsnicmp@AEAPEBDAEAY06$$CBD_K@?$__crt_char_traits@D@@SAHAEAPEBDAEAY06$$CBD$$QEA_K@Z 00000001400311f0 f i libucrtd:openfile.obj
 0001:000301f0       ??$tcsnicmp@AEAPEBDAEAY04$$CBD_K@?$__crt_char_traits@D@@SAHAEAPEBDAEAY04$$CBD$$QEA_K@Z 00000001400311f0 f i libucrtd:openfile.obj
 0001:000301f0       ??$tcsnicmp@AEAPEBDAEAY07$$CBD_K@?$__crt_char_traits@D@@SAHAEAPEBDAEAY07$$CBD$$QEA_K@Z 00000001400311f0 f i libucrtd:openfile.obj
 0001:00030230       ??$tsopen_s@PEAHAEBQEBDAEBHAEBHH@?$__crt_char_traits@D@@SAH$$QEAPEAHAEBQEBDAEBH2$$QEAH@Z 0000000140031230 f i libucrtd:openfile.obj
 0001:00030280       ?__acrt_stdio_parse_mode_D@@YA_NAEAU__acrt_stdio_stream_mode@@@Z 0000000140031280 f i libucrtd:openfile.obj
 0001:000302b0       ?__acrt_stdio_parse_mode_N@@YA_NAEAU__acrt_stdio_stream_mode@@@Z 00000001400312b0 f i libucrtd:openfile.obj
 0001:000302d0       ?__acrt_stdio_parse_mode_R@@YA_NAEAU__acrt_stdio_stream_mode@@AEA_N@Z 00000001400312d0 f i libucrtd:openfile.obj
 0001:00030310       ?__acrt_stdio_parse_mode_S@@YA_NAEAU__acrt_stdio_stream_mode@@AEA_N@Z 0000000140031310 f i libucrtd:openfile.obj
 0001:00030350       ?__acrt_stdio_parse_mode_T@@YA_NAEAU__acrt_stdio_stream_mode@@@Z 0000000140031350 f i libucrtd:openfile.obj
 0001:00030380       ?__acrt_stdio_parse_mode_b@@YA_NAEAU__acrt_stdio_stream_mode@@@Z 0000000140031380 f i libucrtd:openfile.obj
 0001:000303b0       ?__acrt_stdio_parse_mode_c@@YA_NAEAU__acrt_stdio_stream_mode@@AEA_N@Z 00000001400313b0 f i libucrtd:openfile.obj
 0001:000303f0       ?__acrt_stdio_parse_mode_n@@YA_NAEAU__acrt_stdio_stream_mode@@AEA_N@Z 00000001400313f0 f i libucrtd:openfile.obj
 0001:00030430       ?__acrt_stdio_parse_mode_plus@@YA_NAEAU__acrt_stdio_stream_mode@@AEA_N@Z 0000000140031430 f i libucrtd:openfile.obj
 0001:000304b0       ?__acrt_stdio_parse_mode_t@@YA_NAEAU__acrt_stdio_stream_mode@@@Z 00000001400314b0 f i libucrtd:openfile.obj
 0001:000304e0       ?__acrt_stdio_parse_mode_x@@YA_NAEAU__acrt_stdio_stream_mode@@@Z 00000001400314e0 f i libucrtd:openfile.obj
 0001:00030510       _openfile                  0000000140031510 f   libucrtd:openfile.obj
 0001:00031360       _read                      0000000140032360 f   libucrtd:read.obj
 0001:000316b0       _read_nolock               00000001400326b0 f   libucrtd:read.obj
 0001:00032900       __acrt_stdio_refill_and_read_narrow_nolock 0000000140033900 f   libucrtd:_filbuf.obj
 0001:00032d40       _lseeki64                  0000000140033d40 f   libucrtd:lseek.obj
 0001:00032d70       _lseeki64_nolock           0000000140033d70 f   libucrtd:lseek.obj
 0001:00033140       __acrt_initialize_lowio    0000000140034140 f   libucrtd:ioinit.obj
 0001:00033190       __acrt_uninitialize_lowio  0000000140034190 f   libucrtd:ioinit.obj
 0001:00034c20       _write                     0000000140035c20 f   libucrtd:write.obj
 0001:00034ec0       _write_nolock              0000000140035ec0 f   libucrtd:write.obj
 0001:00035a20       __acrt_stdio_flush_and_write_narrow_nolock 0000000140036a20 f   libucrtd:_flsbuf.obj
 0001:00035a50       ?has_temporary_buffer@__crt_stdio_stream@@QEBA_NXZ 0000000140036a50 f i libucrtd:_sftbuf.obj
 0001:00035a70       __acrt_should_use_temporary_buffer 0000000140036a70 f   libucrtd:_sftbuf.obj
 0001:00035ac0       __acrt_stdio_begin_temporary_buffering_nolock 0000000140036ac0 f   libucrtd:_sftbuf.obj
 0001:00035d00       __acrt_stdio_end_temporary_buffering_nolock 0000000140036d00 f   libucrtd:_sftbuf.obj
 0001:00036600       GetCurrentThreadEffectiveToken 0000000140037600 f i libucrtd:winapi_thunks.obj
 0001:00036610       __acrt_AppPolicyGetProcessTerminationMethodInternal 0000000140037610 f   libucrtd:winapi_thunks.obj
 0001:00036660       __acrt_AppPolicyGetShowDeveloperDiagnosticInternal 0000000140037660 f   libucrtd:winapi_thunks.obj
 0001:000366b0       __acrt_AppPolicyGetWindowingModelInternal 00000001400376b0 f   libucrtd:winapi_thunks.obj
 0001:00036700       __acrt_AreFileApisANSI     0000000140037700 f   libucrtd:winapi_thunks.obj
 0001:00036740       __acrt_CompareStringEx     0000000140037740 f   libucrtd:winapi_thunks.obj
 0001:00036820       __acrt_FlsAlloc            0000000140037820 f   libucrtd:winapi_thunks.obj
 0001:00036870       __acrt_FlsFree             0000000140037870 f   libucrtd:winapi_thunks.obj
 0001:000368c0       __acrt_FlsGetValue         00000001400378c0 f   libucrtd:winapi_thunks.obj
 0001:00036910       __acrt_FlsSetValue         0000000140037910 f   libucrtd:winapi_thunks.obj
 0001:00036970       __acrt_InitializeCriticalSectionEx 0000000140037970 f   libucrtd:winapi_thunks.obj
 0001:000369d0       __acrt_LCMapStringEx       00000001400379d0 f   libucrtd:winapi_thunks.obj
 0001:00036ab0       __acrt_LocaleNameToLCID    0000000140037ab0 f   libucrtd:winapi_thunks.obj
 0001:00036b00       __acrt_MessageBoxW         0000000140037b00 f   libucrtd:winapi_thunks.obj
 0001:00036b60       __acrt_can_show_message_box 0000000140037b60 f   libucrtd:winapi_thunks.obj
 0001:00036ba0       __acrt_eagerly_load_locale_apis 0000000140037ba0 f   libucrtd:winapi_thunks.obj
 0001:00036be0       __acrt_get_parent_window   0000000140037be0 f   libucrtd:winapi_thunks.obj
 0001:00036c60       __acrt_initialize_winapi_thunks 0000000140037c60 f   libucrtd:winapi_thunks.obj
 0001:00036ce0       __acrt_is_interactive      0000000140037ce0 f   libucrtd:winapi_thunks.obj
 0001:00036dc0       __acrt_uninitialize_winapi_thunks 0000000140037dc0 f   libucrtd:winapi_thunks.obj
 0001:00037140       __acrt_get_developer_information_policy 0000000140038140 f   libucrtd:win_policies.obj
 0001:00037160       __acrt_get_process_end_policy 0000000140038160 f   libucrtd:win_policies.obj
 0001:00037170       __acrt_get_windowing_model_policy 0000000140038170 f   libucrtd:win_policies.obj
 0001:00037500       ??$__acrt_mbs_to_wcs_cp@U__crt_win32_buffer_internal_dynamic_resizing@@@@YAHQEBDAEAV?$__crt_win32_buffer@_WU__crt_win32_buffer_internal_dynamic_resizing@@@@I@Z 0000000140038500 f i libucrtd:argv_wildcards.obj
 0001:00037550       ??$__acrt_wcs_to_mbs_cp@U__crt_win32_buffer_internal_dynamic_resizing@@@@YAHQEB_WAEAV?$__crt_win32_buffer@DU__crt_win32_buffer_internal_dynamic_resizing@@@@I@Z 0000000140038550 f i libucrtd:argv_wildcards.obj
 0001:00037fa0       ??$tcsncpy_s@PEAD_KAEBQEBDAEB_K@?$__crt_char_traits@D@@SAH$$QEAPEAD$$QEA_KAEBQEBDAEB_K@Z 0000000140038fa0 f i libucrtd:argv_wildcards.obj
 0001:00037fa0       ??$tcsncpy_s@AEAPEAD_KAEAPEADAEB_K@?$__crt_char_traits@D@@SAHAEAPEAD$$QEA_K0AEB_K@Z 0000000140038fa0 f i libucrtd:argv_wildcards.obj
 0001:00037fa0       ??$tcsncpy_s@PEADAEB_KAEBQEBDAEB_K@?$__crt_char_traits@D@@SAH$$QEAPEADAEB_KAEBQEBD1@Z 0000000140038fa0 f i libucrtd:argv_wildcards.obj
 0001:00037ff0       ??$tcspbrk@AEAPEADAEAY02$$CBD@?$__crt_char_traits@D@@SAPEADAEAPEADAEAY02$$CBD@Z 0000000140038ff0 f i libucrtd:argv_wildcards.obj
 0001:00038020       ??0?$__crt_win32_buffer@_WU__crt_win32_buffer_internal_dynamic_resizing@@@@QEAA@XZ 0000000140039020 f i libucrtd:argv_wildcards.obj
 0001:00038020       ??0?$__crt_win32_buffer@DU__crt_win32_buffer_internal_dynamic_resizing@@@@QEAA@XZ 0000000140039020 f i libucrtd:argv_wildcards.obj
 0001:000380c0       ??1?$__crt_unique_handle_t@U__crt_findfile_traits@@@@QEAA@XZ 00000001400390c0 f i libucrtd:argv_wildcards.obj
 0001:000380e0       ??1?$__crt_win32_buffer@DU__crt_win32_buffer_internal_dynamic_resizing@@@@QEAA@XZ 00000001400390e0 f i libucrtd:argv_wildcards.obj
 0001:000380e0       ??1?$__crt_win32_buffer@_WU__crt_win32_buffer_internal_dynamic_resizing@@@@QEAA@XZ 00000001400390e0 f i libucrtd:argv_wildcards.obj
 0001:00038270       ?_deallocate@?$__crt_win32_buffer@_WU__crt_win32_buffer_internal_dynamic_resizing@@@@AEAAXXZ 0000000140039270 f i libucrtd:argv_wildcards.obj
 0001:00038270       ?_deallocate@?$__crt_win32_buffer@DU__crt_win32_buffer_internal_dynamic_resizing@@@@AEAAXXZ 0000000140039270 f i libucrtd:argv_wildcards.obj
 0001:000382b0       ?allocate@?$__crt_win32_buffer@DU__crt_win32_buffer_internal_dynamic_resizing@@@@QEAAH_K@Z 00000001400392b0 f i libucrtd:argv_wildcards.obj
 0001:00038330       ?allocate@?$__crt_win32_buffer@_WU__crt_win32_buffer_internal_dynamic_resizing@@@@QEAAH_K@Z 0000000140039330 f i libucrtd:argv_wildcards.obj
 0001:000383c0       ?allocate@__crt_win32_buffer_internal_dynamic_resizing@@SAHQEAPEAX_KAEBV__crt_win32_buffer_empty_debug_info@@@Z 00000001400393c0 f i libucrtd:argv_wildcards.obj
 0001:00038490       ?close@?$__crt_unique_handle_t@U__crt_findfile_traits@@@@QEAAXXZ 0000000140039490 f i libucrtd:argv_wildcards.obj
 0001:000384d0       ?close@__crt_findfile_traits@@SA_NPEAX@Z 00000001400394d0 f i libucrtd:argv_wildcards.obj
 0001:00038510       ?deallocate@__crt_win32_buffer_internal_dynamic_resizing@@SAXQEAXAEBV__crt_win32_buffer_empty_debug_info@@@Z 0000000140039510 f i libucrtd:argv_wildcards.obj
 0001:000387f0       ?set_to_nullptr@?$__crt_win32_buffer@DU__crt_win32_buffer_internal_dynamic_resizing@@@@QEAAXXZ 00000001400397f0 f i libucrtd:argv_wildcards.obj
 0001:000387f0       ?set_to_nullptr@?$__crt_win32_buffer@_WU__crt_win32_buffer_internal_dynamic_resizing@@@@QEAAXXZ 00000001400397f0 f i libucrtd:argv_wildcards.obj
 0001:00038850       ?strpbrk@@YAPEADQEADQEBD@Z 0000000140039850 f i libucrtd:argv_wildcards.obj
 0001:00038880       __acrt_expand_narrow_argv_wildcards 0000000140039880 f   libucrtd:argv_wildcards.obj
 0001:00038940       ??$initialize_from_array@$$BY10BAA@E@?$dual_state_global@PEAE@__crt_state_management@@QEAAXAEAY10BAA@E@Z 0000000140039940 f i libucrtd:mbctype.obj
 0001:000389b0       ??$initialize_from_array@$$BY10BAB@E@?$dual_state_global@PEAE@__crt_state_management@@QEAAXAEAY10BAB@E@Z 00000001400399b0 f i libucrtd:mbctype.obj
 0001:00039520       __acrt_initialize_multibyte 000000014003a520 f   libucrtd:mbctype.obj
 0001:000395f0       __acrt_should_sync_with_global_locale 000000014003a5f0 f i libucrtd:mbctype.obj
 0001:00039630       __acrt_update_thread_multibyte_data 000000014003a630 f   libucrtd:mbctype.obj
 0001:00039660       _setmbcp_nolock            000000014003a660 f   libucrtd:mbctype.obj
 0001:00039bc0       _ismbblead                 000000014003abc0 f   libucrtd:ismbbyte.obj
 0001:00039c80       __acrt_MultiByteToWideChar 000000014003ac80 f   libucrtd:multibytetowidechar.obj
 0001:00039d80       __acrt_WideCharToMultiByte 000000014003ad80 f   libucrtd:widechartomultibyte.obj
 0001:00039eb0       __dcrt_get_narrow_environment_from_os 000000014003aeb0 f   libucrtd:get_environment_from_os.obj
 0001:0003a580       __dcrt_set_variable_in_narrow_environment_nolock 000000014003b580 f   libucrtd:setenv.obj
 0001:0003a590       __acrt_initialize_heap     000000014003b590 f   libucrtd:heap_handle.obj
 0001:0003a5c0       __acrt_uninitialize_heap   000000014003b5c0 f   libucrtd:heap_handle.obj
 0001:0003a5e0       __acrt_execute_initializers 000000014003b5e0 f   libucrtd:shared_initialization.obj
 0001:0003a6d0       __acrt_execute_uninitializers 000000014003b6d0 f   libucrtd:shared_initialization.obj
 0001:0003a750       _set_error_mode            000000014003b750 f   libucrtd:set_error_mode.obj
 0001:0003aed0       wcscat_s                   000000014003bed0 f   libucrtd:wcscat_s.obj
 0001:0003b5a0       wcsncpy_s                  000000014003c5a0 f   libucrtd:wcsncpy_s.obj
 0001:0003b5e0       __acrt_lowio_create_handle_array 000000014003c5e0 f   libucrtd:osfinfo.obj
 0001:0003b7a0       __acrt_lowio_destroy_handle_array 000000014003c7a0 f   libucrtd:osfinfo.obj
 0001:0003b820       __acrt_lowio_ensure_fh_exists 000000014003c820 f   libucrtd:osfinfo.obj
 0001:0003b980       __acrt_lowio_lock_fh       000000014003c980 f   libucrtd:osfinfo.obj
 0001:0003b9c0       __acrt_lowio_set_os_handle 000000014003c9c0 f   libucrtd:osfinfo.obj
 0001:0003bad0       __acrt_lowio_unlock_fh     000000014003cad0 f   libucrtd:osfinfo.obj
 0001:0003bb10       _alloc_osfhnd              000000014003cb10 f   libucrtd:osfinfo.obj
 0001:0003bd20       _free_osfhnd               000000014003cd20 f   libucrtd:osfinfo.obj
 0001:0003be50       _get_osfhandle             000000014003ce50 f   libucrtd:osfinfo.obj
 0001:0003c050       __acrt_initialize_fmode    000000014003d050 f   libucrtd:txtmode.obj
 0001:0003c0b0       __acrt_locale_free_monetary 000000014003d0b0 f   libucrtd:initmon.obj
 0001:0003c2c0       __acrt_locale_free_numeric 000000014003d2c0 f   libucrtd:initnum.obj
 0001:0003c460       __acrt_locale_free_time    000000014003d460 f   libucrtd:inittime.obj
 0001:0003c5d0       __pctype_func              000000014003d5d0 f   libucrtd:ctype.obj
 0001:0003c610       _chvalidator_l             000000014003d610 f   libucrtd:isctype.obj
 0001:0003c6c0       _isctype_l                 000000014003d6c0 f   libucrtd:isctype.obj
 0001:0003c8f0       _isleadbyte_fast_internal  000000014003d8f0 f i libucrtd:isctype.obj
 0001:0003c920       ??1?$__crt_scoped_stack_ptr@_W@@QEAA@XZ 000000014003d920 f i libucrtd:getstringtypea.obj
 0001:0003c940       _MallocaComputeSize        000000014003d940 f i libucrtd:getstringtypea.obj
 0001:0003c980       _MarkAllocaS               000000014003d980 f i libucrtd:getstringtypea.obj
 0001:0003c9b0       __acrt_GetStringTypeA      000000014003d9b0 f   libucrtd:getstringtypea.obj
 0001:0003cc10       _freea_crt                 000000014003dc10 f i libucrtd:getstringtypea.obj
 0001:0003ccb0       __acrt_add_locale_ref      000000014003dcb0 f   libucrtd:locale_refcounting.obj
 0001:0003ce10       __acrt_free_locale         000000014003de10 f   libucrtd:locale_refcounting.obj
 0001:0003d190       __acrt_locale_add_lc_time_reference 000000014003e190 f   libucrtd:locale_refcounting.obj
 0001:0003d1d0       __acrt_locale_free_lc_time_if_unreferenced 000000014003e1d0 f   libucrtd:locale_refcounting.obj
 0001:0003d230       __acrt_locale_release_lc_time_reference 000000014003e230 f   libucrtd:locale_refcounting.obj
 0001:0003d270       __acrt_release_locale_ref  000000014003e270 f   libucrtd:locale_refcounting.obj
 0001:0003d3e0       __acrt_update_thread_locale_data 000000014003e3e0 f   libucrtd:locale_refcounting.obj
 0001:0003d480       _updatetlocinfoEx_nolock   000000014003e480 f   libucrtd:locale_refcounting.obj
 0001:0003d530       _free_base                 000000014003e530 f   libucrtd:free_base.obj
 0001:0003d590       _realloc_base              000000014003e590 f   libucrtd:realloc_base.obj
 0001:0003d6b0       _expand_base               000000014003e6b0 f   libucrtd:expand.obj
 0001:0003d840       __acrt_update_locale_info  000000014003e840 f   libucrtd:locale_update.obj
 0001:0003d890       __acrt_update_multibyte_info 000000014003e890 f   libucrtd:locale_update.obj
 0001:0003d8e0       _CrtDefaultAllocHook       000000014003e8e0 f   libucrtd:debug_heap_hook.obj
 0001:0003d900       _CrtGetDebugFillThreshold  000000014003e900 f   libucrtd:debug_fill_threshold.obj
 0001:0003d910       ??$make_c_string_character_source@_WPEAPEA_W@__crt_strtox@@YA?AV?$c_string_character_source@_W@0@QEB_WQEAPEA_W@Z 000000014003e910 f i libucrtd:strtox.obj
 0001:0003d910       ??$make_c_string_character_source@DPEAPEAD@__crt_strtox@@YA?AV?$c_string_character_source@D@0@QEBDQEAPEAD@Z 000000014003e910 f i libucrtd:strtox.obj
 0001:0003d950       ??$parse_integer_from_string@JDPEAPEAD@__crt_strtox@@YAJQEBDQEAPEADHQEAU__crt_locale_pointers@@@Z 000000014003e950 f i libucrtd:strtox.obj
 0001:0003d9a0       ??$parse_integer_from_string@J_WPEAPEA_W@__crt_strtox@@YAJQEB_WQEAPEA_WHQEAU__crt_locale_pointers@@@Z 000000014003e9a0 f i libucrtd:strtox.obj
 0001:0003d9f0       strtol                     000000014003e9f0 f   libucrtd:strtox.obj
 0001:0003da20       wcstol                     000000014003ea20 f   libucrtd:strtox.obj
 0001:0003da50       _mbtowc_l                  000000014003ea50 f   libucrtd:mbtowc.obj
 0001:0003deb0       mbtowc                     000000014003eeb0 f   libucrtd:mbtowc.obj
 0001:0003dee0       _wctomb_s_l                000000014003eee0 f   libucrtd:wctomb.obj
 0001:0003e460       ?__acrt_fp_classify@@YA?AW4__acrt_fp_class@@AEBN@Z 000000014003f460 f i libucrtd:cvt.obj
 0001:0003e560       ?__acrt_fp_is_negative@@YA_NAEBN@Z 000000014003f560 f i libucrtd:cvt.obj
 0001:0003ff30       ?strrchr@@YAPEADQEADH@Z    0000000140040f30 f i libucrtd:cvt.obj
 0001:0003ff50       __acrt_fp_format           0000000140040f50 f   libucrtd:cvt.obj
 0001:00040560       _get_printf_count_output   0000000140041560 f   libucrtd:printf_count_output.obj
 0001:00040590       iswctype                   0000000140041590 f   libucrtd:iswctype.obj
 0001:00041210       _itoa_s                    0000000140042210 f   libucrtd:xtoa.obj
 0001:00041270       _itow_s                    0000000140042270 f   libucrtd:xtoa.obj
 0001:000418b0       _mbstowcs_s_l              00000001400428b0 f   libucrtd:mbstowcs.obj
 0001:00041e80       mbstowcs_s                 0000000140042e80 f   libucrtd:mbstowcs.obj
 0001:00042810       _wcstombs_s_l              0000000140043810 f   libucrtd:wcstombs.obj
 0001:00042d50       wcstombs_s                 0000000140043d50 f   libucrtd:wcstombs.obj
 0001:00043410       strcat_s                   0000000140044410 f   libucrtd:strcat_s.obj
 0001:00043440       __acrt_OutputDebugStringA  0000000140044440 f   libucrtd:outputdebugstringa.obj
 0001:00043500       _fcloseall                 0000000140044500 f   libucrtd:closeall.obj
 0001:00043780       _commit                    0000000140044780 f   libucrtd:commit.obj
 0001:00043950       __ascii_wcsnicmp           0000000140044950 f   libucrtd:wcsnicmp.obj
 0001:00043a20       __ascii_strnicmp           0000000140044a20 f   libucrtd:strnicmp.obj
 0001:00043af0       _strnicmp                  0000000140044af0 f   libucrtd:strnicmp.obj
 0001:00043d40       _strnicmp_l                0000000140044d40 f   libucrtd:strnicmp.obj
 0001:000443c0       ??$tsopen_nolock@PEAHAEBQEAHAEBQEBDAEBHAEBHAEBHAEBH@?$__crt_char_traits@D@@SAH$$QEAPEAHAEBQEAHAEBQEBDAEBH333@Z 00000001400453c0 f i libucrtd:open.obj
 0001:00045110       _sopen_dispatch            0000000140046110 f   libucrtd:open.obj
 0001:00045160       _sopen_nolock              0000000140046160 f   libucrtd:open.obj
 0001:00045230       _sopen_s                   0000000140046230 f   libucrtd:open.obj
 0001:00045280       _wsopen_nolock             0000000140046280 f   libucrtd:open.obj
 0001:000459f0       _isatty                    00000001400469f0 f   libucrtd:isatty.obj
 0001:00045b00       __acrt_stdio_allocate_buffer_nolock 0000000140046b00 f   libucrtd:_getbuf.obj
 0001:00045cf0       ?__mbrtowc_utf8@__crt_mbstring@@YA_KPEA_WPEBD_KPEAU_Mbstatet@@@Z 0000000140046cf0 f   libucrtd:mbrtowc.obj
 0001:00045d60       ?__mbsrtowcs_utf8@__crt_mbstring@@YA_KPEA_WPEAPEBD_KPEAU_Mbstatet@@@Z 0000000140046d60 f   libucrtd:mbrtowc.obj
 0001:00046060       _putwch_nolock             0000000140047060 f   libucrtd:putwch.obj
 0001:00046150       __acrt_DownlevelLocaleNameToLCID 0000000140047150 f   libucrtd:lcidtoname_downlevel.obj
 0001:00046320       qsort                      0000000140047320 f   libucrtd:qsort.obj
 0001:000470b0       strncpy_s                  00000001400480b0 f   libucrtd:strncpy_s.obj
 0001:00047220       strpbrk                    0000000140048220 f   libucrtd:strpbrk.obj
 0001:00047b10       _mbsdec                    0000000140048b10 f   libucrtd:mbsdec.obj
 0001:00047b18       _mbsdec_l                  0000000140048b18 f   libucrtd:mbsdec.obj
 0001:00048200       __acrt_LCMapStringA        0000000140049200 f   libucrtd:lcmapstringa.obj
 0001:000482e0       _strnicoll                 00000001400492e0 f   libucrtd:strnicol.obj
 0001:00048340       _strnicoll_l               0000000140049340 f   libucrtd:strnicol.obj
 0001:00048720       __acrt_SetEnvironmentVariableA 0000000140049720 f   libucrtd:setenvironmentvariablea.obj
 0001:00048830       _malloc_base               0000000140049830 f   libucrtd:malloc_base.obj
 0001:000488d0       _isleadbyte_l              00000001400498d0 f i libucrtd:_wctype.obj
 0001:00048930       ?__c32rtomb_utf8@__crt_mbstring@@YA_KPEAD_UPEAU_Mbstatet@@@Z 0000000140049930 f   libucrtd:c32rtomb.obj
 0001:00048bb0       ?reset_and_return@__crt_mbstring@@YA_K_KPEAU_Mbstatet@@@Z 0000000140049bb0 f i libucrtd:c32rtomb.obj
 0001:00048bf0       ?return_illegal_sequence@__crt_mbstring@@YA_KPEAU_Mbstatet@@@Z 0000000140049bf0 f i libucrtd:c32rtomb.obj
 0001:00048c30       c32rtomb                   0000000140049c30 f   libucrtd:c32rtomb.obj
 0001:00048df0       __acrt_fp_strflt_to_string 0000000140049df0 f   libucrtd:_fptostr.obj
 0001:000498f0       ??4big_integer@__crt_strtox@@QEAAAEAU01@AEBU01@@Z 000000014004a8f0 f i libucrtd:cfout.obj
 0001:000498f0       ??0big_integer@__crt_strtox@@QEAA@AEBU01@@Z 000000014004a8f0 f i libucrtd:cfout.obj
 0001:00049950       ??0big_integer@__crt_strtox@@QEAA@XZ 000000014004a950 f i libucrtd:cfout.obj
 0001:00049a10       ??8__crt_strtox@@YA_NAEBUbig_integer@0@0@Z 000000014004aa10 f i libucrtd:cfout.obj
 0001:00049a80       ??9__crt_strtox@@YA_NAEBUbig_integer@0@0@Z 000000014004aa80 f i libucrtd:cfout.obj
 0001:00049ac0       ?add_carry@__crt_strtox@@YAIAEAIII@Z 000000014004aac0 f i libucrtd:cfout.obj
 0001:00049b10       ?add_multiply_carry@__crt_strtox@@YAIAEAIIII@Z 000000014004ab10 f i libucrtd:cfout.obj
 0001:00049b70       ?bit_scan_reverse@__crt_strtox@@YAII@Z 000000014004ab70 f i libucrtd:cfout.obj
 0001:00049bb0       ?count_sequential_high_zeroes@__crt_strtox@@YAII@Z 000000014004abb0 f i libucrtd:cfout.obj
 0001:00049bf0       ?divide@__crt_strtox@@YA_KAEAUbig_integer@1@AEBU21@@Z 000000014004abf0 f i libucrtd:cfout.obj
 0001:0004a5c0       ?is_zero@__crt_strtox@@YA_NAEBUbig_integer@1@@Z 000000014004b5c0 f i libucrtd:cfout.obj
 0001:0004a5f0       ?make_big_integer@__crt_strtox@@YA?AUbig_integer@1@_K@Z 000000014004b5f0 f i libucrtd:cfout.obj
 0001:0004a6c0       ?make_big_integer_power_of_two@__crt_strtox@@YA?AUbig_integer@1@I@Z 000000014004b6c0 f i libucrtd:cfout.obj
 0001:0004a790       ?multiply@__crt_strtox@@YA_NAEAUbig_integer@1@AEBU21@@Z 000000014004b790 f i libucrtd:cfout.obj
 0001:0004ab10       ?multiply@__crt_strtox@@YA_NAEAUbig_integer@1@I@Z 000000014004bb10 f i libucrtd:cfout.obj
 0001:0004ac30       ?multiply_64_32@__crt_strtox@@YA_K_KI@Z 000000014004bc30 f i libucrtd:cfout.obj
 0001:0004ac50       ?multiply_by_power_of_ten@__crt_strtox@@YA_NAEAUbig_integer@1@I@Z 000000014004bc50 f i libucrtd:cfout.obj
 0001:0004ae00       ?multiply_core@__crt_strtox@@YAIQEAIII@Z 000000014004be00 f i libucrtd:cfout.obj
 0001:0004ae80       ?shift_left@__crt_strtox@@YA_NAEAUbig_integer@1@I@Z 000000014004be80 f i libucrtd:cfout.obj
 0001:0004b160       __acrt_fltout              000000014004c160 f   libucrtd:cfout.obj
 0001:0004b510       fegetround                 000000014004c510 f   libucrtd:fegetround.obj
 0001:0004b530       __acrt_GetStringTypeW      000000014004c530 f   libucrtd:getstringtypew.obj
 0001:0004b570       ?__wcsrtombs_utf8@__crt_mbstring@@YA_KPEADPEAPEB_W_KPEAU_Mbstatet@@@Z 000000014004c570 f   libucrtd:wcrtomb.obj
 0001:0004b7e0       ??0__crt_seek_guard@@QEAA@H_J@Z 000000014004c7e0 f i libucrtd:chsize.obj
 0001:0004b860       ??1__crt_seek_guard@@QEAA@XZ 000000014004c860 f i libucrtd:chsize.obj
 0001:0004b890       _chsize_nolock             000000014004c890 f   libucrtd:chsize.obj
 0001:0004bb10       ?__mbrtoc32_utf8@__crt_mbstring@@YA_KPEA_UPEBD_KPEAU_Mbstatet@@@Z 000000014004cb10 f   libucrtd:mbrtoc32.obj
 0001:0004bec4       __dcrt_lowio_ensure_console_output_initialized 000000014004cec4 f   libucrtd:initcon.obj
 0001:0004bf18       __dcrt_terminate_console_output 000000014004cf18 f   libucrtd:initcon.obj
 0001:0004bf34       __dcrt_write_console       000000014004cf34 f   libucrtd:initcon.obj
 0001:0004c000       __strncnt                  000000014004d000 f   libucrtd:strncnt.obj
 0001:0004c700       __acrt_CompareStringA      000000014004d700 f   libucrtd:comparestringa.obj
 0001:0004c7a0       log10                      000000014004d7a0 f   libucrtd:log10.obj
 0001:0004cd50       ceil                       000000014004dd50 f   libucrtd:ceil.obj
 0001:0004cf20       _controlfp_s               000000014004df20 f   libucrtd:contrlfp.obj
 0001:0004d050       fegetenv                   000000014004e050 f   libucrtd:fegetenv.obj
 0001:0004d080       fesetenv                   000000014004e080 f   libucrtd:fesetenv.obj
 0001:0004d100       feholdexcept               000000014004e100 f   libucrtd:feholdexcept.obj
 0001:0004d170       ??$__acrt_fenv_shift_bits@W4__acrt_fenv_abstract_control@@@@YA?AW4__acrt_fenv_abstract_control@@W40@0I@Z 000000014004e170 f i libucrtd:_fenvutils.obj
 0001:0004d170       ??$__acrt_fenv_shift_bits@W4__acrt_fenv_abstract_status@@@@YA?AW4__acrt_fenv_abstract_status@@W40@0I@Z 000000014004e170 f i libucrtd:_fenvutils.obj
 0001:0004d1a0       ??$__acrt_fenv_translate_bit@W4__acrt_fenv_abstract_control@@W4__acrt_fenv_machine_sse_control@@@@YA?AW4__acrt_fenv_abstract_control@@W4__acrt_fenv_machine_sse_control@@0W40@1@Z 000000014004e1a0 f i libucrtd:_fenvutils.obj
 0001:0004d200       ??$__acrt_fenv_translate_bit@W4__acrt_fenv_abstract_status@@W4__acrt_fenv_machine_sse_status@@@@YA?AW4__acrt_fenv_abstract_status@@W4__acrt_fenv_machine_sse_status@@0W40@1@Z 000000014004e200 f i libucrtd:_fenvutils.obj
 0001:0004d200       ??$__acrt_fenv_translate_bit@W4__acrt_fenv_machine_sse_status@@W4__acrt_fenv_abstract_status@@@@YA?AW4__acrt_fenv_machine_sse_status@@W4__acrt_fenv_abstract_status@@0W40@1@Z 000000014004e200 f i libucrtd:_fenvutils.obj
 0001:0004d250       ??$__acrt_fenv_translate_bit@W4__acrt_fenv_machine_sse_control@@W4__acrt_fenv_abstract_control@@@@YA?AW4__acrt_fenv_machine_sse_control@@W4__acrt_fenv_abstract_control@@0W40@1@Z 000000014004e250 f i libucrtd:_fenvutils.obj
 0001:0004d2b0       ??$__acrt_fenv_unshift_bits@W4__acrt_fenv_abstract_control@@@@YA?AW4__acrt_fenv_abstract_control@@W40@0I@Z 000000014004e2b0 f i libucrtd:_fenvutils.obj
 0001:0004d2b0       ??$__acrt_fenv_unshift_bits@W4__acrt_fenv_abstract_status@@@@YA?AW4__acrt_fenv_abstract_status@@W40@0I@Z 000000014004e2b0 f i libucrtd:_fenvutils.obj
 0001:0004d7a0       ??I@YA?AW4__acrt_fenv_abstract_status@@W40@0@Z 000000014004e7a0 f i libucrtd:_fenvutils.obj
 0001:0004d7a0       ??I@YA?AW4__acrt_fenv_abstract_control@@W40@0@Z 000000014004e7a0 f i libucrtd:_fenvutils.obj
 0001:0004d7a0       ??I@YA?AW4__acrt_fenv_machine_sse_status@@W40@0@Z 000000014004e7a0 f i libucrtd:_fenvutils.obj
 0001:0004d7c0       ??I@YA?AW4__acrt_fenv_machine_sse_control@@W40@0@Z 000000014004e7c0 f i libucrtd:_fenvutils.obj
 0001:0004d7e0       ??U@YA?AW4__acrt_fenv_abstract_status@@W40@0@Z 000000014004e7e0 f i libucrtd:_fenvutils.obj
 0001:0004d7e0       ??U@YA?AW4__acrt_fenv_abstract_control@@W40@0@Z 000000014004e7e0 f i libucrtd:_fenvutils.obj
 0001:0004d800       ??U@YA?AW4__acrt_fenv_machine_sse_control@@W40@0@Z 000000014004e800 f i libucrtd:_fenvutils.obj
 0001:0004d820       ??_5@YAAEAW4__acrt_fenv_abstract_status@@AEAW40@W40@@Z 000000014004e820 f i libucrtd:_fenvutils.obj
 0001:0004d820       ??_5@YAAEAW4__acrt_fenv_abstract_control@@AEAW40@W40@@Z 000000014004e820 f i libucrtd:_fenvutils.obj
 0001:0004d820       ??_5@YAAEAW4__acrt_fenv_machine_sse_status@@AEAW40@W40@@Z 000000014004e820 f i libucrtd:_fenvutils.obj
 0001:0004d850       ??_5@YAAEAW4__acrt_fenv_machine_sse_control@@AEAW40@W40@@Z 000000014004e850 f i libucrtd:_fenvutils.obj
 0001:0004d880       ?__acrt_fenv_shift_abstract_sse_control@@YA?AW4__acrt_fenv_abstract_control@@W41@@Z 000000014004e880 f i libucrtd:_fenvutils.obj
 0001:0004d8d0       ?__acrt_fenv_shift_abstract_sse_status@@YA?AW4__acrt_fenv_abstract_status@@W41@@Z 000000014004e8d0 f i libucrtd:_fenvutils.obj
 0001:0004d900       ?__acrt_fenv_unshift_abstract_sse_control@@YA?AW4__acrt_fenv_abstract_control@@W41@@Z 000000014004e900 f i libucrtd:_fenvutils.obj
 0001:0004d950       ?__acrt_fenv_unshift_abstract_sse_status@@YA?AW4__acrt_fenv_abstract_status@@W41@@Z 000000014004e950 f i libucrtd:_fenvutils.obj
 0001:0004dc20       __acrt_fenv_get_common_round_control 000000014004ec20 f   libucrtd:_fenvutils.obj
 0001:0004dc40       __acrt_fenv_get_control    000000014004ec40 f   libucrtd:_fenvutils.obj
 0001:0004dc70       __acrt_fenv_get_status     000000014004ec70 f   libucrtd:_fenvutils.obj
 0001:0004dca0       __acrt_fenv_set_control    000000014004eca0 f   libucrtd:_fenvutils.obj
 0001:0004dcc0       __acrt_fenv_set_status     000000014004ecc0 f   libucrtd:_fenvutils.obj
 0001:0004dce0       ?__c16rtomb_utf8@__crt_mbstring@@YA_KPEAD_SPEAU_Mbstatet@@@Z 000000014004ece0 f   libucrtd:c16rtomb.obj
 0001:0004df00       __acrt_initialize_fma3     000000014004ef00 f   libucrtd:fma3_available.obj
 0001:0004dfb0       _log10_special             000000014004efb0 f   libucrtd:log_special.obj
 0001:0004e2f0       _handle_error              000000014004f2f0 f   libucrtd:libm_error.obj
 0001:0004e480       _handle_nan                000000014004f480 f   libucrtd:libm_error.obj
 0001:0004e6c0       _clearfp                   000000014004f6c0 f   libucrtd:ieee.obj
 0001:0004e6e0       _control87                 000000014004f6e0 f   libucrtd:ieee.obj
 0001:0004e970       _raise_exc                 000000014004f970 f   libucrtd:fpexcept.obj
 0001:0004e9d0       _raise_exc_ex              000000014004f9d0 f   libucrtd:fpexcept.obj
 0001:0004f050       _set_errno_from_matherr    0000000140050050 f   libucrtd:fpexcept.obj
 0001:0004f0a0       _clrfp                     00000001400500a0 f   libucrtd:fpctrl.obj
 0001:0004f0d0       _ctrlfp                    00000001400500d0 f   libucrtd:fpctrl.obj
 0001:0004f180       _set_statfp                0000000140050180 f   libucrtd:fpctrl.obj
 0001:0004f1c0       _statfp                    00000001400501c0 f   libucrtd:fpctrl.obj
 0001:0004f200       _get_fpsr                  0000000140050200 f   libucrtd:fpsr.obj
 0001:0004f210       _set_fpsr                  0000000140050210 f   libucrtd:fpsr.obj
 0001:0004f21a       _fclrf                     000000014005021a f   libucrtd:fpsr.obj
 0001:0004f22e       _frnd                      000000014005022e f   libucrtd:fpsr.obj
 0001:0004f250       _FindPESection             0000000140050250 f   LIBCMTD:pesect.obj
 0001:0004f300       _IsNonwritableInCurrentImage 0000000140050300 f   LIBCMTD:pesect.obj
 0001:0004f390       _ValidateImageBase         0000000140050390 f   LIBCMTD:pesect.obj
 0001:0004f410       __GSHandlerCheck_SEH       0000000140050410 f   LIBCMTD:gshandlerseh.obj
 0001:0004f4e0       __chkstk                   00000001400504e0 f   LIBCMTD:chkstk.obj
 0001:0004f4e0       _alloca_probe              00000001400504e0 f   LIBCMTD:chkstk.obj
 0001:0004f540       strchr                     0000000140050540 f   libvcruntimed:strchr.obj
 0001:0004f6d0       strrchr                    00000001400506d0 f   libvcruntimed:strrchr.obj
 0001:0004fb00       _guard_dispatch_icall_nop  0000000140050b00 f   LIBCMTD:guard_dispatch.obj
 0002:00000000       __imp_CreateFileA          0000000140052000     kernel32:KERNEL32.dll
 0002:00000008       __imp_GetFileSizeEx        0000000140052008     kernel32:KERNEL32.dll
 0002:00000010       __imp_ReadFile             0000000140052010     kernel32:KERNEL32.dll
 0002:00000018       __imp_CloseHandle          0000000140052018     kernel32:KERNEL32.dll
 0002:00000020       __imp_VirtualAlloc         0000000140052020     kernel32:KERNEL32.dll
 0002:00000028       __imp_EnterCriticalSection 0000000140052028     kernel32:KERNEL32.dll
 0002:00000030       __imp_LeaveCriticalSection 0000000140052030     kernel32:KERNEL32.dll
 0002:00000038       __imp_DeleteCriticalSection 0000000140052038     kernel32:KERNEL32.dll
 0002:00000040       __imp_SetLastError         0000000140052040     kernel32:KERNEL32.dll
 0002:00000048       __imp_InitializeCriticalSectionAndSpinCount 0000000140052048     kernel32:KERNEL32.dll
 0002:00000050       __imp_TlsAlloc             0000000140052050     kernel32:KERNEL32.dll
 0002:00000058       __imp_TlsGetValue          0000000140052058     kernel32:KERNEL32.dll
 0002:00000060       __imp_TlsSetValue          0000000140052060     kernel32:KERNEL32.dll
 0002:00000068       __imp_TlsFree              0000000140052068     kernel32:KERNEL32.dll
 0002:00000070       __imp_GetSystemTimeAsFileTime 0000000140052070     kernel32:KERNEL32.dll
 0002:00000078       __imp_GetModuleHandleW     0000000140052078     kernel32:KERNEL32.dll
 0002:00000080       __imp_GetProcAddress       0000000140052080     kernel32:KERNEL32.dll
 0002:00000088       __imp_RtlCaptureContext    0000000140052088     kernel32:KERNEL32.dll
 0002:00000090       __imp_RtlLookupFunctionEntry 0000000140052090     kernel32:KERNEL32.dll
 0002:00000098       __imp_RtlVirtualUnwind     0000000140052098     kernel32:KERNEL32.dll
 0002:000000a0       __imp_IsDebuggerPresent    00000001400520a0     kernel32:KERNEL32.dll
 0002:000000a8       __imp_UnhandledExceptionFilter 00000001400520a8     kernel32:KERNEL32.dll
 0002:000000b0       __imp_SetUnhandledExceptionFilter 00000001400520b0     kernel32:KERNEL32.dll
 0002:000000b8       __imp_GetStartupInfoW      00000001400520b8     kernel32:KERNEL32.dll
 0002:000000c0       __imp_IsProcessorFeaturePresent 00000001400520c0     kernel32:KERNEL32.dll
 0002:000000c8       __imp_GetCurrentProcess    00000001400520c8     kernel32:KERNEL32.dll
 0002:000000d0       __imp_TerminateProcess     00000001400520d0     kernel32:KERNEL32.dll
 0002:000000d8       __imp_QueryPerformanceCounter 00000001400520d8     kernel32:KERNEL32.dll
 0002:000000e0       __imp_GetCurrentProcessId  00000001400520e0     kernel32:KERNEL32.dll
 0002:000000e8       __imp_GetCurrentThreadId   00000001400520e8     kernel32:KERNEL32.dll
 0002:000000f0       __imp_InitializeSListHead  00000001400520f0     kernel32:KERNEL32.dll
 0002:000000f8       __imp_SetEndOfFile         00000001400520f8     kernel32:KERNEL32.dll
 0002:00000100       __imp_RtlPcToFileHeader    0000000140052100     kernel32:KERNEL32.dll
 0002:00000108       __imp_RaiseException       0000000140052108     kernel32:KERNEL32.dll
 0002:00000110       __imp_RtlUnwindEx          0000000140052110     kernel32:KERNEL32.dll
 0002:00000118       __imp_GetLastError         0000000140052118     kernel32:KERNEL32.dll
 0002:00000120       __imp_EncodePointer        0000000140052120     kernel32:KERNEL32.dll
 0002:00000128       __imp_FreeLibrary          0000000140052128     kernel32:KERNEL32.dll
 0002:00000130       __imp_LoadLibraryExW       0000000140052130     kernel32:KERNEL32.dll
 0002:00000138       __imp_GetModuleFileNameW   0000000140052138     kernel32:KERNEL32.dll
 0002:00000140       __imp_GetModuleHandleExW   0000000140052140     kernel32:KERNEL32.dll
 0002:00000148       __imp_ExitProcess          0000000140052148     kernel32:KERNEL32.dll
 0002:00000150       __imp_GetStdHandle         0000000140052150     kernel32:KERNEL32.dll
 0002:00000158       __imp_WriteFile            0000000140052158     kernel32:KERNEL32.dll
 0002:00000160       __imp_GetCommandLineA      0000000140052160     kernel32:KERNEL32.dll
 0002:00000168       __imp_GetCommandLineW      0000000140052168     kernel32:KERNEL32.dll
 0002:00000170       __imp_HeapAlloc            0000000140052170     kernel32:KERNEL32.dll
 0002:00000178       __imp_HeapSize             0000000140052178     kernel32:KERNEL32.dll
 0002:00000180       __imp_HeapValidate         0000000140052180     kernel32:KERNEL32.dll
 0002:00000188       __imp_GetSystemInfo        0000000140052188     kernel32:KERNEL32.dll
 0002:00000190       __imp_GetFileType          0000000140052190     kernel32:KERNEL32.dll
 0002:00000198       __imp_OutputDebugStringW   0000000140052198     kernel32:KERNEL32.dll
 0002:000001a0       __imp_WriteConsoleW        00000001400521a0     kernel32:KERNEL32.dll
 0002:000001a8       __imp_GetConsoleMode       00000001400521a8     kernel32:KERNEL32.dll
 0002:000001b0       __imp_ReadConsoleW         00000001400521b0     kernel32:KERNEL32.dll
 0002:000001b8       __imp_SetFilePointerEx     00000001400521b8     kernel32:KERNEL32.dll
 0002:000001c0       __imp_GetConsoleOutputCP   00000001400521c0     kernel32:KERNEL32.dll
 0002:000001c8       __imp_CompareStringW       00000001400521c8     kernel32:KERNEL32.dll
 0002:000001d0       __imp_LCMapStringW         00000001400521d0     kernel32:KERNEL32.dll
 0002:000001d8       __imp_FindClose            00000001400521d8     kernel32:KERNEL32.dll
 0002:000001e0       __imp_FindFirstFileExW     00000001400521e0     kernel32:KERNEL32.dll
 0002:000001e8       __imp_FindNextFileW        00000001400521e8     kernel32:KERNEL32.dll
 0002:000001f0       __imp_IsValidCodePage      00000001400521f0     kernel32:KERNEL32.dll
 0002:000001f8       __imp_GetACP               00000001400521f8     kernel32:KERNEL32.dll
 0002:00000200       __imp_GetOEMCP             0000000140052200     kernel32:KERNEL32.dll
 0002:00000208       __imp_GetCPInfo            0000000140052208     kernel32:KERNEL32.dll
 0002:00000210       __imp_MultiByteToWideChar  0000000140052210     kernel32:KERNEL32.dll
 0002:00000218       __imp_WideCharToMultiByte  0000000140052218     kernel32:KERNEL32.dll
 0002:00000220       __imp_GetEnvironmentStringsW 0000000140052220     kernel32:KERNEL32.dll
 0002:00000228       __imp_FreeEnvironmentStringsW 0000000140052228     kernel32:KERNEL32.dll
 0002:00000230       __imp_SetEnvironmentVariableW 0000000140052230     kernel32:KERNEL32.dll
 0002:00000238       __imp_GetProcessHeap       0000000140052238     kernel32:KERNEL32.dll
 0002:00000240       __imp_SetStdHandle         0000000140052240     kernel32:KERNEL32.dll
 0002:00000248       __imp_GetStringTypeW       0000000140052248     kernel32:KERNEL32.dll
 0002:00000250       __imp_HeapFree             0000000140052250     kernel32:KERNEL32.dll
 0002:00000258       __imp_HeapReAlloc          0000000140052258     kernel32:KERNEL32.dll
 0002:00000260       __imp_HeapQueryInformation 0000000140052260     kernel32:KERNEL32.dll
 0002:00000268       __imp_FlushFileBuffers     0000000140052268     kernel32:KERNEL32.dll
 0002:00000270       __imp_CreateFileW          0000000140052270     kernel32:KERNEL32.dll
 0002:00000278       \177KERNEL32_NULL_THUNK_DATA 0000000140052278     kernel32:KERNEL32.dll
 0002:00000280       __guard_check_icall_fptr   0000000140052280     LIBCMTD:guard_support.obj
 0002:00000288       __guard_dispatch_icall_fptr 0000000140052288     LIBCMTD:guard_support.obj
 0002:00000290       __xc_a                     0000000140052290     LIBCMTD:initializers.obj
 0002:000002b0       __xc_z                     00000001400522b0     LIBCMTD:initializers.obj
 0002:000002b8       __xi_a                     00000001400522b8     LIBCMTD:initializers.obj
 0002:000002d8       __acrt_stdio_initializer   00000001400522d8     libucrtd:stdio_initializer.obj
 0002:000002e0       __acrt_multibyte_initializer 00000001400522e0     libucrtd:multibyte_initializer.obj
 0002:000002e8       __acrt_fmode_initializer   00000001400522e8     libucrtd:fmode_initializer.obj
 0002:000002f0       __acrt_tran_fma3_initializer 00000001400522f0     libucrtd:fma3_initializer.obj
 0002:000002f8       __xi_z                     00000001400522f8     LIBCMTD:initializers.obj
 0002:00000300       __xp_a                     0000000140052300     LIBCMTD:initializers.obj
 0002:00000308       __acrt_locale_terminator   0000000140052308     libucrtd:locale_initializer.obj
 0002:00000310       __dcrt_console_output_terminator 0000000140052310     libucrtd:console_output_initializer.obj
 0002:00000318       __acrt_stdio_terminator    0000000140052318     libucrtd:stdio_initializer.obj
 0002:00000320       __xp_z                     0000000140052320     LIBCMTD:initializers.obj
 0002:00000328       __xt_a                     0000000140052328     LIBCMTD:initializers.obj
 0002:00000330       __xt_z                     0000000140052330     LIBCMTD:initializers.obj
 0002:000010d0       ??_C@_0BB@FCMFBGOM@invalid?5argument@ 00000001400530d0     preprocess.obj
 0002:000010e4       ??_C@_02DKCKIIND@?$CFs@    00000001400530e4     preprocess.obj
 0002:000010e8       ??_C@_1CG@JNLFBNGN@?$AA?$CC?$AAi?$AAn?$AAv?$AAa?$AAl?$AAi?$AAd?$AA?5?$AAa?$AAr?$AAg?$AAu?$AAm?$AAe@ 00000001400530e8     preprocess.obj
 0002:00001110       ??_C@_0BJ@LFDBABJJ@ITERATOR?5LIST?5CORRUPTED?$CB@ 0000000140053110     preprocess.obj
 0002:00001130       ??_C@_0GM@FAFCIENC@c?3?2program?5files?5?$CIx86?$CJ?2microsof@ 0000000140053130     preprocess.obj
 0002:000011a0       ??_C@_1NI@CLIPCEJM@?$AAc?$AA?3?$AA?2?$AAp?$AAr?$AAo?$AAg?$AAr?$AAa?$AAm?$AA?5?$AAf?$AAi?$AAl?$AAe@ 00000001400531a0     preprocess.obj
 0002:00001280       ??_C@_1EE@KLDMFDFL@?$AAs?$AAt?$AAd?$AA?3?$AA?3?$AA_?$AAI?$AAt?$AAe?$AAr?$AAa?$AAt?$AAo?$AAr?$AA_@ 0000000140053280     preprocess.obj
 0002:000012c8       ??_C@_1DG@PLBPCAEM@?$AA?$CC?$AAI?$AAT?$AAE?$AAR?$AAA?$AAT?$AAO?$AAR?$AA?5?$AAL?$AAI?$AAS?$AAT?$AA?5@ 00000001400532c8     preprocess.obj
 0002:00001300       ??_C@_0GM@EMOPLGHB@c?3?2program?5files?5?$CIx86?$CJ?2microsof@ 0000000140053300     preprocess.obj
 0002:00001370       ??_C@_1NI@NGGEPBDP@?$AAc?$AA?3?$AA?2?$AAp?$AAr?$AAo?$AAg?$AAr?$AAa?$AAm?$AA?5?$AAf?$AAi?$AAl?$AAe@ 0000000140053370     preprocess.obj
 0002:00001450       ??_C@_1EK@NIFDJFDG@?$AAs?$AAt?$AAd?$AA?3?$AA?3?$AA_?$AAA?$AAd?$AAj?$AAu?$AAs?$AAt?$AA_?$AAm?$AAa@ 0000000140053450     preprocess.obj
 0002:000014a0       ??_C@_0BC@CEJOOBCO@Invalid?5Code?5Path@ 00000001400534a0     preprocess.obj
 0002:000014b8       ??_C@_0BM@BALDKKHE@list?5iterators?5incompatible@ 00000001400534b8     preprocess.obj
 0002:000014e0       ??_C@_0GI@MAABJPHP@c?3?2program?5files?5?$CIx86?$CJ?2microsof@ 00000001400534e0     preprocess.obj
 0002:00001550       ??_C@_1NA@GJNEFJAK@?$AAc?$AA?3?$AA?2?$AAp?$AAr?$AAo?$AAg?$AAr?$AAa?$AAm?$AA?5?$AAf?$AAi?$AAl?$AAe@ 0000000140053550     preprocess.obj
 0002:00001620       ??_C@_1BLO@LMDOKPNE@?$AAs?$AAt?$AAd?$AA?3?$AA?3?$AA_?$AAL?$AAi?$AAs?$AAt?$AA_?$AAc?$AAo?$AAn?$AAs@ 0000000140053620     preprocess.obj
 0002:000017e0       ??_C@_1DM@KDLJAKOP@?$AA?$CC?$AAl?$AAi?$AAs?$AAt?$AA?5?$AAi?$AAt?$AAe?$AAr?$AAa?$AAt?$AAo?$AAr?$AAs@ 00000001400537e0     preprocess.obj
 0002:00001820       ??_C@_1BCK@IANBIEMO@?$AAs?$AAt?$AAd?$AA?3?$AA?3?$AA_?$AAL?$AAi?$AAs?$AAt?$AA_?$AAc?$AAo?$AAn?$AAs@ 0000000140053820     preprocess.obj
 0002:00001950       ??_C@_0BK@OGNNAFAB@invalid?5hash?5bucket?5count@ 0000000140053950     preprocess.obj
 0002:00001970       ??_C@_0DD@MBIHGLJE@cannot?5dereference?5value?9initia@ 0000000140053970     preprocess.obj
 0002:000019b0       ??_C@_1BLM@ODKEIHKF@?$AAs?$AAt?$AAd?$AA?3?$AA?3?$AA_?$AAL?$AAi?$AAs?$AAt?$AA_?$AAc?$AAo?$AAn?$AAs@ 00000001400539b0     preprocess.obj
 0002:00001b70       ??_C@_1GK@NKIMOCIG@?$AA?$CC?$AAc?$AAa?$AAn?$AAn?$AAo?$AAt?$AA?5?$AAd?$AAe?$AAr?$AAe?$AAf?$AAe?$AAr@ 0000000140053b70     preprocess.obj
 0002:00001be0       ??_C@_0CF@JCBFHMPL@cannot?5dereference?5end?5list?5ite@ 0000000140053be0     preprocess.obj
 0002:00001c10       ??_C@_1EO@CNEFBDCF@?$AA?$CC?$AAc?$AAa?$AAn?$AAn?$AAo?$AAt?$AA?5?$AAd?$AAe?$AAr?$AAe?$AAf?$AAe?$AAr@ 0000000140053c10     preprocess.obj
 0002:00001c60       ??_C@_1BDC@KIMHLLOJ@?$AAs?$AAt?$AAd?$AA?3?$AA?3?$AA_?$AAL?$AAi?$AAs?$AAt?$AA_?$AAc?$AAo?$AAn?$AAs@ 0000000140053c60     preprocess.obj
 0002:00001da0       ??_C@_1BCI@EPJNIFGE@?$AAs?$AAt?$AAd?$AA?3?$AA?3?$AA_?$AAL?$AAi?$AAs?$AAt?$AA_?$AAc?$AAo?$AAn?$AAs@ 0000000140053da0     preprocess.obj
 0002:00001ec8       ??_C@_0BD@OLBABOEK@vector?$DMT?$DO?5too?5long@ 0000000140053ec8     preprocess.obj
 0002:00001ee0       ??_C@_0BO@PFKOHNJC@vector?5subscript?5out?5of?5range@ 0000000140053ee0     preprocess.obj
 0002:00001f00       ??_C@_0GK@ECBJCIPN@c?3?2program?5files?5?$CIx86?$CJ?2microsof@ 0000000140053f00     preprocess.obj
 0002:00001f70       ??_C@_1NE@HDFPNDLK@?$AAc?$AA?3?$AA?2?$AAp?$AAr?$AAo?$AAg?$AAr?$AAa?$AAm?$AA?5?$AAf?$AAi?$AAl?$AAe@ 0000000140053f70     preprocess.obj
 0002:00002050       ??_C@_1DNE@EIDKPBDH@?$AAs?$AAt?$AAd?$AA?3?$AA?3?$AAv?$AAe?$AAc?$AAt?$AAo?$AAr?$AA?$DM?$AAc?$AAl?$AAa@ 0000000140054050     preprocess.obj
 0002:00002430       ??_C@_1EA@LEKOKFNB@?$AA?$CC?$AAv?$AAe?$AAc?$AAt?$AAo?$AAr?$AA?5?$AAs?$AAu?$AAb?$AAs?$AAc?$AAr?$AAi@ 0000000140054430     preprocess.obj
 0002:00002470       ??_C@_1CMA@GMDGJBNP@?$AAs?$AAt?$AAd?$AA?3?$AA?3?$AAv?$AAe?$AAc?$AAt?$AAo?$AAr?$AA?$DM?$AAc?$AAl?$AAa@ 0000000140054470     preprocess.obj
 0002:00002730       ??_C@_1CKM@DKMKJEHJ@?$AAs?$AAt?$AAd?$AA?3?$AA?3?$AAv?$AAe?$AAc?$AAt?$AAo?$AAr?$AA?$DM?$AAc?$AAl?$AAa@ 0000000140054730     preprocess.obj
 0002:000029e0       ??_C@_0BA@JFNIOLAK@string?5too?5long@ 00000001400549e0     preprocess.obj
 0002:000029f0       ??_C@_0CC@KEJJOMBH@list?5erase?5iterator?5outside?5ran@ 00000001400549f0     preprocess.obj
 0002:00002a20       ??_C@_1CFI@LKEPFHHD@?$AAs?$AAt?$AAd?$AA?3?$AA?3?$AAl?$AAi?$AAs?$AAt?$AA?$DM?$AAs?$AAt?$AAr?$AAu?$AAc@ 0000000140054a20     preprocess.obj
 0002:00002c80       ??_C@_1EI@FHIDKIBN@?$AA?$CC?$AAl?$AAi?$AAs?$AAt?$AA?5?$AAe?$AAr?$AAa?$AAs?$AAe?$AA?5?$AAi?$AAt?$AAe@ 0000000140054c80     preprocess.obj
 0002:00002cc8       ??_C@_0DB@ENBCPNKO@cannot?5increment?5value?9initiali@ 0000000140054cc8     preprocess.obj
 0002:00002d00       ??_C@_1BLO@BMMDEGBB@?$AAs?$AAt?$AAd?$AA?3?$AA?3?$AA_?$AAL?$AAi?$AAs?$AAt?$AA_?$AAc?$AAo?$AAn?$AAs@ 0000000140054d00     preprocess.obj
 0002:00002ec0       ??_C@_1GG@JLMAGPNK@?$AA?$CC?$AAc?$AAa?$AAn?$AAn?$AAo?$AAt?$AA?5?$AAi?$AAn?$AAc?$AAr?$AAe?$AAm?$AAe@ 0000000140054ec0     preprocess.obj
 0002:00002f28       ??_C@_0CD@PMFMCEG@cannot?5increment?5end?5list?5itera@ 0000000140054f28     preprocess.obj
 0002:00002f50       ??_C@_1EK@OKKCFDJN@?$AA?$CC?$AAc?$AAa?$AAn?$AAn?$AAo?$AAt?$AA?5?$AAi?$AAn?$AAc?$AAr?$AAe?$AAm?$AAe@ 0000000140054f50     preprocess.obj
 0002:00002fa0       ??_C@_1EO@GFNCMDLA@?$AAs?$AAt?$AAd?$AA?3?$AA?3?$AA_?$AAA?$AAl?$AAl?$AAo?$AAc?$AAa?$AAt?$AAe?$AA_@ 0000000140054fa0     preprocess.obj
 0002:00002ff0       ??_C@_0BB@MOGOBHAF@list?$DMT?$DO?5too?5long@ 0000000140054ff0     preprocess.obj
 0002:00003010       ??_C@_1BEE@HFIBMMKE@?$AAs?$AAt?$AAd?$AA?3?$AA?3?$AAl?$AAi?$AAs?$AAt?$AA?$DM?$AAs?$AAt?$AAr?$AAu?$AAc@ 0000000140055010     preprocess.obj
 0002:00003160       ??_C@_1BDA@JOAMHJHJ@?$AAs?$AAt?$AAd?$AA?3?$AA?3?$AAl?$AAi?$AAs?$AAt?$AA?$DM?$AAs?$AAt?$AAr?$AAu?$AAc@ 0000000140055160     preprocess.obj
 0002:00003290       ??_C@_1BDE@GPGAHBPM@?$AAs?$AAt?$AAd?$AA?3?$AA?3?$AA_?$AAL?$AAi?$AAs?$AAt?$AA_?$AAc?$AAo?$AAn?$AAs@ 0000000140055290     preprocess.obj
 0002:000033d0       ??_C@_1BCK@CACMGNAL@?$AAs?$AAt?$AAd?$AA?3?$AA?3?$AA_?$AAL?$AAi?$AAs?$AAt?$AA_?$AAc?$AAo?$AAn?$AAs@ 00000001400553d0     preprocess.obj
 0002:000034fc       __real@3f000000            00000001400554fc     preprocess.obj
 0002:00003500       __real@3f800000            0000000140055500     preprocess.obj
 0002:00003504       __real@5f000000            0000000140055504     preprocess.obj
 0002:00003508       __real@5f800000            0000000140055508     preprocess.obj
 0002:00003518       ??_7exception@std@@6B@     0000000140055518     libcpmtd:xthrow.obj
 0002:00003528       ??_C@_0BC@EOODALEL@Unknown?5exception@ 0000000140055528     libcpmtd:xthrow.obj
 0002:00003548       ??_7bad_alloc@std@@6B@     0000000140055548     libcpmtd:xthrow.obj
 0002:00003558       ??_C@_0P@GHFPNOJB@bad?5allocation@ 0000000140055558     libcpmtd:xthrow.obj
 0002:00003570       ??_7logic_error@std@@6B@   0000000140055570     libcpmtd:xthrow.obj
 0002:00003588       ??_7length_error@std@@6B@  0000000140055588     libcpmtd:xthrow.obj
 0002:000035a0       ??_7out_of_range@std@@6B@  00000001400555a0     libcpmtd:xthrow.obj
 0002:000035b0       ??_C@_1BK@MGMFAEKH@?$AAk?$AAe?$AAr?$AAn?$AAe?$AAl?$AA3?$AA2?$AA?4?$AAd?$AAl?$AAl@ 00000001400555b0     libcpmtd:winapisupp.obj
 0002:000035d0       ??_C@_08KNHFBNJ@FlsAlloc@  00000001400555d0     libcpmtd:winapisupp.obj
 0002:000035e0       ??_C@_07PEJMOBNF@FlsFree@  00000001400555e0     libcpmtd:winapisupp.obj
 0002:000035e8       ??_C@_0M@GDNOONDI@FlsGetValue@ 00000001400555e8     libcpmtd:winapisupp.obj
 0002:000035f8       ??_C@_0M@JCPCPOEF@FlsSetValue@ 00000001400555f8     libcpmtd:winapisupp.obj
 0002:00003608       ??_C@_0BM@HCFOFFN@InitializeCriticalSectionEx@ 0000000140055608     libcpmtd:winapisupp.obj
 0002:00003628       ??_C@_0BE@GPLMMCMH@InitOnceExecuteOnce@ 0000000140055628     libcpmtd:winapisupp.obj
 0002:00003640       ??_C@_0P@DLHPPCNH@CreateEventExW@ 0000000140055640     libcpmtd:winapisupp.obj
 0002:00003650       ??_C@_0BB@MEFPJLHN@CreateSemaphoreW@ 0000000140055650     libcpmtd:winapisupp.obj
 0002:00003668       ??_C@_0BD@KIEEOEEH@CreateSemaphoreExW@ 0000000140055668     libcpmtd:winapisupp.obj
 0002:00003680       ??_C@_0BG@OGFAJCKC@CreateThreadpoolTimer@ 0000000140055680     libcpmtd:winapisupp.obj
 0002:00003698       ??_C@_0BD@LPLEMMDI@SetThreadpoolTimer@ 0000000140055698     libcpmtd:winapisupp.obj
 0002:000036b0       ??_C@_0CA@FMNJENH@WaitForThreadpoolTimerCallbacks@ 00000001400556b0     libcpmtd:winapisupp.obj
 0002:000036d0       ??_C@_0BF@DCFCCNOC@CloseThreadpoolTimer@ 00000001400556d0     libcpmtd:winapisupp.obj
 0002:000036e8       ??_C@_0BF@FLABGKKM@CreateThreadpoolWait@ 00000001400556e8     libcpmtd:winapisupp.obj
 0002:00003700       ??_C@_0BC@MGCOHNA@SetThreadpoolWait@ 0000000140055700     libcpmtd:winapisupp.obj
 0002:00003718       ??_C@_0BE@OCIOMIMP@CloseThreadpoolWait@ 0000000140055718     libcpmtd:winapisupp.obj
 0002:00003730       ??_C@_0BJ@LKGHFHBO@FlushProcessWriteBuffers@ 0000000140055730     libcpmtd:winapisupp.obj
 0002:00003750       ??_C@_0BP@KALKKPMO@FreeLibraryWhenCallbackReturns@ 0000000140055750     libcpmtd:winapisupp.obj
 0002:00003770       ??_C@_0BK@DFNBACLA@GetCurrentProcessorNumber@ 0000000140055770     libcpmtd:winapisupp.obj
 0002:00003790       ??_C@_0BE@FKKLLFLM@CreateSymbolicLinkW@ 0000000140055790     libcpmtd:winapisupp.obj
 0002:000037a8       ??_C@_0BE@JOGNEJCI@GetCurrentPackageId@ 00000001400557a8     libcpmtd:winapisupp.obj
 0002:000037c0       ??_C@_0P@CDHHOHKP@GetTickCount64@ 00000001400557c0     libcpmtd:winapisupp.obj
 0002:000037d0       ??_C@_0BN@NEEHBBPO@GetFileInformationByHandleEx@ 00000001400557d0     libcpmtd:winapisupp.obj
 0002:000037f0       ??_C@_0BL@KBBHGKCM@SetFileInformationByHandle@ 00000001400557f0     libcpmtd:winapisupp.obj
 0002:00003810       ??_C@_0BP@FPNJPEJC@GetSystemTimePreciseAsFileTime@ 0000000140055810     libcpmtd:winapisupp.obj
 0002:00003830       ??_C@_0BM@HLJJNPAH@InitializeConditionVariable@ 0000000140055830     libcpmtd:winapisupp.obj
 0002:00003850       ??_C@_0BG@BFNILBLN@WakeConditionVariable@ 0000000140055850     libcpmtd:winapisupp.obj
 0002:00003868       ??_C@_0BJ@PGPPEPCC@WakeAllConditionVariable@ 0000000140055868     libcpmtd:winapisupp.obj
 0002:00003888       ??_C@_0BJ@JEBJOJFJ@SleepConditionVariableCS@ 0000000140055888     libcpmtd:winapisupp.obj
 0002:000038a8       ??_C@_0BC@MMLHEBPB@InitializeSRWLock@ 00000001400558a8     libcpmtd:winapisupp.obj
 0002:000038c0       ??_C@_0BI@OMNLIJDB@AcquireSRWLockExclusive@ 00000001400558c0     libcpmtd:winapisupp.obj
 0002:000038d8       ??_C@_0BL@OGHFEMNA@TryAcquireSRWLockExclusive@ 00000001400558d8     libcpmtd:winapisupp.obj
 0002:000038f8       ??_C@_0BI@HMIEPCNJ@ReleaseSRWLockExclusive@ 00000001400558f8     libcpmtd:winapisupp.obj
 0002:00003910       ??_C@_0BK@LGACAGIC@SleepConditionVariableSRW@ 0000000140055910     libcpmtd:winapisupp.obj
 0002:00003930       ??_C@_0BF@GGPHFPJA@CreateThreadpoolWork@ 0000000140055930     libcpmtd:winapisupp.obj
 0002:00003948       ??_C@_0BF@NHDAIMMO@SubmitThreadpoolWork@ 0000000140055948     libcpmtd:winapisupp.obj
 0002:00003960       ??_C@_0BE@NPHIPNPD@CloseThreadpoolWork@ 0000000140055960     libcpmtd:winapisupp.obj
 0002:00003978       ??_C@_0BA@IHGNDAEB@CompareStringEx@ 0000000140055978     libcpmtd:winapisupp.obj
 0002:00003988       ??_C@_0BA@ONOKGCMP@GetLocaleInfoEx@ 0000000140055988     libcpmtd:winapisupp.obj
 0002:00003998       ??_C@_0O@KKBNKAPF@LCMapStringEx@ 0000000140055998     libcpmtd:winapisupp.obj
 0002:000039b0       ??_7type_info@@6B@         00000001400559b0     LIBCMTD:std_type_info_static.obj
 0002:000039c0       ??_7bad_array_new_length@std@@6B@ 00000001400559c0     LIBCMTD:throw_bad_alloc.obj
 0002:000039d0       ??_C@_0BF@KINCDENJ@bad?5array?5new?5length@ 00000001400559d0     LIBCMTD:throw_bad_alloc.obj
 0002:00003ad8       ??_C@_17CNPHIMPH@?$AA?$CF?$AAl?$AAs@ 0000000140055ad8     libvcruntimed:std_exception.obj
 0002:00003ae0       ??_C@_1FK@OACNEHHA@?$AAt?$AAo?$AA?9?$AA?$DO?$AA_?$AAW?$AAh?$AAa?$AAt?$AA?5?$AA?$DN?$AA?$DN?$AA?5?$AAn?$AAu@ 0000000140055ae0     libvcruntimed:std_exception.obj
 0002:00003b40       ??_C@_1IM@CGBJDMAM@?$AAd?$AA?3?$AA?2?$AAa?$AAg?$AAe?$AAn?$AAt?$AA?2?$AA_?$AAw?$AAo?$AAr?$AAk?$AA?2@ 0000000140055b40     libvcruntimed:std_exception.obj
 0002:00003bd0       ??_C@_0EO@EFANHAJD@d?3?2agent?2_work?21?2s?2src?2vctools?2@ 0000000140055bd0     libvcruntimed:per_thread_data.obj
 0002:00003c28       ??_7bad_exception@std@@6B@ 0000000140055c28     libvcruntimed:frame.obj
 0002:00003c38       ??_C@_0O@DPKOEFFH@bad?5exception@ 0000000140055c38     libvcruntimed:frame.obj
 0002:00003c60       ??_C@_1DM@KHCHBNEB@?$AAa?$AAp?$AAi?$AA?9?$AAm?$AAs?$AA?9?$AAw?$AAi?$AAn?$AA?9?$AAc?$AAo?$AAr?$AAe@ 0000000140055c60     libvcruntimed:winapi_downlevel.obj
 0002:00003ca0       ??_C@_1DK@LPPGFMPP@?$AAa?$AAp?$AAi?$AA?9?$AAm?$AAs?$AA?9?$AAw?$AAi?$AAn?$AA?9?$AAc?$AAo?$AAr?$AAe@ 0000000140055ca0     libvcruntimed:winapi_downlevel.obj
 0002:00003ce0       ??_C@_1BC@GDMECMAK@?$AAk?$AAe?$AAr?$AAn?$AAe?$AAl?$AA3?$AA2@ 0000000140055ce0     libvcruntimed:winapi_downlevel.obj
 0002:00003cf8       ??_C@_1BA@PFFKHIOG@?$AAa?$AAp?$AAi?$AA?9?$AAm?$AAs?$AA?9@ 0000000140055cf8     libvcruntimed:winapi_downlevel.obj
 0002:00003d08       ??_C@_1BA@IAIFMGEF@?$AAe?$AAx?$AAt?$AA?9?$AAm?$AAs?$AA?9@ 0000000140055d08     libvcruntimed:winapi_downlevel.obj
 0002:00003d20       ??_C@_1EM@LBIFGLGH@?$AAc?$AAa?$AAc?$AAh?$AAe?$AAd?$AA_?$AAh?$AAa?$AAn?$AAd?$AAl?$AAe?$AA?5?$AA?$DN@ 0000000140055d20     libvcruntimed:winapi_downlevel.obj
 0002:00003d70       ??_C@_1JO@HGCMALOH@?$AAd?$AA?3?$AA?2?$AAa?$AAg?$AAe?$AAn?$AAt?$AA?2?$AA_?$AAw?$AAo?$AAr?$AAk?$AA?2@ 0000000140055d70     libvcruntimed:winapi_downlevel.obj
 0002:00003e10       ??_C@_1DI@MAHEDLDB@?$AAc?$AAa?$AAc?$AAh?$AAe?$AAd?$AA_?$AAh?$AAa?$AAn?$AAd?$AAl?$AAe?$AA?5?$AA?$DN@ 0000000140055e10     libvcruntimed:winapi_downlevel.obj
 0002:00003e50       ??_C@_1FC@IBNCGNKL@?$AAc?$AAa?$AAc?$AAh?$AAe?$AAd?$AA_?$AAf?$AAp?$AA?5?$AA?$DN?$AA?$DN?$AA?5?$AAi?$AAn@ 0000000140055e50     libvcruntimed:winapi_downlevel.obj
 0002:00003ea8       ??_C@_1CI@GDJBAGLP@?$AAc?$AAa?$AAc?$AAh?$AAe?$AAd?$AA_?$AAf?$AAp?$AA?5?$AA?$DN?$AA?$DN?$AA?5?$AAn?$AAe@ 0000000140055ea8     libvcruntimed:winapi_downlevel.obj
 0002:00003ef8       _pDestructExceptionObject  0000000140055ef8     libvcruntimed:ehhelpers.obj
 0002:00004238       ??_C@_08EHJDFFNH@__based?$CI@ 0000000140056238     libvcruntimed:undname.obj
 0002:00004248       ??_C@_07KOLFKCDI@__cdecl@  0000000140056248     libvcruntimed:undname.obj
 0002:00004250       ??_C@_08GHMPAG@__pascal@   0000000140056250     libvcruntimed:undname.obj
 0002:00004260       ??_C@_09IFJBGAPI@__stdcall@ 0000000140056260     libvcruntimed:undname.obj
 0002:00004270       ??_C@_0L@NPHFGOKO@__thiscall@ 0000000140056270     libvcruntimed:undname.obj
 0002:00004280       ??_C@_0L@JMKHOMEK@__fastcall@ 0000000140056280     libvcruntimed:undname.obj
 0002:00004290       ??_C@_0N@BCKKPABJ@__vectorcall@ 0000000140056290     libvcruntimed:undname.obj
 0002:000042a0       ??_C@_09HIJEGCPM@__clrcall@ 00000001400562a0     libvcruntimed:undname.obj
 0002:000042ac       ??_C@_06GHPCKEAG@__eabi@   00000001400562ac     libvcruntimed:undname.obj
 0002:000042b8       ??_C@_09IOPIDJLG@__swift_1@ 00000001400562b8     libvcruntimed:undname.obj
 0002:000042c8       ??_C@_09KFNFGKHF@__swift_2@ 00000001400562c8     libvcruntimed:undname.obj
 0002:000042d8       ??_C@_07JOMMBBKO@__ptr64@  00000001400562d8     libvcruntimed:undname.obj
 0002:000042e0       ??_C@_0L@PILCLIHE@__restrict@ 00000001400562e0     libvcruntimed:undname.obj
 0002:000042f0       ??_C@_0M@GFIIJFMG@__unaligned@ 00000001400562f0     libvcruntimed:undname.obj
 0002:00004300       ??_C@_09DHDLOLLB@restrict?$CI@ 0000000140056300     libvcruntimed:undname.obj
 0002:0000430a       ??_C@_00CNPNBAHC@@         000000014005630a     libvcruntimed:undname.obj
 0002:0000430c       ??_C@_04NIHEBCM@?5new@     000000014005630c     libvcruntimed:undname.obj
 0002:00004318       ??_C@_07FPCDHGMM@?5delete@ 0000000140056318     libvcruntimed:undname.obj
 0002:00004320       ??_C@_01NEMOKFLO@?$DN@     0000000140056320     libvcruntimed:undname.obj
 0002:00004324       ??_C@_02GPIOPFAK@?$DO?$DO@ 0000000140056324     libvcruntimed:undname.obj
 0002:00004328       ??_C@_02FODMEDOG@?$DM?$DM@ 0000000140056328     libvcruntimed:undname.obj
 0002:0000432c       ??_C@_01DCLJPIOD@?$CB@     000000014005632c     libvcruntimed:undname.obj
 0002:00004330       ??_C@_02EGOFBIJA@?$DN?$DN@ 0000000140056330     libvcruntimed:undname.obj
 0002:00004334       ??_C@_02FDNJECIE@?$CB?$DN@ 0000000140056334     libvcruntimed:undname.obj
 0002:00004338       ??_C@_02GPECMEKF@?$FL?$FN@ 0000000140056338     libvcruntimed:undname.obj
 0002:00004340       ??_C@_08LHJFAFGD@operator@ 0000000140056340     libvcruntimed:undname.obj
 0002:0000434c       ??_C@_02HBOOOICD@?9?$DO@   000000014005634c     libvcruntimed:undname.obj
 0002:00004350       ??_C@_01NBENCBCI@?$CK@     0000000140056350     libvcruntimed:undname.obj
 0002:00004354       ??_C@_02ECNGHCIF@?$CL?$CL@ 0000000140056354     libvcruntimed:undname.obj
 0002:00004358       ??_C@_02BAABKJLB@?9?9@     0000000140056358     libvcruntimed:undname.obj
 0002:0000435c       ??_C@_01JOAMLHOP@?9@       000000014005635c     libvcruntimed:undname.obj
 0002:00004360       ??_C@_01MIFGBAGJ@?$CL@     0000000140056360     libvcruntimed:undname.obj
 0002:00004364       ??_C@_01HNPIGOCE@?$CG@     0000000140056364     libvcruntimed:undname.obj
 0002:00004368       ??_C@_03MNHNFDLC@?9?$DO?$CK@ 0000000140056368     libvcruntimed:undname.obj
 0002:0000436c       ??_C@_01KMDKNFGN@?1@       000000014005636c     libvcruntimed:undname.obj
 0002:00004370       ??_C@_01FGNFDNOH@?$CF@     0000000140056370     libvcruntimed:undname.obj
 0002:00004374       ??_C@_01MNNFJEPP@?$DM@     0000000140056374     libvcruntimed:undname.obj
 0002:00004378       ??_C@_02EHCHHCKH@?$DM?$DN@ 0000000140056378     libvcruntimed:undname.obj
 0002:0000437c       ??_C@_01PPODPGHN@?$DO@     000000014005637c     libvcruntimed:undname.obj
 0002:00004380       ??_C@_02EEKDKGMJ@?$DO?$DN@ 0000000140056380     libvcruntimed:undname.obj
 0002:00004384       ??_C@_01IHBHIGKO@?0@       0000000140056384     libvcruntimed:undname.obj
 0002:00004388       ??_C@_02HCKGKOFO@?$CI?$CJ@ 0000000140056388     libvcruntimed:undname.obj
 0002:0000438c       ??_C@_01PJKLJHI@?$HO@      000000014005638c     libvcruntimed:undname.obj
 0002:00004390       ??_C@_01JKBOJNNK@?$FO@     0000000140056390     libvcruntimed:undname.obj
 0002:00004394       ??_C@_01DNKMNLPK@?$HM@     0000000140056394     libvcruntimed:undname.obj
 0002:00004398       ??_C@_02PPKAJPJL@?$CG?$CG@ 0000000140056398     libvcruntimed:undname.obj
 0002:0000439c       ??_C@_02NONPIBCD@?$HM?$HM@ 000000014005639c     libvcruntimed:undname.obj
 0002:000043a0       ??_C@_02FPIMKNGF@?$CK?$DN@ 00000001400563a0     libvcruntimed:undname.obj
 0002:000043a4       ??_C@_02FOEOMHFC@?$CL?$DN@ 00000001400563a4     libvcruntimed:undname.obj
 0002:000043a8       ??_C@_02FKMDLLOA@?9?$DN@   00000001400563a8     libvcruntimed:undname.obj
 0002:000043ac       ??_C@_02FJEHGPIO@?1?$DN@   00000001400563ac     libvcruntimed:undname.obj
 0002:000043b0       ??_C@_02FENAOKFI@?$CF?$DN@ 00000001400563b0     libvcruntimed:undname.obj
 0002:000043b4       ??_C@_03IKFCCPFF@?$DO?$DO?$DN@ 00000001400563b4     libvcruntimed:undname.obj
 0002:000043b8       ??_C@_03CDNPDDLA@?$DM?$DM?$DN@ 00000001400563b8     libvcruntimed:undname.obj
 0002:000043bc       ??_C@_02FGJGFEAB@?$CG?$DN@ 00000001400563bc     libvcruntimed:undname.obj
 0002:000043c0       ??_C@_02DHLNPPGH@?$HM?$DN@ 00000001400563c0     libvcruntimed:undname.obj
 0002:000043c4       ??_C@_02MHEGNOJ@?$FO?$DN@  00000001400563c4     libvcruntimed:undname.obj
 0002:000043c8       ??_C@_09IFPLHPGF@?$GAvftable?8@ 00000001400563c8     libvcruntimed:undname.obj
 0002:000043d8       ??_C@_09BLBHBJP@?$GAvbtable?8@ 00000001400563d8     libvcruntimed:undname.obj
 0002:000043e8       ??_C@_07FEEIOKP@?$GAvcall?8@ 00000001400563e8     libvcruntimed:undname.obj
 0002:000043f0       ??_C@_08LLFFHHDJ@?$GAtypeof?8@ 00000001400563f0     libvcruntimed:undname.obj
 0002:00004400       ??_C@_0BF@KDPPACIK@?$GAlocal?5static?5guard?8@ 0000000140056400     libvcruntimed:undname.obj
 0002:00004418       ??_C@_08OBABFOLI@?$GAstring?8@ 0000000140056418     libvcruntimed:undname.obj
 0002:00004428       ??_C@_0BD@JDLKDPAB@?$GAvbase?5destructor?8@ 0000000140056428     libvcruntimed:undname.obj
 0002:00004440       ??_C@_0BN@DEGPLNFK@?$GAvector?5deleting?5destructor?8@ 0000000140056440     libvcruntimed:undname.obj
 0002:00004460       ??_C@_0BO@OBMKPJIG@?$GAdefault?5constructor?5closure?8@ 0000000140056460     libvcruntimed:undname.obj
 0002:00004480       ??_C@_0BN@IMDCHIKM@?$GAscalar?5deleting?5destructor?8@ 0000000140056480     libvcruntimed:undname.obj
 0002:000044a0       ??_C@_0BO@PFGOCPJJ@?$GAvector?5constructor?5iterator?8@ 00000001400564a0     libvcruntimed:undname.obj
 0002:000044c0       ??_C@_0BN@LFPFMEDL@?$GAvector?5destructor?5iterator?8@ 00000001400564c0     libvcruntimed:undname.obj
 0002:000044e0       ??_C@_0CE@IKBNEHA@?$GAvector?5vbase?5constructor?5itera@ 00000001400564e0     libvcruntimed:undname.obj
 0002:00004508       ??_C@_0BL@NILFHHPC@?$GAvirtual?5displacement?5map?8@ 0000000140056508     libvcruntimed:undname.obj
 0002:00004528       ??_C@_0CB@JONCMFFK@?$GAeh?5vector?5constructor?5iterator@ 0000000140056528     libvcruntimed:undname.obj
 0002:00004550       ??_C@_0CA@GCEOPDGL@?$GAeh?5vector?5destructor?5iterator?8@ 0000000140056550     libvcruntimed:undname.obj
 0002:00004570       ??_C@_0CH@OOJPLCPH@?$GAeh?5vector?5vbase?5constructor?5it@ 0000000140056570     libvcruntimed:undname.obj
 0002:00004598       ??_C@_0BL@LLKPOHJI@?$GAcopy?5constructor?5closure?8@ 0000000140056598     libvcruntimed:undname.obj
 0002:000045b8       ??_C@_0BA@KBCDOMBN@?$GAudt?5returning?8@ 00000001400565b8     libvcruntimed:undname.obj
 0002:000045c8       ??_C@_03KLGMFNMG@?$GAEH@   00000001400565c8     libvcruntimed:undname.obj
 0002:000045cc       ??_C@_05KHLCHHI@?$GARTTI@  00000001400565cc     libvcruntimed:undname.obj
 0002:000045d8       ??_C@_0BA@KKLDJDLB@?$GAlocal?5vftable?8@ 00000001400565d8     libvcruntimed:undname.obj
 0002:000045e8       ??_C@_0CE@IIHCMGGL@?$GAlocal?5vftable?5constructor?5clos@ 00000001400565e8     libvcruntimed:undname.obj
 0002:0000460c       ??_C@_06FHBGPFGH@?5new?$FL?$FN@ 000000014005660c     libvcruntimed:undname.obj
 0002:00004618       ??_C@_09LBNFPBCA@?5delete?$FL?$FN@ 0000000140056618     libvcruntimed:undname.obj
 0002:00004628       ??_C@_0P@HJKNJFNN@?$GAomni?5callsig?8@ 0000000140056628     libvcruntimed:undname.obj
 0002:00004638       ??_C@_0BL@CNOONJFP@?$GAplacement?5delete?5closure?8@ 0000000140056638     libvcruntimed:undname.obj
 0002:00004658       ??_C@_0BN@CKNJLHMB@?$GAplacement?5delete?$FL?$FN?5closure?8@ 0000000140056658     libvcruntimed:undname.obj
 0002:00004678       ??_C@_0CG@CFDHKGGD@?$GAmanaged?5vector?5constructor?5ite@ 0000000140056678     libvcruntimed:undname.obj
 0002:000046a0       ??_C@_0CF@IMGKMJNO@?$GAmanaged?5vector?5destructor?5iter@ 00000001400566a0     libvcruntimed:undname.obj
 0002:000046c8       ??_C@_0CG@HLDDJMAG@?$GAeh?5vector?5copy?5constructor?5ite@ 00000001400566c8     libvcruntimed:undname.obj
 0002:000046f0       ??_C@_0CM@FCBBDIGB@?$GAeh?5vector?5vbase?5copy?5construct@ 00000001400566f0     libvcruntimed:undname.obj
 0002:00004720       ??_C@_0BL@CLIPGLGB@?$GAdynamic?5initializer?5for?5?8@ 0000000140056720     libvcruntimed:undname.obj
 0002:00004740       ??_C@_0CB@PDBIFEP@?$GAdynamic?5atexit?5destructor?5for?5@ 0000000140056740     libvcruntimed:undname.obj
 0002:00004768       ??_C@_0CD@CGAJBKEJ@?$GAvector?5copy?5constructor?5iterat@ 0000000140056768     libvcruntimed:undname.obj
 0002:00004790       ??_C@_0CJ@GJELGAMM@?$GAvector?5vbase?5copy?5constructor?5@ 0000000140056790     libvcruntimed:undname.obj
 0002:000047c0       ??_C@_0CL@FGIJHLCE@?$GAmanaged?5vector?5copy?5constructo@ 00000001400567c0     libvcruntimed:undname.obj
 0002:000047f0       ??_C@_0BM@PMGGMLDN@?$GAlocal?5static?5thread?5guard?8@ 00000001400567f0     libvcruntimed:undname.obj
 0002:00004810       ??_C@_0N@BDNMDMOL@operator?5?$CC?$CC?5@ 0000000140056810     libvcruntimed:undname.obj
 0002:00004820       ??_C@_0BC@GGEBGALA@operator?5co_await@ 0000000140056820     libvcruntimed:undname.obj
 0002:00004838       ??_C@_0BC@DAFEJGAK@?5Type?5Descriptor?8@ 0000000140056838     libvcruntimed:undname.obj
 0002:00004850       ??_C@_0BM@LDKODKLH@?5Base?5Class?5Descriptor?5at?5?$CI@ 0000000140056850     libvcruntimed:undname.obj
 0002:00004870       ??_C@_0BD@LGICGFMM@?5Base?5Class?5Array?8@ 0000000140056870     libvcruntimed:undname.obj
 0002:00004888       ??_C@_0BN@MECKDCOJ@?5Class?5Hierarchy?5Descriptor?8@ 0000000140056888     libvcruntimed:undname.obj
 0002:000048a8       ??_C@_0BK@CFCOFLF@?5Complete?5Object?5Locator?8@ 00000001400568a8     libvcruntimed:undname.obj
 0002:000048e0       ??_C@_1BA@GLMCNLEM@?$AAW?$AAa?$AAr?$AAn?$AAi?$AAn?$AAg@ 00000001400568e0     libucrtd:dbgrpt.obj
 0002:000048f0       ??_C@_1M@ILHOPKA@?$AAE?$AAr?$AAr?$AAo?$AAr@ 00000001400568f0     libucrtd:dbgrpt.obj
 0002:00004900       ??_C@_1CC@CGHMNGDG@?$AAA?$AAs?$AAs?$AAe?$AAr?$AAt?$AAi?$AAo?$AAn?$AA?5?$AAF?$AAa?$AAi?$AAl?$AAe@ 0000000140056900     libucrtd:dbgrpt.obj
 0002:00004930       ??_C@_1OG@PMPPFHAF@?$AA?6?$AA?6?$AAF?$AAo?$AAr?$AA?5?$AAi?$AAn?$AAf?$AAo?$AAr?$AAm?$AAa?$AAt?$AAi@ 0000000140056930     libucrtd:dbgrpt.obj
 0002:00004a20       ??_C@_1MG@LJLILFFD@?$AAD?$AAe?$AAb?$AAu?$AAg?$AA?5?$AA?$CF?$AAl?$AAs?$AA?$CB?$AA?6?$AA?6?$AAP?$AAr?$AAo@ 0000000140056a20     libucrtd:dbgrpt.obj
 0002:00004af0       ??_C@_1MG@OODCADGL@?$AAD?$AAe?$AAb?$AAu?$AAg?$AA?5?$AA?$CF?$AAl?$AAs?$AA?$CB?$AA?6?$AA?6?$AAP?$AAr?$AAo@ 0000000140056af0     libucrtd:dbgrpt.obj
 0002:00004bb8       ??_C@_0BH@DNAGHKFM@?$DMprogram?5name?5unknown?$DO@ 0000000140056bb8     libucrtd:dbgrpt.obj
 0002:00004bd0       ??_C@_1CO@EAEJAADC@?$AA?$DM?$AAp?$AAr?$AAo?$AAg?$AAr?$AAa?$AAm?$AA?5?$AAn?$AAa?$AAm?$AAe?$AA?5?$AAu@ 0000000140056bd0     libucrtd:dbgrpt.obj
 0002:00004c00       ??_C@_1FO@GMJDLAJD@?$AAm?$AAi?$AAn?$AAk?$AAe?$AAr?$AAn?$AAe?$AAl?$AA?2?$AAc?$AAr?$AAt?$AAs?$AA?2@ 0000000140056c00     libucrtd:dbgrpt.obj
 0002:00004c60       ??_C@_1CM@EHMOGBJJ@?$AAc?$AAo?$AAm?$AAm?$AAo?$AAn?$AA_?$AAm?$AAe?$AAs?$AAs?$AAa?$AAg?$AAe?$AA_@ 0000000140056c60     libucrtd:dbgrpt.obj
 0002:00004c90       ??_C@_1PE@ECNALGCA@?$AAt?$AAr?$AAa?$AAi?$AAt?$AAs?$AA?3?$AA?3?$AAt?$AAc?$AAs?$AAc?$AAp?$AAy?$AA_@ 0000000140056c90     libucrtd:dbgrpt.obj
 0002:00004d84       ??_C@_11LOCGONAA@@         0000000140056d84     libucrtd:dbgrpt.obj
 0002:00004d88       ??_C@_1BK@PEDCIPMA@?$AAE?$AAx?$AAp?$AAr?$AAe?$AAs?$AAs?$AAi?$AAo?$AAn?$AA?3?$AA?5@ 0000000140056d88     libucrtd:dbgrpt.obj
 0002:00004da4       ??_C@_15IABLJNFO@?$AA?6?$AA?6@ 0000000140056da4     libucrtd:dbgrpt.obj
 0002:00004db0       ??_C@_1BA@GLLGCPCK@?$AA?6?$AAL?$AAi?$AAn?$AAe?$AA?3?$AA?5@ 0000000140056db0     libucrtd:dbgrpt.obj
 0002:00004dc0       ??_C@_1BA@LNHECFIM@?$AA?6?$AAF?$AAi?$AAl?$AAe?$AA?3?$AA?5@ 0000000140056dc0     libucrtd:dbgrpt.obj
 0002:00004dd0       ??_C@_17LGKOMLJ@?$AA?4?$AA?4?$AA?4@ 0000000140056dd0     libucrtd:dbgrpt.obj
 0002:00004dd8       ??_C@_1BE@CGCJKGHI@?$AA?6?$AAM?$AAo?$AAd?$AAu?$AAl?$AAe?$AA?3?$AA?5@ 0000000140056dd8     libucrtd:dbgrpt.obj
 0002:00004df0       ??_C@_1BI@KALLJECN@?$AA?$CI?$AA?$CK?$AA_?$AAe?$AAr?$AAr?$AAn?$AAo?$AA?$CI?$AA?$CJ?$AA?$CJ@ 0000000140056df0     libucrtd:dbgrpt.obj
 0002:00004e10       ??_C@_1JM@IBOIJEOO@?$AAw?$AAc?$AAs?$AAc?$AAp?$AAy?$AA_?$AAs?$AA?$CI?$AAm?$AAe?$AAs?$AAs?$AAa?$AAg@ 0000000140056e10     libucrtd:dbgrpt.obj
 0002:00004eb0       ??_C@_1FG@BBOLDHGF@?$AA_?$AAC?$AAr?$AAt?$AAD?$AAb?$AAg?$AAR?$AAe?$AAp?$AAo?$AAr?$AAt?$AA?3?$AA?5@ 0000000140056eb0     libucrtd:dbgrpt.obj
 0002:00004f10       ??_C@_1EK@MBDPDCGA@?$AAM?$AAi?$AAc?$AAr?$AAo?$AAs?$AAo?$AAf?$AAt?$AA?5?$AAV?$AAi?$AAs?$AAu?$AAa@ 0000000140056f10     libucrtd:dbgrpt.obj
 0002:00004f60       ??_C@_1BO@MHPFFFJJ@?$AAs?$AAt?$AAr?$AAe?$AAa?$AAm?$AA?4?$AAv?$AAa?$AAl?$AAi?$AAd?$AA?$CI?$AA?$CJ@ 0000000140056f60     libucrtd:fclose.obj
 0002:00004f80       ??_C@_1GA@DKNOMDCL@?$AAm?$AAi?$AAn?$AAk?$AAe?$AAr?$AAn?$AAe?$AAl?$AA?2?$AAc?$AAr?$AAt?$AAs?$AA?2@ 0000000140056f80     libucrtd:fclose.obj
 0002:00004fe0       ??_C@_1O@EGMJNCOI@?$AAf?$AAc?$AAl?$AAo?$AAs?$AAe@ 0000000140056fe0     libucrtd:fclose.obj
 0002:00004ff0       ??_C@_1BO@JINCABEC@?$AA_?$AAf?$AAc?$AAl?$AAo?$AAs?$AAe?$AA_?$AAn?$AAo?$AAl?$AAo?$AAc?$AAk@ 0000000140056ff0     libucrtd:fclose.obj
 0002:00005010       ??_C@_1CK@LLOEFJJG@?$AAf?$AAi?$AAl?$AAe?$AA_?$AAn?$AAa?$AAm?$AAe?$AA?5?$AA?$CB?$AA?$DN?$AA?5?$AAn?$AAu@ 0000000140057010     libucrtd:fopen.obj
 0002:00005040       ??_C@_1FO@JKHHBFCN@?$AAm?$AAi?$AAn?$AAk?$AAe?$AAr?$AAn?$AAe?$AAl?$AA?2?$AAc?$AAr?$AAt?$AAs?$AA?2@ 0000000140057040     libucrtd:fopen.obj
 0002:000050a0       ??_C@_1BM@HBDCPLIA@?$AAc?$AAo?$AAm?$AAm?$AAo?$AAn?$AA_?$AAf?$AAs?$AAo?$AAp?$AAe?$AAn@ 00000001400570a0     libucrtd:fopen.obj
 0002:000050c0       ??_C@_1CA@HJKPLBCC@?$AAm?$AAo?$AAd?$AAe?$AA?5?$AA?$CB?$AA?$DN?$AA?5?$AAn?$AAu?$AAl?$AAl?$AAp?$AAt?$AAr@ 00000001400570c0     libucrtd:fopen.obj
 0002:000050e0       ??_C@_1BG@HEFEIBLN@?$AA?$CK?$AAm?$AAo?$AAd?$AAe?$AA?5?$AA?$CB?$AA?$DN?$AA?5?$AA0@ 00000001400570e0     libucrtd:fopen.obj
 0002:000050f8       ??_C@_1CE@JMFACANE@?$AAr?$AAe?$AAs?$AAu?$AAl?$AAt?$AA?5?$AA?$CB?$AA?$DN?$AA?5?$AAn?$AAu?$AAl?$AAl?$AAp@ 00000001400570f8     libucrtd:fopen.obj
 0002:00005120       ??_C@_1CE@JLIJLEKO@?$AAs?$AAt?$AAr?$AAe?$AAa?$AAm?$AA?5?$AA?$CB?$AA?$DN?$AA?5?$AAn?$AAu?$AAl?$AAl?$AAp@ 0000000140057120     libucrtd:fread.obj
 0002:00005150       ??_C@_1FO@CIJKACCM@?$AAm?$AAi?$AAn?$AAk?$AAe?$AAr?$AAn?$AAe?$AAl?$AA?2?$AAc?$AAr?$AAt?$AAs?$AA?2@ 0000000140057150     libucrtd:fread.obj
 0002:000051b0       ??_C@_1BA@CMLCEIGG@?$AAf?$AAr?$AAe?$AAa?$AAd?$AA_?$AAs@ 00000001400571b0     libucrtd:fread.obj
 0002:000051c0       ??_C@_1CE@MCCHPLBM@?$AAb?$AAu?$AAf?$AAf?$AAe?$AAr?$AA?5?$AA?$CB?$AA?$DN?$AA?5?$AAn?$AAu?$AAl?$AAl?$AAp@ 00000001400571c0     libucrtd:fread.obj
 0002:000051e8       ??_C@_1CA@IDPOGFL@?$AA_?$AAf?$AAr?$AAe?$AAa?$AAd?$AA_?$AAn?$AAo?$AAl?$AAo?$AAc?$AAk?$AA_?$AAs@ 00000001400571e8     libucrtd:fread.obj
 0002:00005210       ??_C@_1FG@KLKDPCLL@?$AAe?$AAl?$AAe?$AAm?$AAe?$AAn?$AAt?$AA_?$AAc?$AAo?$AAu?$AAn?$AAt?$AA?5?$AA?$DM@ 0000000140057210     libucrtd:fread.obj
 0002:00005270       ??_C@_1LG@DCNDJCHK@?$AA?$CI?$AA?$CC?$AAI?$AAn?$AAc?$AAo?$AAn?$AAs?$AAi?$AAs?$AAt?$AAe?$AAn?$AAt?$AA?5@ 0000000140057270     libucrtd:fread.obj
 0002:00005328       ??_C@_1DA@DKEFLDMG@?$AA?$CI?$AA?$CC?$AAb?$AAu?$AAf?$AAf?$AAe?$AAr?$AA?5?$AAt?$AAo?$AAo?$AA?5?$AAs?$AAm@ 0000000140057328     libucrtd:fread.obj
 0002:00005360       ??_C@_1FO@KMPAKEKH@?$AAm?$AAi?$AAn?$AAk?$AAe?$AAr?$AAn?$AAe?$AAl?$AA?2?$AAc?$AAr?$AAt?$AAs?$AA?2@ 0000000140057360     libucrtd:fseek.obj
 0002:000053c0       ??_C@_1BK@HEPGDNON@?$AAc?$AAo?$AAm?$AAm?$AAo?$AAn?$AA_?$AAf?$AAs?$AAe?$AAe?$AAk@ 00000001400573c0     libucrtd:fseek.obj
 0002:000053e0       ??_C@_1HO@BJGCGJL@?$AAw?$AAh?$AAe?$AAn?$AAc?$AAe?$AA?5?$AA?$DN?$AA?$DN?$AA?5?$AAS?$AAE?$AAE?$AAK?$AA_@ 00000001400573e0     libucrtd:fseek.obj
 0002:00005460       ??_C@_1CO@LBNDLIPC@?$AAs?$AAt?$AAr?$AAe?$AAa?$AAm?$AA?4?$AAp?$AAu?$AAb?$AAl?$AAi?$AAc?$AA_?$AAs@ 0000000140057460     libucrtd:ftell.obj
 0002:00005490       ??_C@_1FO@JHBALIAM@?$AAm?$AAi?$AAn?$AAk?$AAe?$AAr?$AAn?$AAe?$AAl?$AA?2?$AAc?$AAr?$AAt?$AAs?$AA?2@ 0000000140057490     libucrtd:ftell.obj
 0002:000054f0       ??_C@_1CI@MOKEPKDC@?$AAc?$AAo?$AAm?$AAm?$AAo?$AAn?$AA_?$AAf?$AAt?$AAe?$AAl?$AAl?$AA_?$AAn?$AAo@ 00000001400574f0     libucrtd:ftell.obj
 0002:00005520       ??_C@_1GM@EDHJGDLB@?$AA?$CI?$AAb?$AAu?$AAf?$AAf?$AAe?$AAr?$AA_?$AAl?$AAa?$AAs?$AAt?$AA?5?$AA?9?$AA?5@ 0000000140057520     libucrtd:ftell.obj
 0002:00005590       ??_C@_1BK@CMPCEPOF@?$AAc?$AAo?$AAm?$AAm?$AAo?$AAn?$AA_?$AAf?$AAt?$AAe?$AAl?$AAl@ 0000000140057590     libucrtd:ftell.obj
 0002:000055b0       ??_C@_1GA@JFCHAOOC@?$AAm?$AAi?$AAn?$AAk?$AAe?$AAr?$AAn?$AAe?$AAl?$AA?2?$AAc?$AAr?$AAt?$AAs?$AA?2@ 00000001400575b0     libucrtd:fwrite.obj
 0002:00005610       ??_C@_1O@KLNKIMAP@?$AAf?$AAw?$AAr?$AAi?$AAt?$AAe@ 0000000140057610     libucrtd:fwrite.obj
 0002:00005620       ??_C@_1BO@JGPKCBCE@?$AA_?$AAf?$AAw?$AAr?$AAi?$AAt?$AAe?$AA_?$AAn?$AAo?$AAl?$AAo?$AAc?$AAk@ 0000000140057620     libucrtd:fwrite.obj
 0002:00005640       ??_C@_1JG@PCJFJNAC@?$AA?$CI?$AA?$CC?$AAF?$AAl?$AAu?$AAs?$AAh?$AA?5?$AAb?$AAe?$AAt?$AAw?$AAe?$AAe?$AAn@ 0000000140057640     libucrtd:fwrite.obj
 0002:000056e0       __acrt_exception_action_table 00000001400576e0     libucrtd:exception_filter.obj
 0002:000057a0       __acrt_signal_action_table_count 00000001400577a0     libucrtd:exception_filter.obj
 0002:000057a8       __acrt_signal_action_first_fpe_index 00000001400577a8     libucrtd:exception_filter.obj
 0002:000057b0       __acrt_signal_action_fpe_count 00000001400577b0     libucrtd:exception_filter.obj
 0002:000057b8       ??_C@_1BI@BGOHAHKC@?$AAm?$AAs?$AAc?$AAo?$AAr?$AAe?$AAe?$AA?4?$AAd?$AAl?$AAl@ 00000001400577b8     libucrtd:exit.obj
 0002:000057d0       ??_C@_0P@MIGLKIOC@CorExitProcess@ 00000001400577d0     libucrtd:exit.obj
 0002:000057e0       ??_C@_0DI@KNDIGDEP@minkernel?2crts?2ucrt?2src?2appcrt?2@ 00000001400577e0     libucrtd:argv_parsing.obj
 0002:00005820       ??_C@_1JO@PGBIJBAM@?$AAm?$AAo?$AAd?$AAe?$AA?5?$AA?$DN?$AA?$DN?$AA?5?$AA_?$AAc?$AAr?$AAt?$AA_?$AAa?$AAr@ 0000000140057820     libucrtd:argv_parsing.obj
 0002:000058c0       ??_C@_1HA@JMLCANEE@?$AAm?$AAi?$AAn?$AAk?$AAe?$AAr?$AAn?$AAe?$AAl?$AA?2?$AAc?$AAr?$AAt?$AAs?$AA?2@ 00000001400578c0     libucrtd:argv_parsing.obj
 0002:00005930       ??_C@_1CM@LHOJELIC@?$AAc?$AAo?$AAm?$AAm?$AAo?$AAn?$AA_?$AAc?$AAo?$AAn?$AAf?$AAi?$AAg?$AAu?$AAr@ 0000000140057930     libucrtd:argv_parsing.obj
 0002:00005960       ??_C@_0EG@LEHKHOEH@minkernel?2crts?2ucrt?2src?2desktop@ 0000000140057960     libucrtd:environment_initialization.obj
 0002:000059b0       ??_C@_1IM@IMOFFPLG@?$AAm?$AAi?$AAn?$AAk?$AAe?$AAr?$AAn?$AAe?$AAl?$AA?2?$AAc?$AAr?$AAt?$AAs?$AA?2@ 00000001400579b0     libucrtd:environment_initialization.obj
 0002:00005a40       ??_C@_1CG@MNNNBNAK@?$AAc?$AAr?$AAe?$AAa?$AAt?$AAe?$AA_?$AAe?$AAn?$AAv?$AAi?$AAr?$AAo?$AAn?$AAm@ 0000000140057a40     libucrtd:environment_initialization.obj
 0002:00005a70       ??_C@_1HI@OOPIFFGA@?$AAt?$AAr?$AAa?$AAi?$AAt?$AAs?$AA?3?$AA?3?$AAt?$AAc?$AAs?$AAc?$AAp?$AAy?$AA_@ 0000000140057a70     libucrtd:environment_initialization.obj
 0002:00005b10       ??_C@_0DC@NBHMIIKL@minkernel?2crts?2ucrt?2src?2appcrt?2@ 0000000140057b10     libucrtd:onexit.obj
 0002:00005c50       ??_C@_1IC@DCNEKBE@?$AAm?$AAi?$AAn?$AAk?$AAe?$AAr?$AAn?$AAe?$AAl?$AA?2?$AAc?$AAr?$AAt?$AAs?$AA?2@ 0000000140057c50     libucrtd:report_runtime_error.obj
 0002:00005cd8       ??_C@_1DI@BLFJHKKP@?$AA_?$AA_?$AAa?$AAc?$AAr?$AAt?$AA_?$AAr?$AAe?$AAp?$AAo?$AAr?$AAt?$AA_?$AAr@ 0000000140057cd8     libucrtd:report_runtime_error.obj
 0002:00005d10       ??_C@_1LE@MHPGJGKE@?$AAw?$AAc?$AAs?$AAc?$AAp?$AAy?$AA_?$AAs?$AA?$CI?$AAo?$AAu?$AAt?$AAm?$AAs?$AAg@ 0000000140057d10     libucrtd:report_runtime_error.obj
 0002:00005dc8       ??_C@_1DE@JNGNBFGO@?$AAR?$AAu?$AAn?$AAt?$AAi?$AAm?$AAe?$AA?5?$AAE?$AAr?$AAr?$AAo?$AAr?$AA?$CB?$AA?6@ 0000000140057dc8     libucrtd:report_runtime_error.obj
 0002:00005e00       ??_C@_1HK@FJJNAABO@?$AAw?$AAc?$AAs?$AAc?$AAp?$AAy?$AA_?$AAs?$AA?$CI?$AAp?$AAr?$AAo?$AAg?$AAn?$AAa@ 0000000140057e00     libucrtd:report_runtime_error.obj
 0002:00005e80       ??_C@_1HI@FLHKGEBE@?$AAw?$AAc?$AAs?$AAn?$AAc?$AAp?$AAy?$AA_?$AAs?$AA?$CI?$AAp?$AAc?$AAh?$AA?0?$AA?5@ 0000000140057e80     libucrtd:report_runtime_error.obj
 0002:00005f00       ??_C@_1IG@MNNKBLBI@?$AAw?$AAc?$AAs?$AAc?$AAa?$AAt?$AA_?$AAs?$AA?$CI?$AAo?$AAu?$AAt?$AAm?$AAs?$AAg@ 0000000140057f00     libucrtd:report_runtime_error.obj
 0002:00005f90       ??_C@_1IG@DFBBBDAN@?$AAw?$AAc?$AAs?$AAc?$AAa?$AAt?$AA_?$AAs?$AA?$CI?$AAo?$AAu?$AAt?$AAm?$AAs?$AAg@ 0000000140057f90     libucrtd:report_runtime_error.obj
 0002:00006020       ??_C@_1GC@CIJNGKLD@?$AAm?$AAi?$AAn?$AAk?$AAe?$AAr?$AAn?$AAe?$AAl?$AA?2?$AAc?$AAr?$AAt?$AAs?$AA?2@ 0000000140058020     libucrtd:setmode.obj
 0002:00006090       ??_C@_1FO@LPCLHKGE@?$AA?$CI?$AAf?$AAh?$AA?5?$AA?$DO?$AA?$DN?$AA?5?$AA0?$AA?5?$AA?$CG?$AA?$CG?$AA?5?$AA?$CI?$AAu?$AAn@ 0000000140058090     libucrtd:setmode.obj
 0002:000060f0       ??_C@_1CM@OKGMMMDH@?$AA?$CI?$AA_?$AAo?$AAs?$AAf?$AAi?$AAl?$AAe?$AA?$CI?$AAf?$AAh?$AA?$CJ?$AA?5?$AA?$CG?$AA?5@ 00000001400580f0     libucrtd:setmode.obj
 0002:00006120       ??_C@_1JE@ECKHFIFP@?$AA?$CI?$AA?$CC?$AAI?$AAn?$AAv?$AAa?$AAl?$AAi?$AAd?$AA?5?$AAf?$AAi?$AAl?$AAe?$AA?5@ 0000000140058120     libucrtd:setmode.obj
 0002:000061c0       ??_C@_1HC@GNDCDMJL@?$AAm?$AAo?$AAd?$AAe?$AA?5?$AA?$DN?$AA?$DN?$AA?5?$AA_?$AAO?$AA_?$AAT?$AAE?$AAX?$AAT@ 00000001400581c0     libucrtd:setmode.obj
 0002:00006238       ??_C@_1BG@IEEHLOCL@?$AA_?$AAs?$AAe?$AAt?$AA_?$AAf?$AAm?$AAo?$AAd?$AAe@ 0000000140058238     libucrtd:setmode.obj
 0002:00006250       ??_C@_1CC@ODGEBJBO@?$AAp?$AAM?$AAo?$AAd?$AAe?$AA?5?$AA?$CB?$AA?$DN?$AA?5?$AAn?$AAu?$AAl?$AAl?$AAp?$AAt@ 0000000140058250     libucrtd:setmode.obj
 0002:00006278       ??_C@_1BG@CKGMPOFH@?$AA_?$AAg?$AAe?$AAt?$AA_?$AAf?$AAm?$AAo?$AAd?$AAe@ 0000000140058278     libucrtd:setmode.obj
 0002:00006290       ??_C@_1GA@LDEGDKD@?$AA?$CI?$AA?$CC?$AAI?$AAn?$AAv?$AAa?$AAl?$AAi?$AAd?$AA?5?$AAp?$AAa?$AAr?$AAa?$AAm@ 0000000140058290     libucrtd:wsetlocale.obj
 0002:000062f0       ??_C@_1GK@DPKNLBIE@?$AAm?$AAi?$AAn?$AAk?$AAe?$AAr?$AAn?$AAe?$AAl?$AA?2?$AAc?$AAr?$AAt?$AAs?$AA?2@ 00000001400582f0     libucrtd:wsetlocale.obj
 0002:00006360       ??_C@_1CI@FGIONOJM@?$AA_?$AAc?$AAo?$AAn?$AAf?$AAi?$AAg?$AAt?$AAh?$AAr?$AAe?$AAa?$AAd?$AAl?$AAo@ 0000000140058360     libucrtd:wsetlocale.obj
 0002:00006388       ??_C@_1CO@JKFLNGDK@?$AAm?$AAo?$AAd?$AAe?$AA?5?$AA?$DN?$AA?$DN?$AA?5?$AA0?$AA?5?$AA?$HM?$AA?$HM?$AA?5?$AAm?$AAo@ 0000000140058388     libucrtd:new_mode.obj
 0002:000063c0       ??_C@_1GC@PJMKBHEK@?$AAm?$AAi?$AAn?$AAk?$AAe?$AAr?$AAn?$AAe?$AAl?$AA?2?$AAc?$AAr?$AAt?$AAs?$AA?2@ 00000001400583c0     libucrtd:new_mode.obj
 0002:00006428       ??_C@_1BM@PDPAKJNF@?$AA_?$AAs?$AAe?$AAt?$AA_?$AAn?$AAe?$AAw?$AA_?$AAm?$AAo?$AAd?$AAe@ 0000000140058428     libucrtd:new_mode.obj
 0002:00006470       ??_C@_04HJMOFLDF@Free@     0000000140058470     libucrtd:debug_heap.obj
 0002:00006478       ??_C@_06EFAGIKOH@Normal@   0000000140058478     libucrtd:debug_heap.obj
 0002:00006480       ??_C@_03OGPFLFLO@CRT@      0000000140058480     libucrtd:debug_heap.obj
 0002:00006484       ??_C@_06KMEJCCGM@Ignore@   0000000140058484     libucrtd:debug_heap.obj
 0002:0000648c       ??_C@_06PJIGMIJB@Client@   000000014005848c     libucrtd:debug_heap.obj
 0002:00006498       ??_C@_1CE@LJFEPPMP@?$AA_?$AAC?$AAr?$AAt?$AAC?$AAh?$AAe?$AAc?$AAk?$AAM?$AAe?$AAm?$AAo?$AAr?$AAy@ 0000000140058498     libucrtd:debug_heap.obj
 0002:000064c0       ??_C@_1GG@OCLHPJPK@?$AAm?$AAi?$AAn?$AAk?$AAe?$AAr?$AAn?$AAe?$AAl?$AA?2?$AAc?$AAr?$AAt?$AAs?$AA?2@ 00000001400584c0     libucrtd:debug_heap.obj
 0002:00006528       ??_C@_0DF@BBEGIFEK@Client?5hook?5allocation?5failure?5@ 0000000140058528     libucrtd:debug_heap.obj
 0002:00006560       ??_C@_0CB@CCLOLAHO@Client?5hook?5allocation?5failure?4@ 0000000140058560     libucrtd:debug_heap.obj
 0002:00006588       ??_C@_0DC@JEMAGEKG@Error?3?5memory?5allocation?3?5bad?5m@ 0000000140058588     libucrtd:debug_heap.obj
 0002:000065c0       ??_C@_0DI@KKJPDPGM@Client?5hook?5re?9allocation?5failu@ 00000001400585c0     libucrtd:debug_heap.obj
 0002:000065f8       ??_C@_0CE@DOFMDOL@Client?5hook?5re?9allocation?5failu@ 00000001400585f8     libucrtd:debug_heap.obj
 0002:00006620       ??_C@_0FA@EFEIGJKG@Error?3?5memory?5allocation?3?5bad?5m@ 0000000140058620     libucrtd:debug_heap.obj
 0002:00006670       ??_C@_0EM@LGFLMAGJ@The?5Block?5at?50x?$CFp?5was?5allocated@ 0000000140058670     libucrtd:debug_heap.obj
 0002:000066c0       ??_C@_1DM@DEDLGNML@?$AA_?$AAC?$AAr?$AAt?$AAI?$AAs?$AAV?$AAa?$AAl?$AAi?$AAd?$AAH?$AAe?$AAa?$AAp@ 00000001400586c0     libucrtd:debug_heap.obj
 0002:00006700       ??_C@_1PC@MCGKJLN@?$AAo?$AAl?$AAd?$AA_?$AAh?$AAe?$AAa?$AAd?$AA?9?$AA?$DO?$AA_?$AAl?$AAi?$AAn?$AAe@ 0000000140058700     libucrtd:debug_heap.obj
 0002:000067f8       ??_C@_0DA@HFBKENN@Error?3?5possible?5heap?5corruption@ 00000001400587f8     libucrtd:debug_heap.obj
 0002:00006830       ??_C@_1JM@MCMEPJEP@?$AAr?$AAe?$AAa?$AAl?$AAl?$AAo?$AAc?$AAa?$AAt?$AAi?$AAo?$AAn?$AA_?$AAi?$AAs@ 0000000140058830     libucrtd:debug_heap.obj
 0002:000068d0       ??_C@_1DM@LNOPKAIJ@?$AA_?$AA_?$AAa?$AAc?$AAr?$AAt?$AA_?$AAl?$AAa?$AAs?$AAt?$AA_?$AAb?$AAl?$AAo@ 00000001400588d0     libucrtd:debug_heap.obj
 0002:00006910       ??_C@_1DO@HABCJBHO@?$AA_?$AA_?$AAa?$AAc?$AAr?$AAt?$AA_?$AAf?$AAi?$AAr?$AAs?$AAt?$AA_?$AAb?$AAl@ 0000000140058910     libucrtd:debug_heap.obj
 0002:00006950       ??_C@_1CC@CKEAHJPH@?$AAb?$AAl?$AAo?$AAc?$AAk?$AA?5?$AA?$CB?$AA?$DN?$AA?5?$AAn?$AAu?$AAl?$AAl?$AAp?$AAt@ 0000000140058950     libucrtd:debug_heap.obj
 0002:00006980       ??_C@_0EJ@HEIBCIMJ@The?5Block?5at?50x?$CFp?5was?5allocated@ 0000000140058980     libucrtd:debug_heap.obj
 0002:000069d0       ??_C@_0BL@KEIPLFAC@Client?5hook?5free?5failure?4?6@ 00000001400589d0     libucrtd:debug_heap.obj
 0002:000069f0       ??_C@_1FA@KDNEBILF@?$AAi?$AAs?$AA_?$AAb?$AAl?$AAo?$AAc?$AAk?$AA_?$AAt?$AAy?$AAp?$AAe?$AA_?$AAv@ 00000001400589f0     libucrtd:debug_heap.obj
 0002:00006a40       ??_C@_0KI@JGFOHMEB@HEAP?5CORRUPTION?5DETECTED?3?5befor@ 0000000140058a40     libucrtd:debug_heap.obj
 0002:00006af0       ??_C@_0IK@PJCGLBOB@HEAP?5CORRUPTION?5DETECTED?3?5befor@ 0000000140058af0     libucrtd:debug_heap.obj
 0002:00006b80       ??_C@_0KE@MBMNHHHN@HEAP?5CORRUPTION?5DETECTED?3?5after@ 0000000140058b80     libucrtd:debug_heap.obj
 0002:00006c30       ??_C@_0IG@LEMBDCJK@HEAP?5CORRUPTION?5DETECTED?3?5after@ 0000000140058c30     libucrtd:debug_heap.obj
 0002:00006cc0       ??_C@_1OK@GFEOEJAF@?$AAh?$AAe?$AAa?$AAd?$AAe?$AAr?$AA?9?$AA?$DO?$AA_?$AAl?$AAi?$AAn?$AAe?$AA_?$AAn@ 0000000140058cc0     libucrtd:debug_heap.obj
 0002:00006db0       ??_C@_1ME@GFALMLNA@?$AAh?$AAe?$AAa?$AAd?$AAe?$AAr?$AA?9?$AA?$DO?$AA_?$AAb?$AAl?$AAo?$AAc?$AAk?$AA_@ 0000000140058db0     libucrtd:debug_heap.obj
 0002:00006e78       ??_C@_1DI@ILNOPEPI@?$AA_?$AA_?$AAa?$AAc?$AAr?$AAt?$AA_?$AAl?$AAa?$AAs?$AAt?$AA_?$AAb?$AAl?$AAo@ 0000000140058e78     libucrtd:debug_heap.obj
 0002:00006eb0       ??_C@_1DK@KEHFGDIJ@?$AA_?$AA_?$AAa?$AAc?$AAr?$AAt?$AA_?$AAf?$AAi?$AAr?$AAs?$AAt?$AA_?$AAb?$AAl@ 0000000140058eb0     libucrtd:debug_heap.obj
 0002:00006ef0       ??_C@_1BG@MBKOGDLD@?$AA_?$AAm?$AAs?$AAi?$AAz?$AAe?$AA_?$AAd?$AAb?$AAg@ 0000000140058ef0     libucrtd:debug_heap.obj
 0002:00006f08       ??_C@_07OHKEFPKJ@DAMAGED@  0000000140058f08     libucrtd:debug_heap.obj
 0002:00006f10       ??_C@_0KA@IHNJJKPL@HEAP?5CORRUPTION?5DETECTED?3?5on?5to@ 0000000140058f10     libucrtd:debug_heap.obj
 0002:00006fb0       ??_C@_0IC@BBJIOOJH@HEAP?5CORRUPTION?5DETECTED?3?5on?5to@ 0000000140058fb0     libucrtd:debug_heap.obj
 0002:00007040       ??_C@_0EG@DGJMPDBH@?$CFhs?5located?5at?50x?$CFp?5is?5?$CFIu?5byte@ 0000000140059040     libucrtd:debug_heap.obj
 0002:00007088       ??_C@_0CI@JMLBEDHJ@?$CFhs?5located?5at?50x?$CFp?5is?5?$CFIu?5byte@ 0000000140059088     libucrtd:debug_heap.obj
 0002:000070b0       ??_C@_0EG@GPFHANHO@Cycle?5in?5block?5list?5detected?5wh@ 00000001400590b0     libucrtd:debug_heap.obj
 0002:000070f8       ??_C@_0BJ@ELMAOCAJ@Heap?5validation?5failed?4?6@ 00000001400590f8     libucrtd:debug_heap.obj
 0002:00007120       ??_C@_1IE@BBIFDGEB@?$AAn?$AAe?$AAw?$AA_?$AAb?$AAi?$AAt?$AAs?$AA?5?$AA?$DN?$AA?$DN?$AA?5?$AA_?$AAC?$AAR@ 0000000140059120     libucrtd:debug_heap.obj
 0002:000071a8       ??_C@_1BO@GJFDNMNF@?$AA_?$AAC?$AAr?$AAt?$AAS?$AAe?$AAt?$AAD?$AAb?$AAg?$AAF?$AAl?$AAa?$AAg@ 00000001400591a8     libucrtd:debug_heap.obj
 0002:000071c8       ??_C@_1CC@BBKMONGA@?$AAs?$AAt?$AAa?$AAt?$AAe?$AA?5?$AA?$CB?$AA?$DN?$AA?5?$AAn?$AAu?$AAl?$AAl?$AAp?$AAt@ 00000001400591c8     libucrtd:debug_heap.obj
 0002:000071f0       ??_C@_1CE@NJJKELF@?$AA_?$AAC?$AAr?$AAt?$AAM?$AAe?$AAm?$AAC?$AAh?$AAe?$AAc?$AAk?$AAp?$AAo?$AAi@ 00000001400591f0     libucrtd:debug_heap.obj
 0002:00007218       ??_C@_0DP@LEFMFBOD@Bad?5memory?5block?5found?5at?50x?$CFp?4@ 0000000140059218     libucrtd:debug_heap.obj
 0002:00007258       ??_C@_0CB@EAAIGELO@Bad?5memory?5block?5found?5at?50x?$CFp?4@ 0000000140059258     libucrtd:debug_heap.obj
 0002:0000727c       ??_C@_05MKKEDADM@?$CF?42X?5@ 000000014005927c     libucrtd:debug_heap.obj
 0002:00007288       ??_C@_1CC@DIJAHFFJ@?$AAp?$AAr?$AAi?$AAn?$AAt?$AA_?$AAb?$AAl?$AAo?$AAc?$AAk?$AA_?$AAd?$AAa?$AAt@ 0000000140059288     libucrtd:debug_heap.obj
 0002:000072b0       ??_C@_0BA@HJBKCELP@?5Data?3?5?$DM?$CFs?$DO?5?$CFs?6@ 00000001400592b0     libucrtd:debug_heap.obj
 0002:000072c0       ??_C@_0BE@KCIPKCIA@Dumping?5objects?5?9?$DO?6@ 00000001400592c0     libucrtd:debug_heap.obj
 0002:000072d8       ??_C@_0BE@OIEFNFL@?$CDFile?5Error?$CD?$CI?$CFd?$CJ?5?3?5@ 00000001400592d8     libucrtd:debug_heap.obj
 0002:000072f0       ??_C@_0L@JMEFFCCJ@?$CFhs?$CI?$CFd?$CJ?5?3?5@ 00000001400592f0     libucrtd:debug_heap.obj
 0002:000072fc       ??_C@_06PKLGBFGM@?$HL?$CFld?$HN?5@ 00000001400592fc     libucrtd:debug_heap.obj
 0002:00007308       ??_C@_0DD@GHNAAKBB@client?5block?5at?50x?$CFp?0?5subtype?5?$CF@ 0000000140059308     libucrtd:debug_heap.obj
 0002:00007340       ??_C@_0CH@FAGDDGPN@normal?5block?5at?50x?$CFp?0?5?$CFIu?5bytes@ 0000000140059340     libucrtd:debug_heap.obj
 0002:00007368       ??_C@_0DA@MDLBNIBM@crt?5block?5at?50x?$CFp?0?5subtype?5?$CFx?0?5@ 0000000140059368     libucrtd:debug_heap.obj
 0002:00007398       ??_C@_0BH@GFGKJDCO@Object?5dump?5complete?4?6@ 0000000140059398     libucrtd:debug_heap.obj
 0002:000073b0       ??_C@_0BI@JBFPOEJA@Detected?5memory?5leaks?$CB?6@ 00000001400593b0     libucrtd:debug_heap.obj
 0002:000073d0       ??_C@_1GI@BBAEIKL@?$AA?$CI?$AA?$CI?$AAd?$AAe?$AAs?$AAt?$AAi?$AAn?$AAa?$AAt?$AAi?$AAo?$AAn?$AA?$CJ?$AA?$CJ@ 00000001400593d0     libucrtd:strcpy_s.obj
 0002:00007440       ??_C@_1HI@PBJPCEBC@?$AAm?$AAi?$AAn?$AAk?$AAe?$AAr?$AAn?$AAe?$AAl?$AA?2?$AAc?$AAr?$AAt?$AAs?$AA?2@ 0000000140059440     libucrtd:strcpy_s.obj
 0002:000074b8       ??_C@_1CA@FHIAGDFH@?$AAc?$AAo?$AAm?$AAm?$AAo?$AAn?$AA_?$AAt?$AAc?$AAs?$AAc?$AAp?$AAy?$AA_?$AAs@ 00000001400594b8     libucrtd:strcpy_s.obj
 0002:000074d8       ??_C@_1CK@EIOKGPJL@?$AA?$CI?$AA?$CI?$AA?$CI?$AAs?$AAo?$AAu?$AAr?$AAc?$AAe?$AA?$CJ?$AA?$CJ?$AA?$CJ?$AA?5?$AA?$CB?$AA?$DN@ 00000001400594d8     libucrtd:strcpy_s.obj
 0002:00007508       ??_C@_1CI@HCPHDDLE@?$AAB?$AAu?$AAf?$AAf?$AAe?$AAr?$AA?5?$AAi?$AAs?$AA?5?$AAt?$AAo?$AAo?$AA?5?$AAs@ 0000000140059508     libucrtd:strcpy_s.obj
 0002:00007530       ??_C@_1DM@MADKGDLO@?$AA?$CI?$AAL?$AA?$CC?$AAB?$AAu?$AAf?$AAf?$AAe?$AAr?$AA?5?$AAi?$AAs?$AA?5?$AAt?$AAo@ 0000000140059530     libucrtd:strcpy_s.obj
 0002:00007570       ??_C@_1DA@LLLMNMKI@?$AAa?$AAb?$AAo?$AAr?$AAt?$AA?$CI?$AA?$CJ?$AA?5?$AAh?$AAa?$AAs?$AA?5?$AAb?$AAe?$AAe@ 0000000140059570     libucrtd:abort.obj
 0002:000075a0       ?format_validation_lookup_table_spectre@__crt_stdio_output@@3V?$spectre_mitigated_lookup_table@Ustate_transition_pair@__crt_stdio_output@@$0IA@@1@B 00000001400595a0     libucrtd:output.obj
 0002:000079a0       ??_C@_1GC@LCDLABEA@?$AAm?$AAi?$AAn?$AAk?$AAe?$AAr?$AAn?$AAe?$AAl?$AA?2?$AAc?$AAr?$AAt?$AAs?$AA?2@ 00000001400599a0     libucrtd:output.obj
 0002:00007a10       ??_C@_1GA@MOBAPGIO@?$AAm?$AAi?$AAn?$AAk?$AAe?$AAr?$AAn?$AAe?$AAl?$AA?2?$AAc?$AAr?$AAt?$AAs?$AA?2@ 0000000140059a10     libucrtd:output.obj
 0002:00007a70       ??_C@_1CE@EAKLPBKK@?$AAf?$AAo?$AAr?$AAm?$AAa?$AAt?$AA?5?$AA?$CB?$AA?$DN?$AA?5?$AAn?$AAu?$AAl?$AAl?$AAp@ 0000000140059a70     libucrtd:output.obj
 0002:00007a98       ??_C@_1CA@PIMGHCEK@?$AAc?$AAo?$AAm?$AAm?$AAo?$AAn?$AA_?$AAv?$AAs?$AAp?$AAr?$AAi?$AAn?$AAt?$AAf@ 0000000140059a98     libucrtd:output.obj
 0002:00007ac0       ??_C@_1EO@EGEEFEFM@?$AAb?$AAu?$AAf?$AAf?$AAe?$AAr?$AA_?$AAc?$AAo?$AAu?$AAn?$AAt?$AA?5?$AA?$DN?$AA?$DN@ 0000000140059ac0     libucrtd:output.obj
 0002:00007b10       ??_C@_1CE@JEILLNB@?$AAc?$AAo?$AAm?$AAm?$AAo?$AAn?$AA_?$AAv?$AAs?$AAp?$AAr?$AAi?$AAn?$AAt?$AAf@ 0000000140059b10     libucrtd:output.obj
 0002:00007b40       ??_C@_1EM@OAFHAOLH@?$AAb?$AAu?$AAf?$AAf?$AAe?$AAr?$AA?5?$AA?$CB?$AA?$DN?$AA?5?$AAn?$AAu?$AAl?$AAl?$AAp@ 0000000140059b40     libucrtd:output.obj
 0002:00007b90       ??_C@_1DA@HPBFKMEB@?$AA?$CI?$AA?$CC?$AAB?$AAu?$AAf?$AAf?$AAe?$AAr?$AA?5?$AAt?$AAo?$AAo?$AA?5?$AAs?$AAm@ 0000000140059b90     libucrtd:output.obj
 0002:00007bc0       ??_C@_1CG@LHFJHFBB@?$AAc?$AAo?$AAm?$AAm?$AAo?$AAn?$AA_?$AAv?$AAs?$AAn?$AAp?$AAr?$AAi?$AAn?$AAt@ 0000000140059bc0     libucrtd:output.obj
 0002:00007be8       ??_C@_1CM@JOIJBMEM@?$AA_?$AAf?$AAo?$AAr?$AAm?$AAa?$AAt?$AA_?$AAi?$AAt?$AA?5?$AA?$CB?$AA?$DN?$AA?5?$AAn@ 0000000140059be8     libucrtd:output.obj
 0002:00007c20       ??_C@_1HA@DMAAKIJP@?$AAm?$AAi?$AAn?$AAk?$AAe?$AAr?$AAn?$AAe?$AAl?$AA?2?$AAc?$AAr?$AAt?$AAs?$AA?2@ 0000000140059c20     libucrtd:output.obj
 0002:00007c90       ??_C@_1EE@DMAIGNBG@?$AA?$CI?$AA?$CC?$AAI?$AAn?$AAc?$AAo?$AAr?$AAr?$AAe?$AAc?$AAt?$AA?5?$AAf?$AAo?$AAr@ 0000000140059c90     libucrtd:output.obj
 0002:00007ce0       ??_C@_1FG@OBJBDPAC@?$AA?$CI?$AA?$CC?$AAN?$AA?5?$AAl?$AAe?$AAn?$AAg?$AAt?$AAh?$AA?5?$AAm?$AAo?$AAd?$AAi@ 0000000140059ce0     libucrtd:output.obj
 0002:00007d40       ??_C@_1EC@GJPNJDCN@?$AA_?$AAl?$AAe?$AAn?$AAg?$AAt?$AAh?$AA?5?$AA?$DN?$AA?$DN?$AA?5?$AAl?$AAe?$AAn?$AAg@ 0000000140059d40     libucrtd:output.obj
 0002:00007d88       ??_C@_1DG@CEJKFDMO@?$AAs?$AAt?$AAa?$AAt?$AAe?$AA_?$AAc?$AAa?$AAs?$AAe?$AA_?$AAn?$AAo?$AAr?$AAm@ 0000000140059d88     libucrtd:output.obj
 0002:00007dc0       ??_C@_1CI@DDKMNCPP@?$AA_?$AAc?$AAo?$AAn?$AAt?$AAe?$AAx?$AAt?$AA?5?$AA?$CB?$AA?$DN?$AA?5?$AAn?$AAu?$AAl@ 0000000140059dc0     libucrtd:output.obj
 0002:00007df0       ??_C@_1HK@IIPGOADH@?$AA_?$AA_?$AAc?$AAr?$AAt?$AA_?$AAs?$AAt?$AAd?$AAi?$AAo?$AA_?$AAo?$AAu?$AAt@ 0000000140059df0     libucrtd:output.obj
 0002:00007e70       ??_C@_1HE@IACOMEJF@?$AA_?$AA_?$AAc?$AAr?$AAt?$AA_?$AAs?$AAt?$AAd?$AAi?$AAo?$AA_?$AAo?$AAu?$AAt@ 0000000140059e70     libucrtd:output.obj
 0002:00007ef0       ??_C@_1GC@BNMHNGKM@?$AA_?$AAs?$AAt?$AAa?$AAt?$AAe?$AA?5?$AA?$DN?$AA?$DN?$AA?5?$AAs?$AAt?$AAa?$AAt?$AAe@ 0000000140059ef0     libucrtd:output.obj
 0002:00007f60       ??_C@_1BEC@NDOOKIMC@?$AA_?$AA_?$AAc?$AAr?$AAt?$AA_?$AAs?$AAt?$AAd?$AAi?$AAo?$AA_?$AAo?$AAu?$AAt@ 0000000140059f60     libucrtd:output.obj
 0002:000080b0       ??_C@_1EK@PNGFDECN@?$AA?$CI?$AA?$CC?$AA?8?$AAn?$AA?8?$AA?5?$AAf?$AAo?$AAr?$AAm?$AAa?$AAt?$AA?5?$AAs?$AAp@ 000000014005a0b0     libucrtd:output.obj
 0002:00008100       ??_C@_1EO@GHKFGFKL@?$AA?$CI?$AA?$CC?$AAI?$AAn?$AAv?$AAa?$AAl?$AAi?$AAd?$AA?5?$AAi?$AAn?$AAt?$AAe?$AAg@ 000000014005a100     libucrtd:output.obj
 0002:00008150       ??_C@_1BDG@KOLEFKPF@?$AA_?$AA_?$AAc?$AAr?$AAt?$AA_?$AAs?$AAt?$AAd?$AAi?$AAo?$AA_?$AAo?$AAu?$AAt@ 000000014005a150     libucrtd:output.obj
 0002:00008288       ??_C@_1O@CEDCILHN@?$AA?$CI?$AAn?$AAu?$AAl?$AAl?$AA?$CJ@ 000000014005a288     libucrtd:output.obj
 0002:00008298       ??_C@_06OJHGLDPL@?$CInull?$CJ@ 000000014005a298     libucrtd:output.obj
 0002:000082a0       ??_C@_1CK@LGDCECDH@?$AA_?$AAf?$AAo?$AAr?$AAm?$AAa?$AAt?$AA_?$AAc?$AAh?$AAa?$AAr?$AA?5?$AA?$CB?$AA?$DN@ 000000014005a2a0     libucrtd:output.obj
 0002:000082d0       ??_C@_0DI@KIFBHMNO@minkernel?2crts?2ucrt?2inc?2corecrt@ 000000014005a2d0     libucrtd:output.obj
 0002:00008310       ??_C@_1BMK@JGIBNIA@?$AA_?$AA_?$AAc?$AAr?$AAt?$AA_?$AAs?$AAt?$AAd?$AAi?$AAo?$AA_?$AAo?$AAu?$AAt@ 000000014005a310     libucrtd:output.obj
 0002:000084e0       ??_C@_1BLC@INKIGOCN@?$AA_?$AA_?$AAc?$AAr?$AAt?$AA_?$AAs?$AAt?$AAd?$AAi?$AAo?$AA_?$AAo?$AAu?$AAt@ 000000014005a4e0     libucrtd:output.obj
 0002:000086a0       ??_C@_1BNK@KHNJGCCP@?$AA_?$AA_?$AAc?$AAr?$AAt?$AA_?$AAs?$AAt?$AAd?$AAi?$AAo?$AA_?$AAo?$AAu?$AAt@ 000000014005a6a0     libucrtd:output.obj
 0002:00008880       ??_C@_1BNO@OHFFMOOJ@?$AA_?$AA_?$AAc?$AAr?$AAt?$AA_?$AAs?$AAt?$AAd?$AAi?$AAo?$AA_?$AAo?$AAu?$AAt@ 000000014005a880     libucrtd:output.obj
 0002:00008a60       ??_C@_1BMC@FAGJFBLI@?$AA_?$AA_?$AAc?$AAr?$AAt?$AA_?$AAs?$AAt?$AAd?$AAi?$AAo?$AA_?$AAo?$AAu?$AAt@ 000000014005aa60     libucrtd:output.obj
 0002:00008c30       ??_C@_1BMG@CGPDIFDK@?$AA_?$AA_?$AAc?$AAr?$AAt?$AA_?$AAs?$AAt?$AAd?$AAi?$AAo?$AA_?$AAo?$AAu?$AAt@ 000000014005ac30     libucrtd:output.obj
 0002:00008e00       ??_C@_1BNC@OHPDPPJK@?$AA_?$AA_?$AAc?$AAr?$AAt?$AA_?$AAs?$AAt?$AAd?$AAi?$AAo?$AA_?$AAo?$AAu?$AAt@ 000000014005ae00     libucrtd:output.obj
 0002:00008fe0       ??_C@_1BLK@FOLFMPJH@?$AA_?$AA_?$AAc?$AAr?$AAt?$AA_?$AAs?$AAt?$AAd?$AAi?$AAo?$AA_?$AAo?$AAu?$AAt@ 000000014005afe0     libucrtd:output.obj
 0002:000091a0       ??_C@_1BNO@NAODCKFA@?$AA_?$AA_?$AAc?$AAr?$AAt?$AA_?$AAs?$AAt?$AAd?$AAi?$AAo?$AA_?$AAo?$AAu?$AAt@ 000000014005b1a0     libucrtd:output.obj
 0002:00009380       ??_C@_1BMG@BBEFGBID@?$AA_?$AA_?$AAc?$AAr?$AAt?$AA_?$AAs?$AAt?$AAd?$AAi?$AAo?$AA_?$AAo?$AAu?$AAt@ 000000014005b380     libucrtd:output.obj
 0002:00009550       ??_C@_1BNC@JPKLPOHO@?$AA_?$AA_?$AAc?$AAr?$AAt?$AA_?$AAs?$AAt?$AAd?$AAi?$AAo?$AA_?$AAo?$AAu?$AAt@ 000000014005b550     libucrtd:output.obj
 0002:00009730       ??_C@_1GE@DPGDJKLM@?$AAm?$AAi?$AAn?$AAk?$AAe?$AAr?$AAn?$AAe?$AAl?$AA?2?$AAc?$AAr?$AAt?$AAs?$AA?2@ 000000014005b730     libucrtd:atox.obj
 0002:000097a0       ??_C@_1EO@MLJCKPIB@?$AAb?$AAa?$AAs?$AAe?$AA?5?$AA?$DN?$AA?$DN?$AA?5?$AA0?$AA?5?$AA?$HM?$AA?$HM?$AA?5?$AA?$CI?$AA2@ 000000014005b7a0     libucrtd:atox.obj
 0002:000097f0       ??_C@_1DI@BANODKFL@?$AA_?$AA_?$AAc?$AAr?$AAt?$AA_?$AAs?$AAt?$AAr?$AAt?$AAo?$AAx?$AA?3?$AA?3?$AAp@ 000000014005b7f0     libucrtd:atox.obj
 0002:00009828       ??_C@_1CM@GJENOOEJ@?$AAc?$AA?5?$AA?$DN?$AA?$DN?$AA?5?$AA?8?$AA?2?$AA0?$AA?8?$AA?5?$AA?$HM?$AA?$HM?$AA?5?$AA?$CK?$AA_@ 000000014005b828     libucrtd:atox.obj
 0002:00009860       ??_C@_1HA@CONLANFI@?$AA_?$AA_?$AAc?$AAr?$AAt?$AA_?$AAs?$AAt?$AAr?$AAt?$AAo?$AAx?$AA?3?$AA?3?$AAc@ 000000014005b860     libucrtd:atox.obj
 0002:000098d0       ??_C@_1BM@PNEBBBDO@?$AA_?$AAp?$AA?5?$AA?$CB?$AA?$DN?$AA?5?$AAn?$AAu?$AAl?$AAl?$AAp?$AAt?$AAr@ 000000014005b8d0     libucrtd:atox.obj
 0002:000098f0       ??_C@_1HG@FCDBLOEG@?$AA_?$AA_?$AAc?$AAr?$AAt?$AA_?$AAs?$AAt?$AAr?$AAt?$AAo?$AAx?$AA?3?$AA?3?$AAc@ 000000014005b8f0     libucrtd:atox.obj
 0002:00009970       ??_C@_1GK@MNHIDABG@?$AA_?$AA_?$AAc?$AAr?$AAt?$AA_?$AAs?$AAt?$AAr?$AAt?$AAo?$AAx?$AA?3?$AA?3?$AAc@ 000000014005b970     libucrtd:atox.obj
 0002:000099e0       ??_C@_1HA@MKKIHBHP@?$AA_?$AA_?$AAc?$AAr?$AAt?$AA_?$AAs?$AAt?$AAr?$AAt?$AAo?$AAx?$AA?3?$AA?3?$AAc@ 000000014005b9e0     libucrtd:atox.obj
 0002:00009a50       ??_C@_0DM@DKIFNNOL@minkernel?2crts?2ucrt?2src?2appcrt?2@ 000000014005ba50     libucrtd:per_thread_data.obj
 0002:00009a90       ??_C@_1GA@LFAOKOOP@?$AAm?$AAi?$AAn?$AAk?$AAe?$AAr?$AAn?$AAe?$AAl?$AA?2?$AAc?$AAr?$AAt?$AAs?$AA?2@ 000000014005ba90     libucrtd:dbgrptt.obj
 0002:00009af0       ??_C@_1CA@KHJHLKA@?$AA_?$AAV?$AAC?$AAr?$AAt?$AAD?$AAb?$AAg?$AAR?$AAe?$AAp?$AAo?$AAr?$AAt?$AAA@ 000000014005baf0     libucrtd:dbgrptt.obj
 0002:00009b10       ??_C@_1FA@JPHJBHEM@?$AA_?$AAi?$AAt?$AAo?$AAa?$AA_?$AAs?$AA?$CI?$AAn?$AAL?$AAi?$AAn?$AAe?$AA?0?$AA?5@ 000000014005bb10     libucrtd:dbgrptt.obj
 0002:00009b60       ??_C@_0CG@BNGLOCEO@Second?5Chance?5Assertion?5Failed?3@ 000000014005bb60     libucrtd:dbgrptt.obj
 0002:00009b88       ??_C@_0P@DFJNDPOP@?$DMfile?5unknown?$DO@ 000000014005bb88     libucrtd:dbgrptt.obj
 0002:00009b98       ??_C@_07BHGABMGB@?0?5Line?5@ 000000014005bb98     libucrtd:dbgrptt.obj
 0002:00009ba0       ??_C@_01EEMJAFIK@?6@       000000014005bba0     libucrtd:dbgrptt.obj
 0002:00009bb0       ??_C@_1JI@GAALPGBM@?$AAs?$AAt?$AAr?$AAc?$AAp?$AAy?$AA_?$AAs?$AA?$CI?$AAs?$AAz?$AAU?$AAs?$AAe?$AAr@ 000000014005bbb0     libucrtd:dbgrptt.obj
 0002:00009c48       ??_C@_0CL@EACFGMNB@_CrtDbgReport?3?5String?5too?5long?5@ 000000014005bc48     libucrtd:dbgrptt.obj
 0002:00009c80       ??_C@_1KK@GIGAEDMO@?$AAs?$AAt?$AAr?$AAc?$AAp?$AAy?$AA_?$AAs?$AA?$CI?$AAs?$AAz?$AAL?$AAi?$AAn?$AAe@ 000000014005bc80     libucrtd:dbgrptt.obj
 0002:00009d30       ??_C@_0BD@CAENFOHP@Assertion?5failed?3?5@ 000000014005bd30     libucrtd:dbgrptt.obj
 0002:00009d48       ??_C@_0BC@LAIDCHCH@Assertion?5failed?$CB@ 000000014005bd48     libucrtd:dbgrptt.obj
 0002:00009d60       ??_C@_1FK@NPGBPOFO@?$AAs?$AAt?$AAr?$AAc?$AAa?$AAt?$AA_?$AAs?$AA?$CI?$AAs?$AAz?$AAL?$AAi?$AAn?$AAe@ 000000014005bd60     libucrtd:dbgrptt.obj
 0002:00009dc0       ??_C@_1EI@CACDLAFK@?$AAs?$AAt?$AAr?$AAc?$AAa?$AAt?$AA_?$AAs?$AA?$CI?$AAs?$AAz?$AAL?$AAi?$AAn?$AAe@ 000000014005bdc0     libucrtd:dbgrptt.obj
 0002:00009e08       ??_C@_01LIIJDEN@?$AN@      000000014005be08     libucrtd:dbgrptt.obj
 0002:00009e10       ??_C@_1EI@LDHJEDO@?$AAs?$AAt?$AAr?$AAc?$AAa?$AAt?$AA_?$AAs?$AA?$CI?$AAs?$AAz?$AAL?$AAi?$AAn?$AAe@ 000000014005be10     libucrtd:dbgrptt.obj
 0002:00009e58       ??_C@_0M@IPILFDFN@?$CFs?$CI?$CFd?$CJ?5?3?5?$CFs@ 000000014005be58     libucrtd:dbgrptt.obj
 0002:00009e70       ??_C@_1JG@CPKCIOEE@?$AAs?$AAt?$AAr?$AAc?$AAp?$AAy?$AA_?$AAs?$AA?$CI?$AAs?$AAz?$AAO?$AAu?$AAt?$AAM@ 000000014005be70     libucrtd:dbgrptt.obj
 0002:00009f10       ??_C@_1FI@IBIOIHEG@?$AAs?$AAt?$AAr?$AAc?$AAp?$AAy?$AA_?$AAs?$AA?$CI?$AAs?$AAz?$AAO?$AAu?$AAt?$AAM@ 000000014005bf10     libucrtd:dbgrptt.obj
 0002:00009f70       ??_C@_1IM@OOKIFKOH@?$AAe?$AA?5?$AA?$DN?$AA?5?$AAm?$AAb?$AAs?$AAt?$AAo?$AAw?$AAc?$AAs?$AA_?$AAs?$AA?$CI@ 000000014005bf70     libucrtd:dbgrptt.obj
 0002:0000a000       ??_C@_1MC@IGEECMDB@?$AAw?$AAc?$AAs?$AAc?$AAp?$AAy?$AA_?$AAs?$AA?$CI?$AAs?$AAz?$AAO?$AAu?$AAt?$AAM@ 000000014005c000     libucrtd:dbgrptt.obj
 0002:0000a0d0       ??_C@_1HO@PJOFIKFE@?$AA_?$AAC?$AAr?$AAt?$AAD?$AAb?$AAg?$AAR?$AAe?$AAp?$AAo?$AAr?$AAt?$AA?3?$AA?5@ 000000014005c0d0     libucrtd:dbgrptt.obj
 0002:0000a150       ??_C@_1CA@HPALHDOD@?$AA_?$AAV?$AAC?$AAr?$AAt?$AAD?$AAb?$AAg?$AAR?$AAe?$AAp?$AAo?$AAr?$AAt?$AAW@ 000000014005c150     libucrtd:dbgrptt.obj
 0002:0000a170       ??_C@_1FA@CNLLOMHI@?$AA_?$AAi?$AAt?$AAo?$AAw?$AA_?$AAs?$AA?$CI?$AAn?$AAL?$AAi?$AAn?$AAe?$AA?0?$AA?5@ 000000014005c170     libucrtd:dbgrptt.obj
 0002:0000a1c0       ??_C@_1EM@MJFLEDMB@?$AAS?$AAe?$AAc?$AAo?$AAn?$AAd?$AA?5?$AAC?$AAh?$AAa?$AAn?$AAc?$AAe?$AA?5?$AAA@ 000000014005c1c0     libucrtd:dbgrptt.obj
